	.file	"FAT32EntryTable.cpp"
	.text
.Ltext0:
	.cfi_sections	.debug_frame
	.section	.text$_ZN6VectorI10FAT32EntryED1Ev,"x"
	.linkonce discard
	.align 2
	.globl	_ZN6VectorI10FAT32EntryED1Ev
	.def	_ZN6VectorI10FAT32EntryED1Ev;	.scl	2;	.type	32;	.endef
	.seh_proc	_ZN6VectorI10FAT32EntryED1Ev
_ZN6VectorI10FAT32EntryED1Ev:
.LFB1578:
	.file 1 "D:\\Pool\\eclipse-workspace_aarch64\\chap003\\include/templates_implementation/data_structures/Vector.h"
	.loc 1 53 0
	.cfi_startproc
.LVL0:
	subq	$40, %rsp
	.seh_stackalloc	40
	.cfi_def_cfa_offset 48
	.seh_endprologue
.LBB16:
	.loc 1 55 0
	movq	(%rcx), %rdx
	testq	%rdx, %rdx
	je	.L1
	.loc 1 57 0
	movq	.refptr.mman(%rip), %rcx
.LVL1:
	call	_ZN13MemoryManager10deallocateEPv
	nop
.LVL2:
.L1:
.LBE16:
	.loc 1 60 0
	addq	$40, %rsp
	.cfi_def_cfa_offset 8
	ret
	.cfi_endproc
.LFE1578:
	.seh_endproc
	.section	.text$_ZN6VectorI10FAT32EntryEC2EOS1_,"x"
	.linkonce discard
	.align 2
	.globl	_ZN6VectorI10FAT32EntryEC2EOS1_
	.def	_ZN6VectorI10FAT32EntryEC2EOS1_;	.scl	2;	.type	32;	.endef
	.seh_proc	_ZN6VectorI10FAT32EntryEC2EOS1_
_ZN6VectorI10FAT32EntryEC2EOS1_:
.LFB1580:
	.loc 1 32 0
	.cfi_startproc
.LVL3:
	.seh_endprologue
.LBB17:
	.loc 1 33 0
	movq	(%rdx), %rax
	movq	%rax, (%rcx)
	movq	8(%rdx), %rax
	movq	%rax, 8(%rcx)
	movq	16(%rdx), %rax
	movq	%rax, 16(%rcx)
	.loc 1 35 0
	movq	$0, (%rdx)
	.loc 1 36 0
	movq	$0, 8(%rdx)
	.loc 1 37 0
	movq	$0, 16(%rdx)
	ret
.LBE17:
	.cfi_endproc
.LFE1580:
	.seh_endproc
	.text
	.align 2
	.globl	_ZN15FAT32EntryTableC2EO6VectorI10FAT32EntryER10ByteReaderP11FAT32ExtBPB
	.def	_ZN15FAT32EntryTableC2EO6VectorI10FAT32EntryER10ByteReaderP11FAT32ExtBPB;	.scl	2;	.type	32;	.endef
	.seh_proc	_ZN15FAT32EntryTableC2EO6VectorI10FAT32EntryER10ByteReaderP11FAT32ExtBPB
_ZN15FAT32EntryTableC2EO6VectorI10FAT32EntryER10ByteReaderP11FAT32ExtBPB:
.LFB1366:
	.file 2 "../src/filesystem/fat/FAT32EntryTable.cpp"
	.loc 2 15 0
	.cfi_startproc
.LVL4:
	pushq	%rdi
	.seh_pushreg	%rdi
	.cfi_def_cfa_offset 16
	.cfi_offset 5, -16
	pushq	%rsi
	.seh_pushreg	%rsi
	.cfi_def_cfa_offset 24
	.cfi_offset 4, -24
	pushq	%rbx
	.seh_pushreg	%rbx
	.cfi_def_cfa_offset 32
	.cfi_offset 3, -32
	subq	$32, %rsp
	.seh_stackalloc	32
	.cfi_def_cfa_offset 64
	.seh_endprologue
	movq	%rcx, %rbx
	movq	%r8, %rdi
	movq	%r9, %rsi
.LBB18:
	.loc 2 16 0
	call	_ZN6VectorI10FAT32EntryEC2EOS1_
.LVL5:
	movq	%rdi, 24(%rbx)
	movq	%rsi, 32(%rbx)
.LBE18:
	addq	$32, %rsp
	.cfi_def_cfa_offset 32
	popq	%rbx
	.cfi_restore 3
	.cfi_def_cfa_offset 24
.LVL6:
	popq	%rsi
	.cfi_restore 4
	.cfi_def_cfa_offset 16
.LVL7:
	popq	%rdi
	.cfi_restore 5
	.cfi_def_cfa_offset 8
.LVL8:
	ret
	.cfi_endproc
.LFE1366:
	.seh_endproc
	.globl	_ZN15FAT32EntryTableC1EO6VectorI10FAT32EntryER10ByteReaderP11FAT32ExtBPB
	.def	_ZN15FAT32EntryTableC1EO6VectorI10FAT32EntryER10ByteReaderP11FAT32ExtBPB;	.scl	2;	.type	32;	.endef
	.set	_ZN15FAT32EntryTableC1EO6VectorI10FAT32EntryER10ByteReaderP11FAT32ExtBPB,_ZN15FAT32EntryTableC2EO6VectorI10FAT32EntryER10ByteReaderP11FAT32ExtBPB
	.section	.text$_ZN6VectorI10FAT32EntryEC1EOS1_,"x"
	.linkonce discard
	.align 2
	.globl	_ZN6VectorI10FAT32EntryEC1EOS1_
	.def	_ZN6VectorI10FAT32EntryEC1EOS1_;	.scl	2;	.type	32;	.endef
	.seh_proc	_ZN6VectorI10FAT32EntryEC1EOS1_
_ZN6VectorI10FAT32EntryEC1EOS1_:
.LFB1581:
	.loc 1 32 0
	.cfi_startproc
.LVL9:
	.seh_endprologue
.LBB19:
	.loc 1 33 0
	movq	(%rdx), %rax
	movq	%rax, (%rcx)
	movq	8(%rdx), %rax
	movq	%rax, 8(%rcx)
	movq	16(%rdx), %rax
	movq	%rax, 16(%rcx)
	.loc 1 35 0
	movq	$0, (%rdx)
	.loc 1 36 0
	movq	$0, 8(%rdx)
	.loc 1 37 0
	movq	$0, 16(%rdx)
	ret
.LBE19:
	.cfi_endproc
.LFE1581:
	.seh_endproc
	.section	.text$_ZNKSt8functionIFv10FAT32EntrymEEclES0_m,"x"
	.linkonce discard
	.align 2
	.globl	_ZNKSt8functionIFv10FAT32EntrymEEclES0_m
	.def	_ZNKSt8functionIFv10FAT32EntrymEEclES0_m;	.scl	2;	.type	32;	.endef
	.seh_proc	_ZNKSt8functionIFv10FAT32EntrymEEclES0_m
_ZNKSt8functionIFv10FAT32EntrymEEclES0_m:
.LFB1582:
	.file 3 "/usr/lib/gcc/x86_64-pc-cygwin/6.4.0/include/c++/functional"
	.loc 3 2122 0
	.cfi_startproc
.LVL10:
	subq	$40, %rsp
	.seh_stackalloc	40
	.cfi_def_cfa_offset 48
	.seh_endprologue
	movl	%edx, 56(%rsp)
	movq	%r8, 64(%rsp)
	.loc 3 2125 0
	cmpq	$0, 16(%rcx)
	je	.L8
	.loc 3 2127 0
	leaq	56(%rsp), %rdx
	leaq	64(%rsp), %r8
.LVL11:
	call	*24(%rcx)
	nop
.LVL12:
	.loc 3 2128 0
	addq	$40, %rsp
	.cfi_remember_state
	.cfi_def_cfa_offset 8
	ret
.LVL13:
.L8:
	.cfi_restore_state
	.loc 3 2126 0
	call	_ZSt25__throw_bad_function_callv
	nop
.LVL14:
	.cfi_endproc
.LFE1582:
	.seh_endproc
	.section	.text$_ZNK6VectorI10FAT32EntryEixEm,"x"
	.linkonce discard
	.align 2
	.globl	_ZNK6VectorI10FAT32EntryEixEm
	.def	_ZNK6VectorI10FAT32EntryEixEm;	.scl	2;	.type	32;	.endef
	.seh_proc	_ZNK6VectorI10FAT32EntryEixEm
_ZNK6VectorI10FAT32EntryEixEm:
.LFB1585:
	.loc 1 63 0
	.cfi_startproc
.LVL15:
	.seh_endprologue
	.loc 1 65 0
	leaq	0(,%rdx,4), %rax
	addq	(%rcx), %rax
	.loc 1 66 0
	ret
	.cfi_endproc
.LFE1585:
	.seh_endproc
	.text
	.align 2
	.globl	_ZNK15FAT32EntryTable4nextE10FAT32Entry
	.def	_ZNK15FAT32EntryTable4nextE10FAT32Entry;	.scl	2;	.type	32;	.endef
	.seh_proc	_ZNK15FAT32EntryTable4nextE10FAT32Entry
_ZNK15FAT32EntryTable4nextE10FAT32Entry:
.LFB1369:
	.loc 2 28 0
	.cfi_startproc
.LVL16:
	pushq	%rbx
	.seh_pushreg	%rbx
	.cfi_def_cfa_offset 16
	.cfi_offset 3, -16
	subq	$32, %rsp
	.seh_stackalloc	32
	.cfi_def_cfa_offset 48
	.seh_endprologue
	movq	%rcx, %rbx
	movl	%edx, 56(%rsp)
	.loc 2 29 0
	leaq	56(%rsp), %rcx
.LVL17:
	call	_ZNK10FAT32Entry8getAsIntEv
.LVL18:
	movl	%eax, %edx
	movq	%rbx, %rcx
	call	_ZNK6VectorI10FAT32EntryEixEm
.LVL19:
	movl	(%rax), %eax
	.loc 2 30 0
	addq	$32, %rsp
	.cfi_def_cfa_offset 16
	popq	%rbx
	.cfi_restore 3
	.cfi_def_cfa_offset 8
.LVL20:
	ret
	.cfi_endproc
.LFE1369:
	.seh_endproc
	.align 2
	.globl	_ZNK15FAT32EntryTable12foreachEntryESt8functionIFv10FAT32EntrymEES1_
	.def	_ZNK15FAT32EntryTable12foreachEntryESt8functionIFv10FAT32EntrymEES1_;	.scl	2;	.type	32;	.endef
	.seh_proc	_ZNK15FAT32EntryTable12foreachEntryESt8functionIFv10FAT32EntrymEES1_
_ZNK15FAT32EntryTable12foreachEntryESt8functionIFv10FAT32EntrymEES1_:
.LFB1368:
	.loc 2 19 0
	.cfi_startproc
.LVL21:
	pushq	%rbp
	.seh_pushreg	%rbp
	.cfi_def_cfa_offset 16
	.cfi_offset 6, -16
	pushq	%rdi
	.seh_pushreg	%rdi
	.cfi_def_cfa_offset 24
	.cfi_offset 5, -24
	pushq	%rsi
	.seh_pushreg	%rsi
	.cfi_def_cfa_offset 32
	.cfi_offset 4, -32
	pushq	%rbx
	.seh_pushreg	%rbx
	.cfi_def_cfa_offset 40
	.cfi_offset 3, -40
	subq	$40, %rsp
	.seh_stackalloc	40
	.cfi_def_cfa_offset 80
	.seh_endprologue
	movq	%rcx, %rbp
	movq	%rdx, %rdi
	movl	%r8d, 96(%rsp)
.LVL22:
	.loc 2 20 0
	movl	$0, %ebx
.LVL23:
.L13:
	.loc 2 21 0
	leaq	96(%rsp), %rcx
	call	_ZNK10FAT32Entry6isLastEv
.LVL24:
	testb	%al, %al
	jne	.L11
	.loc 2 23 0
	leaq	1(%rbx), %rsi
.LVL25:
	movq	%rbx, %r8
	movl	96(%rsp), %edx
	movq	%rdi, %rcx
	call	_ZNKSt8functionIFv10FAT32EntrymEEclES0_m
.LVL26:
	.loc 2 24 0
	movl	96(%rsp), %edx
	movq	%rbp, %rcx
	call	_ZNK15FAT32EntryTable4nextE10FAT32Entry
.LVL27:
	movl	%eax, 96(%rsp)
	.loc 2 23 0
	movq	%rsi, %rbx
	.loc 2 21 0
	jmp	.L13
.LVL28:
.L11:
	.loc 2 26 0
	addq	$40, %rsp
	.cfi_def_cfa_offset 40
	popq	%rbx
	.cfi_restore 3
	.cfi_def_cfa_offset 32
.LVL29:
	popq	%rsi
	.cfi_restore 4
	.cfi_def_cfa_offset 24
	popq	%rdi
	.cfi_restore 5
	.cfi_def_cfa_offset 16
.LVL30:
	popq	%rbp
	.cfi_restore 6
	.cfi_def_cfa_offset 8
.LVL31:
	ret
	.cfi_endproc
.LFE1368:
	.seh_endproc
	.align 2
	.globl	_ZNK15FAT32EntryTable16locateFileOffsetE10FAT32Entrym
	.def	_ZNK15FAT32EntryTable16locateFileOffsetE10FAT32Entrym;	.scl	2;	.type	32;	.endef
	.seh_proc	_ZNK15FAT32EntryTable16locateFileOffsetE10FAT32Entrym
_ZNK15FAT32EntryTable16locateFileOffsetE10FAT32Entrym:
.LFB1370:
	.loc 2 32 0
	.cfi_startproc
.LVL32:
	pushq	%rdi
	.seh_pushreg	%rdi
	.cfi_def_cfa_offset 16
	.cfi_offset 5, -16
	pushq	%rsi
	.seh_pushreg	%rsi
	.cfi_def_cfa_offset 24
	.cfi_offset 4, -24
	pushq	%rbx
	.seh_pushreg	%rbx
	.cfi_def_cfa_offset 32
	.cfi_offset 3, -32
	subq	$32, %rsp
	.seh_stackalloc	32
	.cfi_def_cfa_offset 64
	.seh_endprologue
	movq	%rcx, %rdi
	movl	%edx, 72(%rsp)
	movq	%r8, %rsi
.LVL33:
.LBB20:
	.loc 2 33 0
	movq	32(%rcx), %rcx
.LVL34:
	call	_ZNK11FAT32ExtBPB18getClusterByteSizeEv
.LVL35:
	movq	%rax, %rcx
	movq	%rsi, %rax
	movl	$0, %edx
	divq	%rcx
	movq	%rax, %rsi
.LVL36:
	movl	$0, %ebx
	jmp	.L17
.LVL37:
.L18:
	movl	$0, %ecx
.L15:
	.loc 2 33 0 is_stmt 0 discriminator 7
	testb	%cl, %cl
	je	.L16
	.loc 2 34 0 is_stmt 1 discriminator 8
	movl	72(%rsp), %edx
	movq	%rdi, %rcx
	call	_ZNK15FAT32EntryTable4nextE10FAT32Entry
.LVL38:
	movl	%eax, 72(%rsp)
	.loc 2 33 0 discriminator 8
	addq	$1, %rbx
.LVL39:
.L17:
	.loc 2 33 0 is_stmt 0 discriminator 9
	cmpq	%rsi, %rbx
	je	.L18
	.loc 2 33 0 discriminator 2
	leaq	72(%rsp), %rcx
	call	_ZNK10FAT32Entry6isLastEv
.LVL40:
	testb	%al, %al
	jne	.L19
	.loc 2 33 0
	movl	$1, %ecx
	jmp	.L15
.L19:
	movl	$0, %ecx
	jmp	.L15
.L16:
.LBE20:
	.loc 2 36 0 is_stmt 1
	movl	72(%rsp), %eax
	addq	$32, %rsp
	.cfi_def_cfa_offset 32
	popq	%rbx
	.cfi_restore 3
	.cfi_def_cfa_offset 24
.LVL41:
	popq	%rsi
	.cfi_restore 4
	.cfi_def_cfa_offset 16
.LVL42:
	popq	%rdi
	.cfi_restore 5
	.cfi_def_cfa_offset 8
.LVL43:
	ret
	.cfi_endproc
.LFE1370:
	.seh_endproc
	.section	.text$_ZN6VectorI10FAT32EntryE7getDataEv,"x"
	.linkonce discard
	.align 2
	.globl	_ZN6VectorI10FAT32EntryE7getDataEv
	.def	_ZN6VectorI10FAT32EntryE7getDataEv;	.scl	2;	.type	32;	.endef
	.seh_proc	_ZN6VectorI10FAT32EntryE7getDataEv
_ZN6VectorI10FAT32EntryE7getDataEv:
.LFB1667:
	.loc 1 91 0
	.cfi_startproc
.LVL44:
	.seh_endprologue
	.loc 1 93 0
	movq	(%rcx), %rax
	.loc 1 94 0
	ret
	.cfi_endproc
.LFE1667:
	.seh_endproc
	.section	.text$_ZN13MemoryManager10allocateAsIP10FAT32EntryEET_m,"x"
	.linkonce discard
	.align 2
	.globl	_ZN13MemoryManager10allocateAsIP10FAT32EntryEET_m
	.def	_ZN13MemoryManager10allocateAsIP10FAT32EntryEET_m;	.scl	2;	.type	32;	.endef
	.seh_proc	_ZN13MemoryManager10allocateAsIP10FAT32EntryEET_m
_ZN13MemoryManager10allocateAsIP10FAT32EntryEET_m:
.LFB1708:
	.file 4 "D:\\Pool\\eclipse-workspace_aarch64\\chap003\\include/templates_implementation/MemoryManager.h"
	.loc 4 15 0
	.cfi_startproc
.LVL45:
	subq	$40, %rsp
	.seh_stackalloc	40
	.cfi_def_cfa_offset 48
	.seh_endprologue
	.loc 4 17 0
	call	_ZN13MemoryManager8allocateEm
.LVL46:
	.loc 4 18 0
	addq	$40, %rsp
	.cfi_def_cfa_offset 8
	ret
	.cfi_endproc
.LFE1708:
	.seh_endproc
	.section	.text$_ZN6VectorI10FAT32EntryE14resizeCapacityEm,"x"
	.linkonce discard
	.align 2
	.globl	_ZN6VectorI10FAT32EntryE14resizeCapacityEm
	.def	_ZN6VectorI10FAT32EntryE14resizeCapacityEm;	.scl	2;	.type	32;	.endef
	.seh_proc	_ZN6VectorI10FAT32EntryE14resizeCapacityEm
_ZN6VectorI10FAT32EntryE14resizeCapacityEm:
.LFB1696:
	.loc 1 167 0
	.cfi_startproc
.LVL47:
	pushq	%rdi
	.seh_pushreg	%rdi
	.cfi_def_cfa_offset 16
	.cfi_offset 5, -16
	pushq	%rsi
	.seh_pushreg	%rsi
	.cfi_def_cfa_offset 24
	.cfi_offset 4, -24
	pushq	%rbx
	.seh_pushreg	%rbx
	.cfi_def_cfa_offset 32
	.cfi_offset 3, -32
	subq	$32, %rsp
	.seh_stackalloc	32
	.cfi_def_cfa_offset 64
	.seh_endprologue
	movq	%rcx, %rbx
	movq	%rdx, %rdi
	.loc 1 169 0
	cmpq	%rdx, 8(%rcx)
	je	.L26
	.loc 1 171 0
	leaq	0(,%rdx,4), %rsi
	movq	(%rcx), %rdx
.LVL48:
	movq	$-1, %r9
	movq	%rsi, %r8
	movq	.refptr.mman(%rip), %rcx
.LVL49:
	call	_ZN13MemoryManager10reallocateEPvmm
.LVL50:
	.loc 1 172 0
	movq	%rsi, %rdx
	movq	.refptr.mman(%rip), %rcx
	call	_ZN13MemoryManager10allocateAsIP10FAT32EntryEET_m
.LVL51:
	movq	%rax, %rsi
.LVL52:
	.loc 1 173 0
	testq	%rax, %rax
	je	.L27
	movl	$0, %eax
.LVL53:
.L25:
.LBB21:
	.loc 1 176 0 discriminator 3
	cmpq	16(%rbx), %rax
	je	.L24
	.loc 1 177 0 discriminator 2
	movq	(%rbx), %rdx
	movl	(%rdx,%rax,4), %edx
	movl	%edx, (%rsi,%rax,4)
	.loc 1 176 0 discriminator 2
	addq	$1, %rax
.LVL54:
	jmp	.L25
.L24:
.LBE21:
	.loc 1 178 0
	movq	(%rbx), %rdx
	movq	.refptr.mman(%rip), %rcx
	call	_ZN13MemoryManager10deallocateEPv
.LVL55:
	.loc 1 181 0
	movq	%rsi, (%rbx)
	.loc 1 182 0
	movq	%rdi, 8(%rbx)
	.loc 1 183 0
	movl	$1, %eax
.LVL56:
.L22:
	.loc 1 184 0
	addq	$32, %rsp
	.cfi_remember_state
	.cfi_def_cfa_offset 32
	popq	%rbx
	.cfi_restore 3
	.cfi_def_cfa_offset 24
.LVL57:
	popq	%rsi
	.cfi_restore 4
	.cfi_def_cfa_offset 16
	popq	%rdi
	.cfi_restore 5
	.cfi_def_cfa_offset 8
.LVL58:
	ret
.LVL59:
.L26:
	.cfi_restore_state
	.loc 1 170 0
	movl	$1, %eax
	jmp	.L22
.LVL60:
.L27:
	.loc 1 174 0
	movl	$0, %eax
.LVL61:
	jmp	.L22
	.cfi_endproc
.LFE1696:
	.seh_endproc
	.section	.text$_ZN6VectorI10FAT32EntryEC1Em,"x"
	.linkonce discard
	.align 2
	.globl	_ZN6VectorI10FAT32EntryEC1Em
	.def	_ZN6VectorI10FAT32EntryEC1Em;	.scl	2;	.type	32;	.endef
	.seh_proc	_ZN6VectorI10FAT32EntryEC1Em
_ZN6VectorI10FAT32EntryEC1Em:
.LFB1666:
	.loc 1 15 0
	.cfi_startproc
.LVL62:
	pushq	%rsi
	.seh_pushreg	%rsi
	.cfi_def_cfa_offset 16
	.cfi_offset 4, -16
	pushq	%rbx
	.seh_pushreg	%rbx
	.cfi_def_cfa_offset 24
	.cfi_offset 3, -24
	subq	$40, %rsp
	.seh_stackalloc	40
	.cfi_def_cfa_offset 64
	.seh_endprologue
	movq	%rcx, %rbx
	movq	%rdx, %rsi
.LBB22:
	.loc 1 16 0
	movq	$0, (%rcx)
	movq	$0, 8(%rcx)
	movq	$0, 16(%rcx)
	.loc 1 18 0
	cmpq	$8, %rdx
	movl	$8, %edx
.LVL63:
	cmovnb	%rsi, %rdx
	call	_ZN6VectorI10FAT32EntryE14resizeCapacityEm
.LVL64:
	testb	%al, %al
	je	.L28
	.loc 1 20 0
	movq	%rsi, 16(%rbx)
.L28:
.LBE22:
	.loc 1 22 0
	addq	$40, %rsp
	.cfi_def_cfa_offset 24
	popq	%rbx
	.cfi_restore 3
	.cfi_def_cfa_offset 16
.LVL65:
	popq	%rsi
	.cfi_restore 4
	.cfi_def_cfa_offset 8
.LVL66:
	ret
	.cfi_endproc
.LFE1666:
	.seh_endproc
	.section	.text$_ZN10ByteReader4readI10FAT32EntryEE6VectorIT_Emm,"x"
	.linkonce discard
	.align 2
	.globl	_ZN10ByteReader4readI10FAT32EntryEE6VectorIT_Emm
	.def	_ZN10ByteReader4readI10FAT32EntryEE6VectorIT_Emm;	.scl	2;	.type	32;	.endef
	.seh_proc	_ZN10ByteReader4readI10FAT32EntryEE6VectorIT_Emm
_ZN10ByteReader4readI10FAT32EntryEE6VectorIT_Emm:
.LFB1575:
	.file 5 "D:\\Pool\\eclipse-workspace_aarch64\\chap003\\include/templates_implementation/io/ByteReader.h"
	.loc 5 23 0
	.cfi_startproc
.LVL67:
	pushq	%r14
	.seh_pushreg	%r14
	.cfi_def_cfa_offset 16
	.cfi_offset 14, -16
	pushq	%r13
	.seh_pushreg	%r13
	.cfi_def_cfa_offset 24
	.cfi_offset 13, -24
	pushq	%r12
	.seh_pushreg	%r12
	.cfi_def_cfa_offset 32
	.cfi_offset 12, -32
	pushq	%rbp
	.seh_pushreg	%rbp
	.cfi_def_cfa_offset 40
	.cfi_offset 6, -40
	pushq	%rdi
	.seh_pushreg	%rdi
	.cfi_def_cfa_offset 48
	.cfi_offset 5, -48
	pushq	%rsi
	.seh_pushreg	%rsi
	.cfi_def_cfa_offset 56
	.cfi_offset 4, -56
	pushq	%rbx
	.seh_pushreg	%rbx
	.cfi_def_cfa_offset 64
	.cfi_offset 3, -64
	subq	$80, %rsp
	.seh_stackalloc	80
	.cfi_def_cfa_offset 144
	.seh_endprologue
	movq	%rcx, %r13
	movq	%rdx, %rdi
	movq	%r8, %rsi
	movq	%r9, %rbx
	.loc 5 25 0
	leaq	48(%rsp), %rbp
	movq	%r9, %rdx
.LVL68:
	movq	%rbp, %rcx
.LVL69:
	call	_ZN6VectorI10FAT32EntryEC1Em
.LVL70:
	.loc 5 26 0
	movq	%rbp, %rcx
	call	_ZN6VectorI10FAT32EntryE7getDataEv
.LVL71:
	movq	%rax, %rbp
.LVL72:
	.loc 5 27 0
	movq	%rax, 32(%rsp)
	movl	$0, %r9d
	movl	$1, %r8d
	movq	%rsi, %rdx
	movq	%rdi, %rcx
	call	_ZN10ByteReader26adjustOneSecForReadOrWriteEmbPKcPc
.LVL73:
	movq	%rax, %r12
.LVL74:
	.loc 5 28 0
	salq	$2, %rbx
.LVL75:
	leaq	(%rsi,%rbx), %r14
.LVL76:
	.loc 5 29 0
	subq	%rax, %rbx
	movq	%rdi, %rcx
	call	_ZNK10ByteReader13getSectorSizeEv
.LVL77:
	movq	%rax, %rcx
	movq	%r14, %rax
	movl	$0, %edx
	divq	%rcx
	subq	%rdx, %rbx
.LVL78:
	.loc 5 30 0
	leaq	(%r12,%rbx), %rax
	addq	%rbp, %rax
	movq	%rax, 32(%rsp)
	movl	$0, %r9d
	movl	$0, %r8d
	movq	%r14, %rdx
	movq	%rdi, %rcx
	call	_ZN10ByteReader26adjustOneSecForReadOrWriteEmbPKcPc
.LVL79:
	.loc 5 33 0
	testq	%rbx, %rbx
	jne	.L32
.LVL80:
.L31:
	.loc 5 36 0
	leaq	48(%rsp), %rbx
	movq	%rbx, %rdx
	movq	%r13, %rcx
	call	_ZN6VectorI10FAT32EntryEC1EOS1_
.LVL81:
	.loc 5 25 0
	movq	%rbx, %rcx
	call	_ZN6VectorI10FAT32EntryED1Ev
.LVL82:
	.loc 5 37 0
	movq	%r13, %rax
	addq	$80, %rsp
	.cfi_remember_state
	.cfi_def_cfa_offset 64
	popq	%rbx
	.cfi_restore 3
	.cfi_def_cfa_offset 56
	popq	%rsi
	.cfi_restore 4
	.cfi_def_cfa_offset 48
	popq	%rdi
	.cfi_restore 5
	.cfi_def_cfa_offset 40
.LVL83:
	popq	%rbp
	.cfi_restore 6
	.cfi_def_cfa_offset 32
	popq	%r12
	.cfi_restore 12
	.cfi_def_cfa_offset 24
.LVL84:
	popq	%r13
	.cfi_restore 13
	.cfi_def_cfa_offset 16
.LVL85:
	popq	%r14
	.cfi_restore 14
	.cfi_def_cfa_offset 8
.LVL86:
	ret
.LVL87:
.L32:
	.cfi_restore_state
	.loc 5 34 0
	movq	%rdi, %rcx
	call	_ZNK10ByteReader13getSectorSizeEv
.LVL88:
	movq	%rax, %rcx
	movq	%rbx, %rax
	movl	$0, %edx
	divq	%rcx
	movq	%rax, %rbx
.LVL89:
	addq	%r12, %rbp
.LVL90:
	addq	%r12, %rsi
.LVL91:
	movq	%rdi, %rcx
	call	_ZNK10ByteReader13getSectorSizeEv
.LVL92:
	movq	%rax, %rcx
	movq	%rsi, %rax
	movl	$0, %edx
	divq	%rcx
	movq	%rbx, %r9
	movq	%rbp, %r8
	movq	%rax, %rdx
	movq	(%rdi), %rcx
	call	_ZN12SectorReader4readEmPvm
.LVL93:
	jmp	.L31
	.cfi_endproc
.LFE1575:
	.seh_endproc
	.text
	.align 2
	.globl	_ZN15FAT32EntryTableC2ER10ByteReaderP11FAT32ExtBPB
	.def	_ZN15FAT32EntryTableC2ER10ByteReaderP11FAT32ExtBPB;	.scl	2;	.type	32;	.endef
	.seh_proc	_ZN15FAT32EntryTableC2ER10ByteReaderP11FAT32ExtBPB
_ZN15FAT32EntryTableC2ER10ByteReaderP11FAT32ExtBPB:
.LFB1362:
	.loc 2 10 0
	.cfi_startproc
.LVL94:
	pushq	%rbp
	.seh_pushreg	%rbp
	.cfi_def_cfa_offset 16
	.cfi_offset 6, -16
	pushq	%rdi
	.seh_pushreg	%rdi
	.cfi_def_cfa_offset 24
	.cfi_offset 5, -24
	pushq	%rsi
	.seh_pushreg	%rsi
	.cfi_def_cfa_offset 32
	.cfi_offset 4, -32
	pushq	%rbx
	.seh_pushreg	%rbx
	.cfi_def_cfa_offset 40
	.cfi_offset 3, -40
	subq	$72, %rsp
	.seh_stackalloc	72
	.cfi_def_cfa_offset 112
	.seh_endprologue
	movq	%rcx, %rsi
	movq	%rdx, %rbp
	movq	%r8, %rbx
.LBB23:
	.loc 2 11 0
	movq	%r8, %rcx
.LVL95:
	call	_ZNK11FAT32ExtBPB14uni_getFatSizeEv
.LVL96:
	movzwl	11(%rbx), %edx
	movzwl	%dx, %r9d
	imulq	%rax, %r9
	movzwl	14(%rbx), %ecx
	movzwl	%dx, %r8d
	imull	%ecx, %r8d
	leaq	32(%rsp), %rdi
	shrq	$2, %r9
	movslq	%r8d, %r8
	movq	%rbp, %rdx
	movq	%rdi, %rcx
	call	_ZN10ByteReader4readI10FAT32EntryEE6VectorIT_Emm
.LVL97:
	movq	%rdi, %rdx
	movq	%rsi, %rcx
	call	_ZN6VectorI10FAT32EntryEC2EOS1_
.LVL98:
	movq	%rdi, %rcx
	call	_ZN6VectorI10FAT32EntryED1Ev
.LVL99:
	movq	%rbp, 24(%rsi)
	movq	%rbx, 32(%rsi)
.LBE23:
	.loc 2 13 0
	addq	$72, %rsp
	.cfi_def_cfa_offset 40
	popq	%rbx
	.cfi_restore 3
	.cfi_def_cfa_offset 32
.LVL100:
	popq	%rsi
	.cfi_restore 4
	.cfi_def_cfa_offset 24
.LVL101:
	popq	%rdi
	.cfi_restore 5
	.cfi_def_cfa_offset 16
	popq	%rbp
	.cfi_restore 6
	.cfi_def_cfa_offset 8
.LVL102:
	ret
	.cfi_endproc
.LFE1362:
	.seh_endproc
	.globl	_ZN15FAT32EntryTableC1ER10ByteReaderP11FAT32ExtBPB
	.def	_ZN15FAT32EntryTableC1ER10ByteReaderP11FAT32ExtBPB;	.scl	2;	.type	32;	.endef
	.set	_ZN15FAT32EntryTableC1ER10ByteReaderP11FAT32ExtBPB,_ZN15FAT32EntryTableC2ER10ByteReaderP11FAT32ExtBPB
.Letext0:
	.file 6 "/usr/lib/gcc/x86_64-pc-cygwin/6.4.0/include/stddef.h"
	.file 7 "/usr/lib/gcc/x86_64-pc-cygwin/6.4.0/include/c++/cstddef"
	.file 8 "/usr/lib/gcc/x86_64-pc-cygwin/6.4.0/include/c++/cstdint"
	.file 9 "<built-in>"
	.file 10 "/usr/lib/gcc/x86_64-pc-cygwin/6.4.0/include/c++/bits/exception_ptr.h"
	.file 11 "/usr/lib/gcc/x86_64-pc-cygwin/6.4.0/include/c++/x86_64-pc-cygwin/bits/c++config.h"
	.file 12 "/usr/lib/gcc/x86_64-pc-cygwin/6.4.0/include/c++/new"
	.file 13 "/usr/lib/gcc/x86_64-pc-cygwin/6.4.0/include/c++/bits/stl_pair.h"
	.file 14 "/usr/lib/gcc/x86_64-pc-cygwin/6.4.0/include/c++/type_traits"
	.file 15 "/usr/lib/gcc/x86_64-pc-cygwin/6.4.0/include/c++/debug/debug.h"
	.file 16 "/usr/lib/gcc/x86_64-pc-cygwin/6.4.0/include/c++/cwchar"
	.file 17 "/usr/lib/gcc/x86_64-pc-cygwin/6.4.0/include/c++/bits/char_traits.h"
	.file 18 "/usr/lib/gcc/x86_64-pc-cygwin/6.4.0/include/c++/clocale"
	.file 19 "/usr/lib/gcc/x86_64-pc-cygwin/6.4.0/include/c++/cstdlib"
	.file 20 "/usr/lib/gcc/x86_64-pc-cygwin/6.4.0/include/c++/cstdio"
	.file 21 "/usr/lib/gcc/x86_64-pc-cygwin/6.4.0/include/c++/bits/basic_string.h"
	.file 22 "/usr/lib/gcc/x86_64-pc-cygwin/6.4.0/include/c++/bits/basic_string.tcc"
	.file 23 "/usr/lib/gcc/x86_64-pc-cygwin/6.4.0/include/c++/bits/allocator.h"
	.file 24 "/usr/lib/gcc/x86_64-pc-cygwin/6.4.0/include/c++/initializer_list"
	.file 25 "/usr/lib/gcc/x86_64-pc-cygwin/6.4.0/include/c++/bits/uses_allocator.h"
	.file 26 "/usr/lib/gcc/x86_64-pc-cygwin/6.4.0/include/c++/tuple"
	.file 27 "/usr/lib/gcc/x86_64-pc-cygwin/6.4.0/include/c++/cstring"
	.file 28 "/usr/lib/gcc/x86_64-pc-cygwin/6.4.0/include/c++/bits/stl_function.h"
	.file 29 "/usr/lib/gcc/x86_64-pc-cygwin/6.4.0/include/c++/bits/stl_iterator_base_types.h"
	.file 30 "/usr/lib/gcc/x86_64-pc-cygwin/6.4.0/include/c++/bits/move.h"
	.file 31 "/usr/include/machine/_default_types.h"
	.file 32 "/usr/include/sys/_stdint.h"
	.file 33 "/usr/include/stdint.h"
	.file 34 "D:\\Pool\\eclipse-workspace_aarch64\\chap003\\include/def.h"
	.file 35 "D:\\Pool\\eclipse-workspace_aarch64\\chap003\\include/printk.h"
	.file 36 "D:\\Pool\\eclipse-workspace_aarch64\\chap003\\include/io/SectorReader.h"
	.file 37 "D:\\Pool\\eclipse-workspace_aarch64\\chap003\\include/generic_util.h"
	.file 38 "D:\\Pool\\eclipse-workspace_aarch64\\chap003\\include/MemoryChunk.h"
	.file 39 "D:\\Pool\\eclipse-workspace_aarch64\\chap003\\include/MemoryManager.h"
	.file 40 "/usr/lib/gcc/x86_64-pc-cygwin/6.4.0/include/c++/exception"
	.file 41 "/usr/lib/gcc/x86_64-pc-cygwin/6.4.0/include/c++/bits/predefined_ops.h"
	.file 42 "/usr/lib/gcc/x86_64-pc-cygwin/6.4.0/include/c++/ext/new_allocator.h"
	.file 43 "/usr/lib/gcc/x86_64-pc-cygwin/6.4.0/include/c++/ext/numeric_traits.h"
	.file 44 "/usr/lib/gcc/x86_64-pc-cygwin/6.4.0/include/c++/bits/stl_iterator.h"
	.file 45 "/usr/include/sys/lock.h"
	.file 46 "/usr/include/sys/_types.h"
	.file 47 "/usr/include/sys/reent.h"
	.file 48 "/usr/lib/gcc/x86_64-pc-cygwin/6.4.0/include/stdarg.h"
	.file 49 "/usr/include/wchar.h"
	.file 50 "/usr/include/time.h"
	.file 51 "/usr/include/locale.h"
	.file 52 "/usr/include/ctype.h"
	.file 53 "/usr/lib/gcc/x86_64-pc-cygwin/6.4.0/include/c++/x86_64-pc-cygwin/bits/atomic_word.h"
	.file 54 "/usr/include/stdlib.h"
	.file 55 "/usr/include/stdio.h"
	.file 56 "/usr/include/sys/errno.h"
	.file 57 "D:\\Pool\\eclipse-workspace_aarch64\\chap003\\include/filesystem/fat/FAT32Entry.h"
	.file 58 "D:\\Pool\\eclipse-workspace_aarch64\\chap003\\include/filesystem/fat/FAT_BPB.h"
	.file 59 "D:\\Pool\\eclipse-workspace_aarch64\\chap003\\include/filesystem/fat/FAT32ExtBPB.h"
	.file 60 "D:\\Pool\\eclipse-workspace_aarch64\\chap003\\include/io/ByteReader.h"
	.file 61 "/usr/include/string.h"
	.file 62 "D:\\Pool\\eclipse-workspace_aarch64\\chap003\\include/data_structures/Vector.h"
	.file 63 "D:\\Pool\\eclipse-workspace_aarch64\\chap003\\include/filesystem/fat/FAT32EntryTable.h"
	.file 64 "/usr/lib/gcc/x86_64-pc-cygwin/6.4.0/include/c++/bits/functexcept.h"
	.section	.rdata$.refptr.mman, "dr"
	.globl	.refptr.mman
	.linkonce	discard
.refptr.mman:
	.quad	mman
