	.file	"printk.cpp"
	.text
.Ltext0:
	.cfi_sections	.debug_frame
	.align 2
	.globl	_ZN6Output5printEPKcm
	.def	_ZN6Output5printEPKcm;	.scl	2;	.type	32;	.endef
	.seh_proc	_ZN6Output5printEPKcm
_ZN6Output5printEPKcm:
.LFB48:
	.file 1 "../src/printk.cpp"
	.loc 1 16 0
	.cfi_startproc
.LVL0:
	subq	$40, %rsp
	.seh_stackalloc	40
	.cfi_def_cfa_offset 48
	.seh_endprologue
	movq	%rdx, %rcx
.LVL1:
	.loc 1 17 0
	movq	%r8, %rdx
.LVL2:
	call	_Z6printkPKcm
.LVL3:
	.loc 1 18 0
	addq	$40, %rsp
	.cfi_def_cfa_offset 8
	ret
	.cfi_endproc
.LFE48:
	.seh_endproc
	.align 2
	.globl	_ZN6Output5printEPKc
	.def	_ZN6Output5printEPKc;	.scl	2;	.type	32;	.endef
	.seh_proc	_ZN6Output5printEPKc
_ZN6Output5printEPKc:
.LFB49:
	.loc 1 20 0
	.cfi_startproc
.LVL4:
	subq	$40, %rsp
	.seh_stackalloc	40
	.cfi_def_cfa_offset 48
	.seh_endprologue
	.loc 1 21 0
	movq	%rdx, %rcx
.LVL5:
	call	_Z6printkPKc
.LVL6:
	.loc 1 22 0
	addq	$40, %rsp
	.cfi_def_cfa_offset 8
	ret
	.cfi_endproc
.LFE49:
	.seh_endproc
	.align 2
	.globl	_ZN6OutputlsEc
	.def	_ZN6OutputlsEc;	.scl	2;	.type	32;	.endef
	.seh_proc	_ZN6OutputlsEc
_ZN6OutputlsEc:
.LFB50:
	.loc 1 24 0
	.cfi_startproc
.LVL7:
	pushq	%rbx
	.seh_pushreg	%rbx
	.cfi_def_cfa_offset 16
	.cfi_offset 3, -16
	subq	$32, %rsp
	.seh_stackalloc	32
	.cfi_def_cfa_offset 48
	.seh_endprologue
	movq	%rcx, %rbx
	.loc 1 25 0
	movsbl	%dl, %ecx
.LVL8:
	call	_Z6printkc
.LVL9:
	.loc 1 27 0
	movq	%rbx, %rax
	addq	$32, %rsp
	.cfi_def_cfa_offset 16
	popq	%rbx
	.cfi_restore 3
	.cfi_def_cfa_offset 8
.LVL10:
	ret
	.cfi_endproc
.LFE50:
	.seh_endproc
	.align 2
	.globl	_ZN6OutputlsEPKc
	.def	_ZN6OutputlsEPKc;	.scl	2;	.type	32;	.endef
	.seh_proc	_ZN6OutputlsEPKc
_ZN6OutputlsEPKc:
.LFB57:
	.loc 1 53 0
	.cfi_startproc
.LVL11:
	pushq	%rbx
	.seh_pushreg	%rbx
	.cfi_def_cfa_offset 16
	.cfi_offset 3, -16
	subq	$32, %rsp
	.seh_stackalloc	32
	.cfi_def_cfa_offset 48
	.seh_endprologue
	movq	%rcx, %rbx
	.loc 1 54 0
	movq	%rdx, %rcx
.LVL12:
	call	_Z6printkPKc
.LVL13:
	.loc 1 56 0
	movq	%rbx, %rax
	addq	$32, %rsp
	.cfi_def_cfa_offset 16
	popq	%rbx
	.cfi_restore 3
	.cfi_def_cfa_offset 8
.LVL14:
	ret
	.cfi_endproc
.LFE57:
	.seh_endproc
	.section	.text$_ZN16IntegerFormatterILi10EEC1Em,"x"
	.linkonce discard
	.align 2
	.globl	_ZN16IntegerFormatterILi10EEC1Em
	.def	_ZN16IntegerFormatterILi10EEC1Em;	.scl	2;	.type	32;	.endef
	.seh_proc	_ZN16IntegerFormatterILi10EEC1Em
_ZN16IntegerFormatterILi10EEC1Em:
.LFB63:
	.file 2 "D:\\Pool\\eclipse-workspace_aarch64\\chap003\\include/templates_implementation/IntegerFormatter.h"
	.loc 2 16 0
	.cfi_startproc
.LVL15:
	.seh_endprologue
.LBB2:
	.loc 2 17 0
	movq	%rdx, (%rcx)
	ret
.LBE2:
	.cfi_endproc
.LFE63:
	.seh_endproc
	.section	.text$_ZNK16IntegerFormatterILi10EE6formatEv,"x"
	.linkonce discard
	.align 2
	.globl	_ZNK16IntegerFormatterILi10EE6formatEv
	.def	_ZNK16IntegerFormatterILi10EE6formatEv;	.scl	2;	.type	32;	.endef
	.seh_proc	_ZNK16IntegerFormatterILi10EE6formatEv
_ZNK16IntegerFormatterILi10EE6formatEv:
.LFB64:
	.loc 2 24 0
	.cfi_startproc
.LVL16:
	subq	$40, %rsp
	.seh_stackalloc	40
	.cfi_def_cfa_offset 48
	.seh_endprologue
	.loc 2 26 0
	movq	(%rcx), %rcx
.LVL17:
	movl	$65, %r9d
	movq	.refptr.koutBuf(%rip), %r8
	movl	$10, %edx
	call	_Z4itosmjPcm
.LVL18:
	.loc 2 28 0
	movq	.refptr.koutBuf(%rip), %rax
	addq	$40, %rsp
	.cfi_def_cfa_offset 8
	ret
	.cfi_endproc
.LFE64:
	.seh_endproc
	.text
	.align 2
	.globl	_ZN6OutputlsEm
	.def	_ZN6OutputlsEm;	.scl	2;	.type	32;	.endef
	.seh_proc	_ZN6OutputlsEm
_ZN6OutputlsEm:
.LFB58:
	.loc 1 58 0
	.cfi_startproc
.LVL19:
	pushq	%rsi
	.seh_pushreg	%rsi
	.cfi_def_cfa_offset 16
	.cfi_offset 4, -16
	pushq	%rbx
	.seh_pushreg	%rbx
	.cfi_def_cfa_offset 24
	.cfi_offset 3, -24
	subq	$56, %rsp
	.seh_stackalloc	56
	.cfi_def_cfa_offset 80
	.seh_endprologue
	movq	%rcx, %rsi
	.loc 1 59 0
	leaq	40(%rsp), %rbx
	movq	%rbx, %rcx
.LVL20:
	call	_ZN16IntegerFormatterILi10EEC1Em
.LVL21:
	movq	%rbx, %rcx
	call	_ZNK16IntegerFormatterILi10EE6formatEv
.LVL22:
	movq	%rax, %rcx
	call	_Z6printkPKc
.LVL23:
	.loc 1 61 0
	movq	%rsi, %rax
	addq	$56, %rsp
	.cfi_def_cfa_offset 24
	popq	%rbx
	.cfi_restore 3
	.cfi_def_cfa_offset 16
	popq	%rsi
	.cfi_restore 4
	.cfi_def_cfa_offset 8
.LVL24:
	ret
	.cfi_endproc
.LFE58:
	.seh_endproc
	.align 2
	.globl	_ZN6OutputlsEh
	.def	_ZN6OutputlsEh;	.scl	2;	.type	32;	.endef
	.seh_proc	_ZN6OutputlsEh
_ZN6OutputlsEh:
.LFB51:
	.loc 1 29 0
	.cfi_startproc
.LVL25:
	subq	$40, %rsp
	.seh_stackalloc	40
	.cfi_def_cfa_offset 48
	.seh_endprologue
	.loc 1 30 0
	movzbl	%dl, %edx
	call	_ZN6OutputlsEm
.LVL26:
	.loc 1 31 0
	addq	$40, %rsp
	.cfi_def_cfa_offset 8
	ret
	.cfi_endproc
.LFE51:
	.seh_endproc
	.align 2
	.globl	_ZN6OutputlsEt
	.def	_ZN6OutputlsEt;	.scl	2;	.type	32;	.endef
	.seh_proc	_ZN6OutputlsEt
_ZN6OutputlsEt:
.LFB52:
	.loc 1 33 0
	.cfi_startproc
.LVL27:
	subq	$40, %rsp
	.seh_stackalloc	40
	.cfi_def_cfa_offset 48
	.seh_endprologue
	.loc 1 34 0
	movzwl	%dx, %edx
	call	_ZN6OutputlsEm
.LVL28:
	.loc 1 35 0
	addq	$40, %rsp
	.cfi_def_cfa_offset 8
	ret
	.cfi_endproc
.LFE52:
	.seh_endproc
	.align 2
	.globl	_ZN6OutputlsEj
	.def	_ZN6OutputlsEj;	.scl	2;	.type	32;	.endef
	.seh_proc	_ZN6OutputlsEj
_ZN6OutputlsEj:
.LFB53:
	.loc 1 37 0
	.cfi_startproc
.LVL29:
	subq	$40, %rsp
	.seh_stackalloc	40
	.cfi_def_cfa_offset 48
	.seh_endprologue
	.loc 1 38 0
	movl	%edx, %edx
	call	_ZN6OutputlsEm
.LVL30:
	.loc 1 39 0
	addq	$40, %rsp
	.cfi_def_cfa_offset 8
	ret
	.cfi_endproc
.LFE53:
	.seh_endproc
	.align 2
	.globl	_ZN6OutputlsEs
	.def	_ZN6OutputlsEs;	.scl	2;	.type	32;	.endef
	.seh_proc	_ZN6OutputlsEs
_ZN6OutputlsEs:
.LFB54:
	.loc 1 41 0
	.cfi_startproc
.LVL31:
	subq	$40, %rsp
	.seh_stackalloc	40
	.cfi_def_cfa_offset 48
	.seh_endprologue
	.loc 1 42 0
	movswq	%dx, %rdx
	call	_ZN6OutputlsEm
.LVL32:
	.loc 1 43 0
	addq	$40, %rsp
	.cfi_def_cfa_offset 8
	ret
	.cfi_endproc
.LFE54:
	.seh_endproc
	.align 2
	.globl	_ZN6OutputlsEi
	.def	_ZN6OutputlsEi;	.scl	2;	.type	32;	.endef
	.seh_proc	_ZN6OutputlsEi
_ZN6OutputlsEi:
.LFB55:
	.loc 1 45 0
	.cfi_startproc
.LVL33:
	subq	$40, %rsp
	.seh_stackalloc	40
	.cfi_def_cfa_offset 48
	.seh_endprologue
	.loc 1 46 0
	movslq	%edx, %rdx
	call	_ZN6OutputlsEm
.LVL34:
	.loc 1 47 0
	addq	$40, %rsp
	.cfi_def_cfa_offset 8
	ret
	.cfi_endproc
.LFE55:
	.seh_endproc
	.align 2
	.globl	_ZN6OutputlsEd
	.def	_ZN6OutputlsEd;	.scl	2;	.type	32;	.endef
	.seh_proc	_ZN6OutputlsEd
_ZN6OutputlsEd:
.LFB56:
	.loc 1 49 0
	.cfi_startproc
.LVL35:
	subq	$40, %rsp
	.seh_stackalloc	40
	.cfi_def_cfa_offset 48
	.seh_endprologue
	.loc 1 50 0
	ucomisd	.LC0(%rip), %xmm1
	jnb	.L14
	cvttsd2siq	%xmm1, %rdx
.LVL36:
.L15:
	call	_ZN6OutputlsEm
.LVL37:
	.loc 1 51 0
	addq	$40, %rsp
	.cfi_remember_state
	.cfi_def_cfa_offset 8
	ret
.LVL38:
.L14:
	.cfi_restore_state
	.loc 1 50 0
	subsd	.LC0(%rip), %xmm1
.LVL39:
	cvttsd2siq	%xmm1, %rdx
	movabsq	$-9223372036854775808, %rax
	xorq	%rax, %rdx
	jmp	.L15
	.cfi_endproc
.LFE56:
	.seh_endproc
	.section	.text$_ZN16IntegerFormatterILi16EEC1EPv,"x"
	.linkonce discard
	.align 2
	.globl	_ZN16IntegerFormatterILi16EEC1EPv
	.def	_ZN16IntegerFormatterILi16EEC1EPv;	.scl	2;	.type	32;	.endef
	.seh_proc	_ZN16IntegerFormatterILi16EEC1EPv
_ZN16IntegerFormatterILi16EEC1EPv:
.LFB67:
	.loc 2 20 0
	.cfi_startproc
.LVL40:
	.seh_endprologue
.LBB3:
	.loc 2 21 0
	movq	%rdx, (%rcx)
	ret
.LBE3:
	.cfi_endproc
.LFE67:
	.seh_endproc
	.section	.text$_ZNK16IntegerFormatterILi16EE6formatEv,"x"
	.linkonce discard
	.align 2
	.globl	_ZNK16IntegerFormatterILi16EE6formatEv
	.def	_ZNK16IntegerFormatterILi16EE6formatEv;	.scl	2;	.type	32;	.endef
	.seh_proc	_ZNK16IntegerFormatterILi16EE6formatEv
_ZNK16IntegerFormatterILi16EE6formatEv:
.LFB68:
	.loc 2 24 0
	.cfi_startproc
.LVL41:
	subq	$40, %rsp
	.seh_stackalloc	40
	.cfi_def_cfa_offset 48
	.seh_endprologue
	.loc 2 26 0
	movq	(%rcx), %rcx
.LVL42:
	movl	$65, %r9d
	movq	.refptr.koutBuf(%rip), %r8
	movl	$16, %edx
	call	_Z4itosmjPcm
.LVL43:
	.loc 2 28 0
	movq	.refptr.koutBuf(%rip), %rax
	addq	$40, %rsp
	.cfi_def_cfa_offset 8
	ret
	.cfi_endproc
.LFE68:
	.seh_endproc
	.text
	.align 2
	.globl	_ZN6OutputlsEPv
	.def	_ZN6OutputlsEPv;	.scl	2;	.type	32;	.endef
	.seh_proc	_ZN6OutputlsEPv
_ZN6OutputlsEPv:
.LFB59:
	.loc 1 63 0
	.cfi_startproc
.LVL44:
	pushq	%rsi
	.seh_pushreg	%rsi
	.cfi_def_cfa_offset 16
	.cfi_offset 4, -16
	pushq	%rbx
	.seh_pushreg	%rbx
	.cfi_def_cfa_offset 24
	.cfi_offset 3, -24
	subq	$56, %rsp
	.seh_stackalloc	56
	.cfi_def_cfa_offset 80
	.seh_endprologue
	movq	%rcx, %rsi
	.loc 1 64 0
	leaq	40(%rsp), %rbx
	movq	%rbx, %rcx
.LVL45:
	call	_ZN16IntegerFormatterILi16EEC1EPv
.LVL46:
	movq	%rbx, %rcx
	call	_ZNK16IntegerFormatterILi16EE6formatEv
.LVL47:
	movq	%rax, %rcx
	call	_Z6printkPKc
.LVL48:
	.loc 1 66 0
	movq	%rsi, %rax
	addq	$56, %rsp
	.cfi_def_cfa_offset 24
	popq	%rbx
	.cfi_restore 3
	.cfi_def_cfa_offset 16
	popq	%rsi
	.cfi_restore 4
	.cfi_def_cfa_offset 8
.LVL49:
	ret
	.cfi_endproc
.LFE59:
	.seh_endproc
	.section	.text$_ZNK9VectorRefIcE7getSizeEv,"x"
	.linkonce discard
	.align 2
	.globl	_ZNK9VectorRefIcE7getSizeEv
	.def	_ZNK9VectorRefIcE7getSizeEv;	.scl	2;	.type	32;	.endef
	.seh_proc	_ZNK9VectorRefIcE7getSizeEv
_ZNK9VectorRefIcE7getSizeEv:
.LFB69:
	.file 3 "D:\\Pool\\eclipse-workspace_aarch64\\chap003\\include/templates_implementation/data_structures/VectorRef.h"
	.loc 3 29 0
	.cfi_startproc
.LVL50:
	.seh_endprologue
	.loc 3 31 0
	movq	8(%rcx), %rax
	.loc 3 32 0
	ret
	.cfi_endproc
.LFE69:
	.seh_endproc
	.section	.text$_ZNK9VectorRefIcE7getDataEv,"x"
	.linkonce discard
	.align 2
	.globl	_ZNK9VectorRefIcE7getDataEv
	.def	_ZNK9VectorRefIcE7getDataEv;	.scl	2;	.type	32;	.endef
	.seh_proc	_ZNK9VectorRefIcE7getDataEv
_ZNK9VectorRefIcE7getDataEv:
.LFB70:
	.loc 3 23 0
	.cfi_startproc
.LVL51:
	.seh_endprologue
	.loc 3 25 0
	movq	(%rcx), %rax
	.loc 3 26 0
	ret
	.cfi_endproc
.LFE70:
	.seh_endproc
	.text
	.globl	_ZlsR6OutputRK9StringRef
	.def	_ZlsR6OutputRK9StringRef;	.scl	2;	.type	32;	.endef
	.seh_proc	_ZlsR6OutputRK9StringRef
_ZlsR6OutputRK9StringRef:
.LFB60:
	.loc 1 69 0
	.cfi_startproc
.LVL52:
	pushq	%rbp
	.seh_pushreg	%rbp
	.cfi_def_cfa_offset 16
	.cfi_offset 6, -16
	pushq	%rdi
	.seh_pushreg	%rdi
	.cfi_def_cfa_offset 24
	.cfi_offset 5, -24
	pushq	%rsi
	.seh_pushreg	%rsi
	.cfi_def_cfa_offset 32
	.cfi_offset 4, -32
	pushq	%rbx
	.seh_pushreg	%rbx
	.cfi_def_cfa_offset 40
	.cfi_offset 3, -40
	subq	$40, %rsp
	.seh_stackalloc	40
	.cfi_def_cfa_offset 80
	.seh_endprologue
	movq	%rcx, %rbp
	movq	%rdx, %rsi
	.loc 1 70 0
	movq	%rdx, %rcx
.LVL53:
	call	_ZNK9VectorRefIcE7getSizeEv
.LVL54:
	movq	%rax, %rbx
.LVL55:
	.loc 1 71 0
	movq	%rsi, %rcx
	call	_ZNK9VectorRefIcE7getDataEv
.LVL56:
	.loc 1 72 0
	testq	%rbx, %rbx
	je	.L22
.LVL57:
.L23:
	.loc 1 73 0
	leaq	-1(%rbx), %rsi
.LVL58:
	testq	%rbx, %rbx
	je	.L22
	.loc 1 74 0
	leaq	1(%rax), %rdi
.LVL59:
	movsbl	(%rax), %edx
	movq	%rbp, %rcx
	call	_ZN6OutputlsEc
.LVL60:
	.loc 1 73 0
	movq	%rsi, %rbx
	.loc 1 74 0
	movq	%rdi, %rax
	.loc 1 73 0
	jmp	.L23
.LVL61:
.L22:
	.loc 1 76 0
	movq	%rbp, %rax
.LVL62:
	addq	$40, %rsp
	.cfi_def_cfa_offset 40
	popq	%rbx
	.cfi_restore 3
	.cfi_def_cfa_offset 32
	popq	%rsi
	.cfi_restore 4
	.cfi_def_cfa_offset 24
	popq	%rdi
	.cfi_restore 5
	.cfi_def_cfa_offset 16
	popq	%rbp
	.cfi_restore 6
	.cfi_def_cfa_offset 8
.LVL63:
	ret
	.cfi_endproc
.LFE60:
	.seh_endproc
	.section .rdata,"dr"
	.align 8
.LC0:
	.long	0
	.long	1138753536
	.text
.Letext0:
	.file 4 "/usr/lib/gcc/x86_64-pc-cygwin/6.4.0/include/stddef.h"
	.file 5 "/usr/lib/gcc/x86_64-pc-cygwin/6.4.0/include/c++/cstddef"
	.file 6 "/usr/lib/gcc/x86_64-pc-cygwin/6.4.0/include/c++/cstdint"
	.file 7 "/usr/include/machine/_default_types.h"
	.file 8 "/usr/include/sys/_stdint.h"
	.file 9 "/usr/include/stdint.h"
	.file 10 "D:\\Pool\\eclipse-workspace_aarch64\\chap003\\include/def.h"
	.file 11 "D:\\Pool\\eclipse-workspace_aarch64\\chap003\\include/printk.h"
	.file 12 "D:\\Pool\\eclipse-workspace_aarch64\\chap003\\include/generic_util.h"
	.file 13 "D:\\Pool\\eclipse-workspace_aarch64\\chap003\\include/IntegerFormatter.h"
	.file 14 "D:\\Pool\\eclipse-workspace_aarch64\\chap003\\include/MemoryChunk.h"
	.file 15 "D:\\Pool\\eclipse-workspace_aarch64\\chap003\\include/MemoryManager.h"
	.file 16 "D:\\Pool\\eclipse-workspace_aarch64\\chap003\\include/data_structures/Vector.h"
	.file 17 "D:\\Pool\\eclipse-workspace_aarch64\\chap003\\include/templates_implementation/data_structures/Vector.h"
	.file 18 "D:\\Pool\\eclipse-workspace_aarch64\\chap003\\include/data_structures/String.h"
	.file 19 "D:\\Pool\\eclipse-workspace_aarch64\\chap003\\include/data_structures/VectorRef.h"
	.file 20 "D:\\Pool\\eclipse-workspace_aarch64\\chap003\\include/data_structures/StringRef.h"
	.file 21 "<built-in>"
	.section	.rdata$.refptr.koutBuf, "dr"
	.globl	.refptr.koutBuf
	.linkonce	discard
.refptr.koutBuf:
	.quad	koutBuf
