	.file	"SectorReader_impl.cpp"
	.text
.Ltext0:
	.cfi_sections	.debug_frame
	.align 2
	.globl	_ZN18SectorReaderHelper21invalidateCurrentFileEv
	.def	_ZN18SectorReaderHelper21invalidateCurrentFileEv;	.scl	2;	.type	32;	.endef
	.seh_proc	_ZN18SectorReaderHelper21invalidateCurrentFileEv
_ZN18SectorReaderHelper21invalidateCurrentFileEv:
.LFB1583:
	.file 1 "../src/arch/host/SectorReader_impl.cpp"
	.loc 1 25 0
	.cfi_startproc
.LVL0:
	pushq	%rsi
	.seh_pushreg	%rsi
	.cfi_def_cfa_offset 16
	.cfi_offset 4, -16
	pushq	%rbx
	.seh_pushreg	%rbx
	.cfi_def_cfa_offset 24
	.cfi_offset 3, -24
	subq	$40, %rsp
	.seh_stackalloc	40
	.cfi_def_cfa_offset 64
	.seh_endprologue
	movq	%rcx, %rsi
	.loc 1 26 0
	movq	(%rcx), %rbx
	testq	%rbx, %rbx
	je	.L1
.LVL1:
.LBB46:
.LBB47:
	.file 2 "/usr/lib/gcc/x86_64-pc-cygwin/6.4.0/include/c++/fstream"
	.loc 2 1043 0
	leaq	24(%rbx), %rcx
.LVL2:
	call	_ZNSt13basic_filebufIcSt11char_traitsIcEE5closeEv
.LVL3:
	testq	%rax, %rax
	je	.L4
.LVL4:
.L3:
.LBE47:
.LBE46:
	.loc 1 29 0
	movq	(%rsi), %rdx
	movq	.refptr.mman(%rip), %rcx
	call	_ZN13MemoryManager10deallocateEPv
	nop
.LVL5:
.L1:
	.loc 1 31 0
	addq	$40, %rsp
	.cfi_remember_state
	.cfi_def_cfa_offset 24
	popq	%rbx
	.cfi_restore 3
	.cfi_def_cfa_offset 16
	popq	%rsi
	.cfi_restore 4
	.cfi_def_cfa_offset 8
.LVL6:
	ret
.LVL7:
.L4:
	.cfi_restore_state
.LBB53:
.LBB52:
	.loc 2 1044 0
	movq	(%rbx), %rax
	addq	-24(%rax), %rbx
.LVL8:
	movq	%rbx, %rcx
.LVL9:
.LBB48:
.LBB49:
.LBB50:
.LBB51:
	.file 3 "/usr/lib/gcc/x86_64-pc-cygwin/6.4.0/include/c++/bits/ios_base.h"
	.loc 3 170 0
	movl	32(%rbx), %edx
	orl	$4, %edx
.LVL10:
.LBE51:
.LBE50:
	.file 4 "/usr/lib/gcc/x86_64-pc-cygwin/6.4.0/include/c++/bits/basic_ios.h"
	.loc 4 158 0
	call	_ZNSt9basic_iosIcSt11char_traitsIcEE5clearESt12_Ios_Iostate
.LVL11:
	jmp	.L3
.LBE49:
.LBE48:
.LBE52:
.LBE53:
	.cfi_endproc
.LFE1583:
	.seh_endproc
	.align 2
	.globl	_ZN18SectorReaderHelperD2Ev
	.def	_ZN18SectorReaderHelperD2Ev;	.scl	2;	.type	32;	.endef
	.seh_proc	_ZN18SectorReaderHelperD2Ev
_ZN18SectorReaderHelperD2Ev:
.LFB1580:
	.loc 1 13 0
	.cfi_startproc
.LVL12:
	subq	$40, %rsp
	.seh_stackalloc	40
	.cfi_def_cfa_offset 48
	.seh_endprologue
.LBB54:
	.loc 1 15 0
	call	_ZN18SectorReaderHelper21invalidateCurrentFileEv
	nop
.LVL13:
.LBE54:
	.loc 1 16 0
	addq	$40, %rsp
	.cfi_def_cfa_offset 8
	ret
	.cfi_endproc
.LFE1580:
	.seh_endproc
	.globl	_ZN18SectorReaderHelperD1Ev
	.def	_ZN18SectorReaderHelperD1Ev;	.scl	2;	.type	32;	.endef
	.set	_ZN18SectorReaderHelperD1Ev,_ZN18SectorReaderHelperD2Ev
	.align 2
	.globl	_ZN18SectorReaderHelper14setCurrentFileEPKc
	.def	_ZN18SectorReaderHelper14setCurrentFileEPKc;	.scl	2;	.type	32;	.endef
	.seh_proc	_ZN18SectorReaderHelper14setCurrentFileEPKc
_ZN18SectorReaderHelper14setCurrentFileEPKc:
.LFB1582:
	.loc 1 18 0
	.cfi_startproc
.LVL14:
	pushq	%r12
	.seh_pushreg	%r12
	.cfi_def_cfa_offset 16
	.cfi_offset 12, -16
	pushq	%rbp
	.seh_pushreg	%rbp
	.cfi_def_cfa_offset 24
	.cfi_offset 6, -24
	pushq	%rdi
	.seh_pushreg	%rdi
	.cfi_def_cfa_offset 32
	.cfi_offset 5, -32
	pushq	%rsi
	.seh_pushreg	%rsi
	.cfi_def_cfa_offset 40
	.cfi_offset 4, -40
	pushq	%rbx
	.seh_pushreg	%rbx
	.cfi_def_cfa_offset 48
	.cfi_offset 3, -48
	subq	$32, %rsp
	.seh_stackalloc	32
	.cfi_def_cfa_offset 80
	.seh_endprologue
	movq	%rcx, %rdi
	movq	%rdx, %r12
	.loc 1 19 0
	call	_ZN18SectorReaderHelper21invalidateCurrentFileEv
.LVL15:
	.loc 1 20 0
	movl	$496, %ecx
	call	_Znwm
.LVL16:
	movq	%rax, %rbx
.LVL17:
.LBB87:
.LBB88:
.LBB89:
.LBB90:
	.loc 4 462 0
	leaq	232(%rax), %rbp
.LVL18:
	movq	%rbp, %rcx
	call	_ZNSt8ios_baseC2Ev
.LVL19:
	movq	.refptr._ZTVSt9basic_iosIcSt11char_traitsIcEE(%rip), %rax
	addq	$16, %rax
	movq	%rax, 232(%rbx)
	movq	$0, 448(%rbx)
	movb	$0, 456(%rbx)
	movb	$0, 457(%rbx)
	movq	$0, 464(%rbx)
	movq	$0, 472(%rbx)
	movq	$0, 480(%rbx)
	movq	$0, 488(%rbx)
.LVL20:
.LBE90:
.LBE89:
.LBB91:
.LBB92:
.LBB93:
.LBB94:
	.file 5 "/usr/lib/gcc/x86_64-pc-cygwin/6.4.0/include/c++/istream"
	.loc 5 94 0
	movq	.refptr._ZTTSt13basic_fstreamIcSt11char_traitsIcEE(%rip), %rsi
	movq	16(%rsi), %rax
	movq	%rax, (%rbx)
	movq	-24(%rax), %rax
	movq	24(%rsi), %rdx
	movq	%rdx, (%rbx,%rax)
	movq	$0, 8(%rbx)
	.loc 5 95 0
	movq	(%rbx), %rax
	movq	%rbx, %rcx
	addq	-24(%rax), %rcx
	movl	$0, %edx
	call	_ZNSt9basic_iosIcSt11char_traitsIcEE4initEPSt15basic_streambufIcS1_E
.LVL21:
.LBE94:
.LBE93:
.LBB95:
.LBB96:
	.file 6 "/usr/lib/gcc/x86_64-pc-cygwin/6.4.0/include/c++/ostream"
	.loc 6 85 0
	movq	32(%rsi), %rax
	movq	%rax, 16(%rbx)
	movq	-24(%rax), %rax
	movq	40(%rsi), %rdx
	movq	%rdx, 16(%rbx,%rax)
	movq	16(%rbx), %rax
	movq	-24(%rax), %rax
	leaq	16(%rbx,%rax), %rcx
	movl	$0, %edx
	call	_ZNSt9basic_iosIcSt11char_traitsIcEE4initEPSt15basic_streambufIcS1_E
.LVL22:
.LBE96:
.LBE95:
	.loc 5 850 0
	movq	8(%rsi), %rax
	movq	%rax, (%rbx)
	movq	-24(%rax), %rax
	movq	48(%rsi), %rdx
	movq	%rdx, (%rbx,%rax)
.LVL23:
.LBE92:
.LBE91:
	.loc 2 904 0
	movq	.refptr._ZTVSt13basic_fstreamIcSt11char_traitsIcEE(%rip), %rax
	leaq	24(%rax), %rdx
	movq	%rdx, (%rbx)
	leaq	104(%rax), %rdx
	movq	%rdx, 232(%rbx)
	addq	$64, %rax
	movq	%rax, 16(%rbx)
	leaq	24(%rbx), %rsi
	movq	%rsi, %rcx
	call	_ZNSt13basic_filebufIcSt11char_traitsIcEEC1Ev
.LVL24:
	.loc 2 906 0
	movq	%rsi, %rdx
	movq	%rbp, %rcx
	call	_ZNSt9basic_iosIcSt11char_traitsIcEE4initEPSt15basic_streambufIcS1_E
.LVL25:
.LBB97:
.LBB98:
	.loc 2 1004 0
	movl	$28, %r8d
	movq	%r12, %rdx
	movq	%rsi, %rcx
	call	_ZNSt13basic_filebufIcSt11char_traitsIcEE4openEPKcSt13_Ios_Openmode
.LVL26:
	testq	%rax, %rax
	je	.L11
	.loc 2 1009 0
	movq	(%rbx), %rax
	movq	%rbx, %rcx
	addq	-24(%rax), %rcx
	movl	$0, %edx
	call	_ZNSt9basic_iosIcSt11char_traitsIcEE5clearESt12_Ios_Iostate
.LVL27:
.L8:
.LBE98:
.LBE97:
.LBE88:
.LBE87:
	.loc 1 20 0
	movq	%rbx, (%rdi)
.LVL28:
.LBB106:
.LBB107:
.LBB108:
	.loc 2 253 0
	leaq	96(%rbx), %rcx
	call	_ZNKSt12__basic_fileIcE7is_openEv
.LVL29:
.LBE108:
.LBE107:
.LBE106:
	.loc 1 21 0
	testb	%al, %al
	je	.L12
.L6:
	.loc 1 23 0
	addq	$32, %rsp
	.cfi_remember_state
	.cfi_def_cfa_offset 48
	popq	%rbx
	.cfi_restore 3
	.cfi_def_cfa_offset 40
	popq	%rsi
	.cfi_restore 4
	.cfi_def_cfa_offset 32
	popq	%rdi
	.cfi_restore 5
	.cfi_def_cfa_offset 24
.LVL30:
	popq	%rbp
	.cfi_restore 6
	.cfi_def_cfa_offset 16
	popq	%r12
	.cfi_restore 12
	.cfi_def_cfa_offset 8
.LVL31:
	ret
.LVL32:
.L11:
	.cfi_restore_state
.LBB109:
.LBB105:
.LBB104:
.LBB103:
	.loc 2 1005 0
	movq	(%rbx), %rax
	movq	%rbx, %rcx
	addq	-24(%rax), %rcx
.LVL33:
.LBB99:
.LBB100:
.LBB101:
.LBB102:
	.loc 3 170 0
	movl	32(%rcx), %edx
	orl	$4, %edx
.LVL34:
.LBE102:
.LBE101:
	.loc 4 158 0
	call	_ZNSt9basic_iosIcSt11char_traitsIcEE5clearESt12_Ios_Iostate
.LVL35:
	jmp	.L8
.LVL36:
.L12:
.LBE100:
.LBE99:
.LBE103:
.LBE104:
.LBE105:
.LBE109:
.LBB110:
.LBB111:
	.loc 2 1004 0
	leaq	24(%rbx), %rcx
	movl	$20, %r8d
	movq	%r12, %rdx
	call	_ZNSt13basic_filebufIcSt11char_traitsIcEE4openEPKcSt13_Ios_Openmode
.LVL37:
	testq	%rax, %rax
	je	.L13
	.loc 2 1009 0
	movq	(%rbx), %rax
	movq	%rbx, %rcx
	addq	-24(%rax), %rcx
	movl	$0, %edx
	call	_ZNSt9basic_iosIcSt11char_traitsIcEE5clearESt12_Ios_Iostate
.LVL38:
.LBE111:
.LBE110:
	.loc 1 23 0
	jmp	.L6
.L13:
.LBB117:
.LBB116:
	.loc 2 1005 0
	movq	(%rbx), %rax
	movq	%rbx, %rcx
	addq	-24(%rax), %rcx
.LVL39:
.LBB112:
.LBB113:
.LBB114:
.LBB115:
	.loc 3 170 0
	movl	32(%rcx), %edx
	orl	$4, %edx
.LVL40:
.LBE115:
.LBE114:
	.loc 4 158 0
	call	_ZNSt9basic_iosIcSt11char_traitsIcEE5clearESt12_Ios_Iostate
.LVL41:
	jmp	.L6
.LBE113:
.LBE112:
.LBE116:
.LBE117:
	.cfi_endproc
.LFE1582:
	.seh_endproc
	.align 2
	.globl	_ZN18SectorReaderHelper4readEmPvm
	.def	_ZN18SectorReaderHelper4readEmPvm;	.scl	2;	.type	32;	.endef
	.seh_proc	_ZN18SectorReaderHelper4readEmPvm
_ZN18SectorReaderHelper4readEmPvm:
.LFB1584:
	.loc 1 33 0
	.cfi_startproc
.LVL42:
	pushq	%rdi
	.seh_pushreg	%rdi
	.cfi_def_cfa_offset 16
	.cfi_offset 5, -16
	pushq	%rsi
	.seh_pushreg	%rsi
	.cfi_def_cfa_offset 24
	.cfi_offset 4, -24
	pushq	%rbx
	.seh_pushreg	%rbx
	.cfi_def_cfa_offset 32
	.cfi_offset 3, -32
	subq	$32, %rsp
	.seh_stackalloc	32
	.cfi_def_cfa_offset 64
	.seh_endprologue
	movq	%rcx, %rsi
	movq	%r8, %rdi
	movq	%r9, %rbx
	.loc 1 34 0
	salq	$9, %rdx
.LVL43:
	movq	(%rcx), %rcx
.LVL44:
	movl	$0, %r8d
.LVL45:
	call	_ZNSi5seekgElSt12_Ios_Seekdir
.LVL46:
	.loc 1 35 0
	movq	(%rsi), %rcx
	movq	%rbx, %r8
	salq	$9, %r8
	movq	%rdi, %rdx
	call	_ZNSi4readEPcl
.LVL47:
	.loc 1 37 0
	movq	%rbx, %rax
	addq	$32, %rsp
	.cfi_def_cfa_offset 32
	popq	%rbx
	.cfi_restore 3
	.cfi_def_cfa_offset 24
.LVL48:
	popq	%rsi
	.cfi_restore 4
	.cfi_def_cfa_offset 16
.LVL49:
	popq	%rdi
	.cfi_restore 5
	.cfi_def_cfa_offset 8
.LVL50:
	ret
	.cfi_endproc
.LFE1584:
	.seh_endproc
	.align 2
	.globl	_ZN18SectorReaderHelper5writeEmPKvm
	.def	_ZN18SectorReaderHelper5writeEmPKvm;	.scl	2;	.type	32;	.endef
	.seh_proc	_ZN18SectorReaderHelper5writeEmPKvm
_ZN18SectorReaderHelper5writeEmPKvm:
.LFB1585:
	.loc 1 39 0
	.cfi_startproc
.LVL51:
	pushq	%rdi
	.seh_pushreg	%rdi
	.cfi_def_cfa_offset 16
	.cfi_offset 5, -16
	pushq	%rsi
	.seh_pushreg	%rsi
	.cfi_def_cfa_offset 24
	.cfi_offset 4, -24
	pushq	%rbx
	.seh_pushreg	%rbx
	.cfi_def_cfa_offset 32
	.cfi_offset 3, -32
	subq	$32, %rsp
	.seh_stackalloc	32
	.cfi_def_cfa_offset 64
	.seh_endprologue
	movq	%rcx, %rsi
	movq	%r8, %rdi
	movq	%r9, %rbx
	.loc 1 40 0
	salq	$9, %rdx
.LVL52:
	movq	(%rcx), %rax
	leaq	16(%rax), %rcx
.LVL53:
	movl	$0, %r8d
.LVL54:
	call	_ZNSo5seekpElSt12_Ios_Seekdir
.LVL55:
	.loc 1 41 0
	movq	(%rsi), %rcx
	addq	$16, %rcx
	movq	%rbx, %r8
	salq	$9, %r8
	movq	%rdi, %rdx
	call	_ZNSo5writeEPKcl
.LVL56:
	.loc 1 43 0
	movq	%rbx, %rax
	addq	$32, %rsp
	.cfi_def_cfa_offset 32
	popq	%rbx
	.cfi_restore 3
	.cfi_def_cfa_offset 24
.LVL57:
	popq	%rsi
	.cfi_restore 4
	.cfi_def_cfa_offset 16
.LVL58:
	popq	%rdi
	.cfi_restore 5
	.cfi_def_cfa_offset 8
.LVL59:
	ret
	.cfi_endproc
.LFE1585:
	.seh_endproc
	.align 2
	.globl	_ZN12SectorReader4readEmPvm
	.def	_ZN12SectorReader4readEmPvm;	.scl	2;	.type	32;	.endef
	.seh_proc	_ZN12SectorReader4readEmPvm
_ZN12SectorReader4readEmPvm:
.LFB1586:
	.loc 1 46 0
	.cfi_startproc
.LVL60:
	subq	$40, %rsp
	.seh_stackalloc	40
	.cfi_def_cfa_offset 48
	.seh_endprologue
	.loc 1 47 0
	movq	.refptr.sys_sectorReaderHelper(%rip), %rcx
.LVL61:
	call	_ZN18SectorReaderHelper4readEmPvm
.LVL62:
	.loc 1 48 0
	addq	$40, %rsp
	.cfi_def_cfa_offset 8
	ret
	.cfi_endproc
.LFE1586:
	.seh_endproc
	.align 2
	.globl	_ZN12SectorReader5writeEmPKvm
	.def	_ZN12SectorReader5writeEmPKvm;	.scl	2;	.type	32;	.endef
	.seh_proc	_ZN12SectorReader5writeEmPKvm
_ZN12SectorReader5writeEmPKvm:
.LFB1587:
	.loc 1 50 0
	.cfi_startproc
.LVL63:
	subq	$40, %rsp
	.seh_stackalloc	40
	.cfi_def_cfa_offset 48
	.seh_endprologue
	.loc 1 51 0
	movq	.refptr.sys_sectorReaderHelper(%rip), %rcx
.LVL64:
	call	_ZN18SectorReaderHelper5writeEmPKvm
.LVL65:
	.loc 1 52 0
	addq	$40, %rsp
	.cfi_def_cfa_offset 8
	ret
	.cfi_endproc
.LFE1587:
	.seh_endproc
.Letext0:
	.file 7 "/usr/lib/gcc/x86_64-pc-cygwin/6.4.0/include/stddef.h"
	.file 8 "/usr/lib/gcc/x86_64-pc-cygwin/6.4.0/include/c++/cstddef"
	.file 9 "/usr/lib/gcc/x86_64-pc-cygwin/6.4.0/include/c++/cstdint"
	.file 10 "/usr/lib/gcc/x86_64-pc-cygwin/6.4.0/include/c++/cwchar"
	.file 11 "<built-in>"
	.file 12 "/usr/lib/gcc/x86_64-pc-cygwin/6.4.0/include/c++/bits/exception_ptr.h"
	.file 13 "/usr/lib/gcc/x86_64-pc-cygwin/6.4.0/include/c++/x86_64-pc-cygwin/bits/c++config.h"
	.file 14 "/usr/lib/gcc/x86_64-pc-cygwin/6.4.0/include/c++/type_traits"
	.file 15 "/usr/lib/gcc/x86_64-pc-cygwin/6.4.0/include/c++/debug/debug.h"
	.file 16 "/usr/lib/gcc/x86_64-pc-cygwin/6.4.0/include/c++/bits/char_traits.h"
	.file 17 "/usr/lib/gcc/x86_64-pc-cygwin/6.4.0/include/c++/bits/stl_pair.h"
	.file 18 "/usr/lib/gcc/x86_64-pc-cygwin/6.4.0/include/c++/bits/postypes.h"
	.file 19 "/usr/lib/gcc/x86_64-pc-cygwin/6.4.0/include/c++/clocale"
	.file 20 "/usr/lib/gcc/x86_64-pc-cygwin/6.4.0/include/c++/new"
	.file 21 "/usr/lib/gcc/x86_64-pc-cygwin/6.4.0/include/c++/cstdlib"
	.file 22 "/usr/lib/gcc/x86_64-pc-cygwin/6.4.0/include/c++/cstdio"
	.file 23 "/usr/lib/gcc/x86_64-pc-cygwin/6.4.0/include/c++/bits/basic_string.h"
	.file 24 "/usr/lib/gcc/x86_64-pc-cygwin/6.4.0/include/c++/bits/basic_string.tcc"
	.file 25 "/usr/lib/gcc/x86_64-pc-cygwin/6.4.0/include/c++/bits/allocator.h"
	.file 26 "/usr/lib/gcc/x86_64-pc-cygwin/6.4.0/include/c++/initializer_list"
	.file 27 "/usr/lib/gcc/x86_64-pc-cygwin/6.4.0/include/c++/system_error"
	.file 28 "/usr/lib/gcc/x86_64-pc-cygwin/6.4.0/include/c++/cwctype"
	.file 29 "/usr/lib/gcc/x86_64-pc-cygwin/6.4.0/include/c++/bits/ostream.tcc"
	.file 30 "/usr/lib/gcc/x86_64-pc-cygwin/6.4.0/include/c++/x86_64-pc-cygwin/bits/basic_file.h"
	.file 31 "/usr/lib/gcc/x86_64-pc-cygwin/6.4.0/include/c++/x86_64-pc-cygwin/bits/c++io.h"
	.file 32 "/usr/lib/gcc/x86_64-pc-cygwin/6.4.0/include/c++/iosfwd"
	.file 33 "/usr/lib/gcc/x86_64-pc-cygwin/6.4.0/include/c++/bits/stl_iterator_base_types.h"
	.file 34 "/usr/lib/gcc/x86_64-pc-cygwin/6.4.0/include/c++/bits/basic_ios.tcc"
	.file 35 "/usr/lib/gcc/x86_64-pc-cygwin/6.4.0/include/c++/bits/fstream.tcc"
	.file 36 "/usr/include/machine/_default_types.h"
	.file 37 "/usr/include/sys/_stdint.h"
	.file 38 "/usr/include/stdint.h"
	.file 39 "D:\\Pool\\eclipse-workspace_aarch64\\chap003\\include/def.h"
	.file 40 "/usr/include/sys/lock.h"
	.file 41 "/usr/include/sys/_types.h"
	.file 42 "/usr/include/sys/reent.h"
	.file 43 "/usr/lib/gcc/x86_64-pc-cygwin/6.4.0/include/stdarg.h"
	.file 44 "/usr/include/wchar.h"
	.file 45 "/usr/include/time.h"
	.file 46 "/usr/lib/gcc/x86_64-pc-cygwin/6.4.0/include/c++/bits/predefined_ops.h"
	.file 47 "/usr/lib/gcc/x86_64-pc-cygwin/6.4.0/include/c++/ext/new_allocator.h"
	.file 48 "/usr/lib/gcc/x86_64-pc-cygwin/6.4.0/include/c++/ext/numeric_traits.h"
	.file 49 "/usr/lib/gcc/x86_64-pc-cygwin/6.4.0/include/c++/bits/stl_iterator.h"
	.file 50 "/usr/include/locale.h"
	.file 51 "/usr/include/ctype.h"
	.file 52 "/usr/include/sys/_pthreadtypes.h"
	.file 53 "/usr/lib/gcc/x86_64-pc-cygwin/6.4.0/include/c++/x86_64-pc-cygwin/bits/gthr-default.h"
	.file 54 "/usr/lib/gcc/x86_64-pc-cygwin/6.4.0/include/c++/x86_64-pc-cygwin/bits/atomic_word.h"
	.file 55 "/usr/include/stdlib.h"
	.file 56 "/usr/include/stdio.h"
	.file 57 "/usr/include/sys/errno.h"
	.file 58 "/usr/include/wctype.h"
	.file 59 "D:\\Pool\\eclipse-workspace_aarch64\\chap003\\include/arch/host/SectorReaderHelper.h"
	.file 60 "D:\\Pool\\eclipse-workspace_aarch64\\chap003\\include/io/SectorReader.h"
	.file 61 "D:\\Pool\\eclipse-workspace_aarch64\\chap003\\include/MemoryChunk.h"
	.file 62 "D:\\Pool\\eclipse-workspace_aarch64\\chap003\\include/MemoryManager.h"
	.section	.rdata$.refptr.sys_sectorReaderHelper, "dr"
	.globl	.refptr.sys_sectorReaderHelper
	.linkonce	discard
.refptr.sys_sectorReaderHelper:
	.quad	sys_sectorReaderHelper
	.section	.rdata$.refptr._ZTVSt13basic_fstreamIcSt11char_traitsIcEE, "dr"
	.globl	.refptr._ZTVSt13basic_fstreamIcSt11char_traitsIcEE
	.linkonce	discard
.refptr._ZTVSt13basic_fstreamIcSt11char_traitsIcEE:
	.quad	_ZTVSt13basic_fstreamIcSt11char_traitsIcEE
	.section	.rdata$.refptr._ZTTSt13basic_fstreamIcSt11char_traitsIcEE, "dr"
	.globl	.refptr._ZTTSt13basic_fstreamIcSt11char_traitsIcEE
	.linkonce	discard
.refptr._ZTTSt13basic_fstreamIcSt11char_traitsIcEE:
	.quad	_ZTTSt13basic_fstreamIcSt11char_traitsIcEE
	.section	.rdata$.refptr._ZTVSt9basic_iosIcSt11char_traitsIcEE, "dr"
	.globl	.refptr._ZTVSt9basic_iosIcSt11char_traitsIcEE
	.linkonce	discard
.refptr._ZTVSt9basic_iosIcSt11char_traitsIcEE:
	.quad	_ZTVSt9basic_iosIcSt11char_traitsIcEE
	.section	.rdata$.refptr.mman, "dr"
	.globl	.refptr.mman
	.linkonce	discard
.refptr.mman:
	.quad	mman
