	.arch armv8.2-a+crc
	.file	"init.cpp"
	.text
.Ltext0:
	.cfi_sections	.debug_frame
	.section	.rodata
	.align	2
	.type	_ZL6UNIT_K, %object
	.size	_ZL6UNIT_K, 4
_ZL6UNIT_K:
	.word	1024
	.align	2
	.type	_ZL3KiB, %object
	.size	_ZL3KiB, 4
_ZL3KiB:
	.word	1024
	.align	2
	.type	_ZL3MiB, %object
	.size	_ZL3MiB, 4
_ZL3MiB:
	.word	1048576
	.align	2
	.type	_ZL3GiB, %object
	.size	_ZL3GiB, 4
_ZL3GiB:
	.word	1073741824
	.align	1
	.type	_ZL11INVALID_PID, %object
	.size	_ZL11INVALID_PID, 2
_ZL11INVALID_PID:
	.zero	2
	.align	1
	.type	_ZL11CURRENT_PID, %object
	.size	_ZL11CURRENT_PID, 2
_ZL11CURRENT_PID:
	.hword	1
	.align	1
	.type	_ZL10PARENT_PID, %object
	.size	_ZL10PARENT_PID, 2
_ZL10PARENT_PID:
	.hword	2
	.align	3
	.type	_ZL11koutBufSize, %object
	.size	_ZL11koutBufSize, 8
_ZL11koutBufSize:
	.xword	65
	.section	.text._ZnwmPv,"axG",@progbits,_ZnwmPv,comdat
	.align	2
	.weak	_ZnwmPv
	.type	_ZnwmPv, %function
_ZnwmPv:
.LFB265:
	.file 1 "d:\\installed\\gcc-linaro-7.2.1-2017.11-i686-mingw32_aarch64-elf\\aarch64-elf\\include\\c++\\7.2.1\\new"
	.loc 1 169 0
	.cfi_startproc
	sub	sp, sp, #16
	.cfi_def_cfa_offset 16
	str	x0, [sp, 8]
	str	x1, [sp]
	.loc 1 169 0
	ldr	x0, [sp]
	add	sp, sp, 16
	.cfi_def_cfa_offset 0
	ret
	.cfi_endproc
.LFE265:
	.size	_ZnwmPv, .-_ZnwmPv
	.global	mman
	.bss
	.align	3
	.type	mman, %object
	.size	mman, 24
mman:
	.zero	24
	.global	EMPTY_STR
	.section	.rodata
	.align	3
	.type	EMPTY_STR, %object
	.size	EMPTY_STR, 1
EMPTY_STR:
	.zero	1
	.global	koutBuf
	.bss
	.align	3
	.type	koutBuf, %object
	.size	koutBuf, 65
koutBuf:
	.zero	65
	.global	kout
	.align	3
	.type	kout, %object
	.size	kout, 1
kout:
	.zero	1
	.section	.text.init,"ax",@progbits
	.align	2
	.global	_Z4initv
	.type	_Z4initv, %function
_Z4initv:
.LFB269:
	.file 2 "D:/Pool/eclipse-workspace_aarch64/newspace/raspiOS/src/arch/user_space/init.cpp"
	.loc 2 37 0
	.cfi_startproc
	stp	x29, x30, [sp, -48]!
	.cfi_def_cfa_offset 48
	.cfi_offset 29, -48
	.cfi_offset 30, -40
	add	x29, sp, 0
	.cfi_def_cfa_register 29
.LBB2:
	.loc 2 39 0
	adrp	x0, bssEnd
	add	x1, x0, :lo12:bssEnd
	adrp	x0, bssStart
	add	x0, x0, :lo12:bssStart
	sub	x0, x1, x0
	asr	x0, x0, 3
	str	x0, [x29, 32]
	str	xzr, [x29, 40]
.L5:
	.loc 2 39 0 is_stmt 0 discriminator 3
	ldr	x1, [x29, 40]
	ldr	x0, [x29, 32]
	cmp	x1, x0
	beq	.L4
	.loc 2 40 0 is_stmt 1 discriminator 2
	adrp	x0, bssStart
	add	x0, x0, :lo12:bssStart
	ldr	x1, [x29, 40]
	str	xzr, [x0, x1, lsl 3]
	.loc 2 39 0 discriminator 2
	ldr	x0, [x29, 40]
	add	x0, x0, 1
	str	x0, [x29, 40]
	b	.L5
.L4:
.LBE2:
	.loc 2 43 0
	adrp	x0, freeRamStart
	add	x0, x0, :lo12:freeRamStart
	mov	x1, 8
	bl	_Z9alignNextmm
	str	x0, [x29, 24]
	.loc 2 45 0
	adrp	x0, mman
	add	x0, x0, :lo12:mman
	mov	x1, x0
	mov	x0, 24
	bl	_ZnwmPv
	mov	x4, x0
	cmp	x4, 0
	beq	.L7
	.loc 2 45 0 is_stmt 0 discriminator 1
	adrp	x0, freeRamEnd
	add	x1, x0, :lo12:freeRamEnd
	ldr	x0, [x29, 24]
	sub	x0, x1, x0
	mov	w3, 1
	mov	x2, x0
	ldr	x1, [x29, 24]
	mov	x0, x4
	bl	_ZN13MemoryManagerC1EPvmb
.L7:
	.loc 2 46 0 is_stmt 1
	adrp	x0, kout
	add	x0, x0, :lo12:kout
	mov	x1, x0
	mov	x0, 1
	bl	_ZnwmPv
	cmp	x0, 0
	.loc 2 49 0
	bl	main
	str	w0, [x29, 20]
	.loc 2 50 0
	ldr	w0, [x29, 20]
	bl	_Z4exiti
	.loc 2 51 0
	nop
	ldp	x29, x30, [sp], 48
	.cfi_restore 30
	.cfi_restore 29
	.cfi_def_cfa 31, 0
	ret
	.cfi_endproc
.LFE269:
	.size	_Z4initv, .-_Z4initv
	.text
	.align	2
	.type	_Z41__static_initialization_and_destruction_0ii, %function
_Z41__static_initialization_and_destruction_0ii:
.LFB275:
	.loc 2 51 0
	.cfi_startproc
	stp	x29, x30, [sp, -32]!
	.cfi_def_cfa_offset 32
	.cfi_offset 29, -32
	.cfi_offset 30, -24
	add	x29, sp, 0
	.cfi_def_cfa_register 29
	str	w0, [x29, 28]
	str	w1, [x29, 24]
	.loc 2 51 0
	ldr	w0, [x29, 28]
	cmp	w0, 1
	bne	.L12
	.loc 2 51 0 is_stmt 0 discriminator 1
	ldr	w1, [x29, 24]
	mov	w0, 65535
	cmp	w1, w0
	bne	.L12
	.loc 2 21 0 is_stmt 1
	adrp	x0, mman
	add	x0, x0, :lo12:mman
	mov	w3, 1
	mov	x2, 0
	mov	x1, 0
	bl	_ZN13MemoryManagerC1EPvmb
.L12:
	.loc 2 51 0
	nop
	ldp	x29, x30, [sp], 32
	.cfi_restore 30
	.cfi_restore 29
	.cfi_def_cfa 31, 0
	ret
	.cfi_endproc
.LFE275:
	.size	_Z41__static_initialization_and_destruction_0ii, .-_Z41__static_initialization_and_destruction_0ii
	.align	2
	.type	_GLOBAL__sub_I_mman, %function
_GLOBAL__sub_I_mman:
.LFB276:
	.loc 2 51 0
	.cfi_startproc
	stp	x29, x30, [sp, -16]!
	.cfi_def_cfa_offset 16
	.cfi_offset 29, -16
	.cfi_offset 30, -8
	add	x29, sp, 0
	.cfi_def_cfa_register 29
	.loc 2 51 0
	mov	w1, 65535
	mov	w0, 1
	bl	_Z41__static_initialization_and_destruction_0ii
	ldp	x29, x30, [sp], 16
	.cfi_restore 30
	.cfi_restore 29
	.cfi_def_cfa 31, 0
	ret
	.cfi_endproc
.LFE276:
	.size	_GLOBAL__sub_I_mman, .-_GLOBAL__sub_I_mman
	.section	.init_array,"aw",%init_array
	.align	3
	.xword	_GLOBAL__sub_I_mman
	.text
.Letext0:
	.file 3 "d:\\installed\\gcc-linaro-7.2.1-2017.11-i686-mingw32_aarch64-elf\\aarch64-elf\\include\\c++\\7.2.1\\cstddef"
	.file 4 "d:\\installed\\gcc-linaro-7.2.1-2017.11-i686-mingw32_aarch64-elf\\aarch64-elf\\include\\c++\\7.2.1\\cstdint"
	.file 5 "d:\\installed\\gcc-linaro-7.2.1-2017.11-i686-mingw32_aarch64-elf\\aarch64-elf\\include\\c++\\7.2.1\\cstring"
	.file 6 "d:\\installed\\gcc-linaro-7.2.1-2017.11-i686-mingw32_aarch64-elf\\aarch64-elf\\include\\c++\\7.2.1\\bits\\exception_ptr.h"
	.file 7 "d:\\installed\\gcc-linaro-7.2.1-2017.11-i686-mingw32_aarch64-elf\\aarch64-elf\\include\\c++\\7.2.1\\aarch64-elf\\bits\\c++config.h"
	.file 8 "d:\\installed\\gcc-linaro-7.2.1-2017.11-i686-mingw32_aarch64-elf\\aarch64-elf\\include\\c++\\7.2.1\\type_traits"
	.file 9 "d:\\installed\\gcc-linaro-7.2.1-2017.11-i686-mingw32_aarch64-elf\\lib\\gcc\\aarch64-elf\\7.2.1\\include\\stddef.h"
	.file 10 "d:\\installed\\gcc-linaro-7.2.1-2017.11-i686-mingw32_aarch64-elf\\lib\\gcc\\aarch64-elf\\7.2.1\\include\\stdint-gcc.h"
	.file 11 "D:\\Pool\\eclipse-workspace_aarch64\\newspace\\raspiOS\\include/def.h"
	.file 12 "D:\\Pool\\eclipse-workspace_aarch64\\newspace\\raspiOS\\include/generic_util.h"
	.file 13 "D:\\Pool\\eclipse-workspace_aarch64\\newspace\\raspiOS\\include/memory/MemoryChunk.h"
	.file 14 "D:\\Pool\\eclipse-workspace_aarch64\\newspace\\raspiOS\\include/memory/MemoryManager.h"
	.file 15 "d:\\installed\\gcc-linaro-7.2.1-2017.11-i686-mingw32_aarch64-elf\\aarch64-elf\\libc\\usr\\include\\sys\\lock.h"
	.file 16 "d:\\installed\\gcc-linaro-7.2.1-2017.11-i686-mingw32_aarch64-elf\\aarch64-elf\\libc\\usr\\include\\sys\\_types.h"
	.file 17 "d:\\installed\\gcc-linaro-7.2.1-2017.11-i686-mingw32_aarch64-elf\\aarch64-elf\\libc\\usr\\include\\sys\\reent.h"
	.file 18 "d:\\installed\\gcc-linaro-7.2.1-2017.11-i686-mingw32_aarch64-elf\\aarch64-elf\\libc\\usr\\include\\string.h"
	.file 19 "D:\\Pool\\eclipse-workspace_aarch64\\newspace\\raspiOS\\include/schedule/PidManager.h"
	.file 20 "D:\\Pool\\eclipse-workspace_aarch64\\newspace\\raspiOS\\include/io/Output.h"
	.file 21 "<built-in>"