	.file	"FAT32ReadUtil.cpp"
	.text
.Ltext0:
	.cfi_sections	.debug_frame
	.section .rdata,"dr"
	.align 4
_ZL6UNIT_K:
	.long	1024
	.align 4
_ZL3KiB:
	.long	1024
	.align 4
_ZL3MiB:
	.long	1048576
	.align 4
_ZL3GiB:
	.long	1073741824
	.align 8
_ZL11koutBufSize:
	.quad	65
_ZStL19piecewise_construct:
	.space 1
_ZStL13allocator_arg:
	.space 1
_ZStL6ignore:
	.space 1
	.text
	.align 2
	.globl	_ZN13FAT32ReadUtil15findByShortNameEPK11FATDirEntrymPKcS4_
	.def	_ZN13FAT32ReadUtil15findByShortNameEPK11FATDirEntrymPKcS4_;	.scl	2;	.type	32;	.endef
	.seh_proc	_ZN13FAT32ReadUtil15findByShortNameEPK11FATDirEntrymPKcS4_
_ZN13FAT32ReadUtil15findByShortNameEPK11FATDirEntrymPKcS4_:
.LFB1360:
	.file 1 "D:/Pool/eclipse-workspace_aarch64/newspace/raspiOS/src/filesystem/fat/FAT32ReadUtil.cpp"
	.loc 1 9 0
	.cfi_startproc
	pushq	%rbp
	.seh_pushreg	%rbp
	.cfi_def_cfa_offset 16
	.cfi_offset 6, -16
	pushq	%rsi
	.seh_pushreg	%rsi
	.cfi_def_cfa_offset 24
	.cfi_offset 4, -24
	pushq	%rbx
	.seh_pushreg	%rbx
	.cfi_def_cfa_offset 32
	.cfi_offset 3, -32
	movq	%rsp, %rbp
	.seh_setframe	%rbp, 0
	.cfi_def_cfa_register 6
	subq	$80, %rsp
	.seh_stackalloc	80
	.seh_endprologue
	movq	%rcx, 32(%rbp)
	movq	%rdx, 40(%rbp)
	movq	%r8, 48(%rbp)
	movq	%r9, 56(%rbp)
.LBB2:
	.loc 1 10 0
	movq	$0, -8(%rbp)
.L9:
	.loc 1 10 0 is_stmt 0 discriminator 1
	movq	-8(%rbp), %rax
	cmpq	40(%rbp), %rax
	je	.L2
	.loc 1 12 0 is_stmt 1
	movl	$0, %ebx
	movl	$0, %esi
	movq	-8(%rbp), %rax
	salq	$5, %rax
	movq	%rax, %rdx
	movq	32(%rbp), %rax
	addq	%rdx, %rax
	movq	%rax, %rcx
	call	_ZNK11FATDirEntry19uni_isLongNameEntryEv
	xorl	$1, %eax
	testb	%al, %al
	je	.L3
	.loc 1 12 0 is_stmt 0 discriminator 1
	movq	56(%rbp), %rdx
	leaq	-48(%rbp), %rax
	movq	%rax, %rcx
	call	_ZN9StringRefC1EPKv
	movl	$1, %ebx
	movq	48(%rbp), %rdx
	leaq	-32(%rbp), %rax
	movq	%rax, %rcx
	call	_ZN9StringRefC1EPKv
	movl	$1, %esi
	movq	-8(%rbp), %rax
	salq	$5, %rax
	movq	%rax, %rdx
	movq	32(%rbp), %rax
	leaq	(%rdx,%rax), %rcx
	leaq	-48(%rbp), %rdx
	leaq	-32(%rbp), %rax
	movq	%rdx, %r8
	movq	%rax, %rdx
	call	_ZNK11FATDirEntry15shortNameEqualsERK9StringRefS2_
	testb	%al, %al
	je	.L3
	.loc 1 12 0 discriminator 3
	movl	$1, %eax
	jmp	.L4
.L3:
	.loc 1 12 0 discriminator 4
	movl	$0, %eax
.L4:
	.loc 1 12 0 discriminator 6
	testb	%sil, %sil
	testb	%bl, %bl
	testb	%al, %al
	je	.L7
	.loc 1 13 0 is_stmt 1
	movq	-8(%rbp), %rax
	jmp	.L8
.L7:
	.loc 1 10 0 discriminator 2
	addq	$1, -8(%rbp)
	jmp	.L9
.L2:
.LBE2:
	.loc 1 15 0
	movq	$-1, %rax
.L8:
	.loc 1 16 0
	addq	$80, %rsp
	popq	%rbx
	.cfi_restore 3
	popq	%rsi
	.cfi_restore 4
	popq	%rbp
	.cfi_restore 6
	.cfi_def_cfa 7, 24
	ret
	.cfi_endproc
.LFE1360:
	.seh_endproc
	.align 2
	.globl	_ZN13FAT32ReadUtil14findByLongNameEPK11FATDirEntrymPKc
	.def	_ZN13FAT32ReadUtil14findByLongNameEPK11FATDirEntrymPKc;	.scl	2;	.type	32;	.endef
	.seh_proc	_ZN13FAT32ReadUtil14findByLongNameEPK11FATDirEntrymPKc
_ZN13FAT32ReadUtil14findByLongNameEPK11FATDirEntrymPKc:
.LFB1361:
	.loc 1 18 0
	.cfi_startproc
	pushq	%rbp
	.seh_pushreg	%rbp
	.cfi_def_cfa_offset 16
	.cfi_offset 6, -16
	movq	%rsp, %rbp
	.seh_setframe	%rbp, 0
	.cfi_def_cfa_register 6
	subq	$80, %rsp
	.seh_stackalloc	80
	.seh_endprologue
	movq	%rcx, 16(%rbp)
	movq	%rdx, 24(%rbp)
	movq	%r8, 32(%rbp)
	.loc 1 19 0
	movq	$0, -8(%rbp)
.L14:
.LBB3:
	.loc 1 22 0 discriminator 8
	movq	-8(%rbp), %rax
	cmpq	24(%rbp), %rax
	je	.L11
	.loc 1 22 0 is_stmt 0 discriminator 1
	movq	-8(%rbp), %rax
	salq	$5, %rax
	movq	%rax, %rdx
	movq	16(%rbp), %rax
	addq	%rdx, %rax
	movq	%rax, %rcx
	call	_ZNK11FATDirEntry19uni_isLongNameEntryEv
	xorl	$1, %eax
	testb	%al, %al
	je	.L11
	.loc 1 22 0 discriminator 3
	movl	$1, %eax
	jmp	.L12
.L11:
	.loc 1 22 0 discriminator 4
	movl	$0, %eax
.L12:
	.loc 1 22 0 discriminator 6
	testb	%al, %al
	je	.L13
	.loc 1 22 0 discriminator 7
	addq	$1, -8(%rbp)
	jmp	.L14
.L13:
	.loc 1 23 0 is_stmt 1
	movq	-8(%rbp), %rax
	cmpq	24(%rbp), %rax
	jne	.L15
	.loc 1 24 0
	movq	$-1, %rax
	jmp	.L16
.L15:
	.loc 1 25 0
	movq	-8(%rbp), %rax
	salq	$5, %rax
	movq	%rax, %rdx
	movq	16(%rbp), %rax
	addq	%rdx, %rax
	movq	%rax, -16(%rbp)
	.loc 1 26 0
	movq	-16(%rbp), %rax
	movq	%rax, %rcx
	call	_ZNK16FATLongNameEntry18getLastAppearEntryEv
	movq	%rax, -24(%rbp)
	.loc 1 27 0
	movq	32(%rbp), %rdx
	leaq	-48(%rbp), %rax
	movq	%rax, %rcx
	call	_ZN9StringRefC1EPKv
	leaq	-48(%rbp), %rcx
	movq	-16(%rbp), %rdx
	movq	-24(%rbp), %rax
	movl	$0, %r9d
	movq	%rcx, %r8
	movq	%rax, %rcx
	call	_ZNK16FATLongNameEntry23nameEqulasAsciiNameUptoEPKS_RK9StringRefb
	testb	%al, %al
	je	.L17
	.loc 1 28 0
	movq	-8(%rbp), %rax
	jmp	.L16
.L17:
	.loc 1 30 0
	movq	-24(%rbp), %rdx
	movq	-16(%rbp), %rax
	subq	%rax, %rdx
	movq	%rdx, %rax
	sarq	$5, %rax
	movq	%rax, %rdx
	movq	-8(%rbp), %rax
	addq	%rdx, %rax
	addq	$1, %rax
	movq	%rax, -8(%rbp)
.LBE3:
	.loc 1 31 0
	jmp	.L14
.L16:
	.loc 1 32 0
	addq	$80, %rsp
	popq	%rbp
	.cfi_restore 6
	.cfi_def_cfa 7, 8
	ret
	.cfi_endproc
.LFE1361:
	.seh_endproc
	.section	.text$_ZSt4moveIR6VectorI11FATDirEntryEEONSt16remove_referenceIT_E4typeEOS5_,"x"
	.linkonce discard
	.globl	_ZSt4moveIR6VectorI11FATDirEntryEEONSt16remove_referenceIT_E4typeEOS5_
	.def	_ZSt4moveIR6VectorI11FATDirEntryEEONSt16remove_referenceIT_E4typeEOS5_;	.scl	2;	.type	32;	.endef
	.seh_proc	_ZSt4moveIR6VectorI11FATDirEntryEEONSt16remove_referenceIT_E4typeEOS5_
_ZSt4moveIR6VectorI11FATDirEntryEEONSt16remove_referenceIT_E4typeEOS5_:
.LFB1363:
	.file 2 "/usr/lib/gcc/x86_64-pc-cygwin/6.4.0/include/c++/bits/move.h"
	.loc 2 101 0
	.cfi_startproc
	pushq	%rbp
	.seh_pushreg	%rbp
	.cfi_def_cfa_offset 16
	.cfi_offset 6, -16
	movq	%rsp, %rbp
	.seh_setframe	%rbp, 0
	.cfi_def_cfa_register 6
	.seh_endprologue
	movq	%rcx, 16(%rbp)
	.loc 2 102 0
	movq	16(%rbp), %rax
	popq	%rbp
	.cfi_restore 6
	.cfi_def_cfa 7, 8
	ret
	.cfi_endproc
.LFE1363:
	.seh_endproc
	.text
	.align 2
	.globl	_ZN13FAT32ReadUtil17readAllDirEntriesERK6VectorI10FAT32EntryEmPK11FAT32ExtBPBR12SectorReader
	.def	_ZN13FAT32ReadUtil17readAllDirEntriesERK6VectorI10FAT32EntryEmPK11FAT32ExtBPBR12SectorReader;	.scl	2;	.type	32;	.endef
	.seh_proc	_ZN13FAT32ReadUtil17readAllDirEntriesERK6VectorI10FAT32EntryEmPK11FAT32ExtBPBR12SectorReader
_ZN13FAT32ReadUtil17readAllDirEntriesERK6VectorI10FAT32EntryEmPK11FAT32ExtBPBR12SectorReader:
.LFB1362:
	.loc 1 35 0
	.cfi_startproc
	pushq	%rbp
	.seh_pushreg	%rbp
	.cfi_def_cfa_offset 16
	.cfi_offset 6, -16
	pushq	%rsi
	.seh_pushreg	%rsi
	.cfi_def_cfa_offset 24
	.cfi_offset 4, -24
	pushq	%rbx
	.seh_pushreg	%rbx
	.cfi_def_cfa_offset 32
	.cfi_offset 3, -32
	movq	%rsp, %rbp
	.seh_setframe	%rbp, 0
	.cfi_def_cfa_register 6
	subq	$80, %rsp
	.seh_stackalloc	80
	.seh_endprologue
	movq	%rcx, 32(%rbp)
	movq	%rdx, 40(%rbp)
	movq	%r8, 48(%rbp)
	movq	%r9, 56(%rbp)
	.loc 1 36 0
	movq	48(%rbp), %rdx
	movq	40(%rbp), %rax
	movq	%rax, %rcx
	call	_ZN13FAT32ReadUtil13getEntryCountERK6VectorI10FAT32EntryEm
	movq	%rax, -16(%rbp)
	.loc 1 37 0
	movq	56(%rbp), %rax
	movzbl	13(%rax), %eax
	movzbl	%al, %edx
	movq	56(%rbp), %rax
	movzwl	11(%rax), %eax
	movzwl	%ax, %eax
	imull	%edx, %eax
	cltq
	shrq	$5, %rax
	movq	%rax, -24(%rbp)
	.loc 1 38 0
	movq	-16(%rbp), %rax
	imulq	-24(%rbp), %rax
	movq	%rax, %rdx
	leaq	-48(%rbp), %rax
	movq	%rax, %rcx
	call	_ZN6VectorI11FATDirEntryEC1Em
.LBB4:
	.loc 1 39 0
	movq	$0, -8(%rbp)
.L22:
	.loc 1 39 0 is_stmt 0 discriminator 3
	movq	-8(%rbp), %rax
	cmpq	-16(%rbp), %rax
	je	.L21
	.loc 1 41 0 is_stmt 1 discriminator 2
	movq	56(%rbp), %rax
	movzbl	13(%rax), %eax
	movzbl	%al, %ebx
	leaq	-48(%rbp), %rax
	movq	%rax, %rcx
	call	_ZN6VectorI11FATDirEntryE7getDataEv
	movq	%rax, %rdx
	movq	-8(%rbp), %rax
	imulq	-24(%rbp), %rax
	salq	$5, %rax
	leaq	(%rdx,%rax), %rsi
	movq	48(%rbp), %rdx
	movq	56(%rbp), %rax
	movq	%rax, %rcx
	call	_ZNK11FAT32ExtBPB21getClusterFirstSectorEm
	movq	%rax, %rdx
	movq	64(%rbp), %rax
	movq	%rbx, %r9
	movq	%rsi, %r8
	movq	%rax, %rcx
	call	_ZN12SectorReader4readEmPvm
	.loc 1 42 0 discriminator 2
	movq	48(%rbp), %rdx
	movq	40(%rbp), %rax
	movq	%rax, %rcx
	call	_ZNK6VectorI10FAT32EntryEixEm
	movq	%rax, %rcx
	call	_ZNK10FAT32Entry8getAsIntEv
	movl	%eax, %eax
	movq	%rax, 48(%rbp)
	.loc 1 39 0 discriminator 2
	addq	$1, -8(%rbp)
	jmp	.L22
.L21:
.LBE4:
	.loc 1 44 0
	leaq	-48(%rbp), %rax
	movq	%rax, %rcx
	call	_ZSt4moveIR6VectorI11FATDirEntryEEONSt16remove_referenceIT_E4typeEOS5_
	movq	%rax, %rdx
	movq	32(%rbp), %rcx
	call	_ZN6VectorI11FATDirEntryEC1EOS1_
	.loc 1 38 0
	leaq	-48(%rbp), %rax
	movq	%rax, %rcx
	call	_ZN6VectorI11FATDirEntryED1Ev
	.loc 1 44 0
	nop
	.loc 1 45 0
	movq	32(%rbp), %rax
	addq	$80, %rsp
	popq	%rbx
	.cfi_restore 3
	popq	%rsi
	.cfi_restore 4
	popq	%rbp
	.cfi_restore 6
	.cfi_def_cfa 7, 24
	ret
	.cfi_endproc
.LFE1362:
	.seh_endproc
	.align 2
	.globl	_ZN13FAT32ReadUtil13getEntryCountERK6VectorI10FAT32EntryEm
	.def	_ZN13FAT32ReadUtil13getEntryCountERK6VectorI10FAT32EntryEm;	.scl	2;	.type	32;	.endef
	.seh_proc	_ZN13FAT32ReadUtil13getEntryCountERK6VectorI10FAT32EntryEm
_ZN13FAT32ReadUtil13getEntryCountERK6VectorI10FAT32EntryEm:
.LFB1364:
	.loc 1 48 0
	.cfi_startproc
	pushq	%rbp
	.seh_pushreg	%rbp
	.cfi_def_cfa_offset 16
	.cfi_offset 6, -16
	movq	%rsp, %rbp
	.seh_setframe	%rbp, 0
	.cfi_def_cfa_register 6
	subq	$48, %rsp
	.seh_stackalloc	48
	.seh_endprologue
	movq	%rcx, 16(%rbp)
	movq	%rdx, 24(%rbp)
	.loc 1 49 0
	cmpq	$1, 24(%rbp)
	jbe	.L25
	.loc 1 49 0 is_stmt 0 discriminator 2
	movq	24(%rbp), %rax
	movq	%rax, %rdx
	movq	16(%rbp), %rcx
	call	_ZNK6VectorI10FAT32EntryEixEm
	movq	%rax, %rcx
	call	_ZNK10FAT32Entry9isAllocedEv
	xorl	$1, %eax
	testb	%al, %al
	je	.L26
.L25:
	.loc 1 49 0 discriminator 3
	movl	$1, %eax
	jmp	.L27
.L26:
	.loc 1 49 0 discriminator 4
	movl	$0, %eax
.L27:
	.loc 1 49 0 discriminator 6
	testb	%al, %al
	je	.L28
	.loc 1 50 0 is_stmt 1
	movl	$0, %eax
	jmp	.L29
.L28:
	.loc 1 51 0
	movq	$0, -8(%rbp)
.L32:
	.loc 1 54 0
	addq	$1, -8(%rbp)
	.loc 1 55 0
	movq	24(%rbp), %rax
	movq	%rax, %rdx
	movq	16(%rbp), %rcx
	call	_ZNK6VectorI10FAT32EntryEixEm
	movq	%rax, %rcx
	call	_ZNK10FAT32Entry6isLastEv
	testb	%al, %al
	jne	.L34
	.loc 1 57 0
	movq	24(%rbp), %rax
	movq	%rax, %rdx
	movq	16(%rbp), %rcx
	call	_ZNK6VectorI10FAT32EntryEixEm
	movq	%rax, %rcx
	call	_ZNK10FAT32Entry8getAsIntEv
	movl	%eax, %eax
	movq	%rax, 24(%rbp)
	.loc 1 54 0
	jmp	.L32
.L34:
	.loc 1 56 0
	nop
	.loc 1 59 0
	movq	-8(%rbp), %rax
.L29:
	.loc 1 60 0
	addq	$48, %rsp
	popq	%rbp
	.cfi_restore 6
	.cfi_def_cfa 7, 8
	ret
	.cfi_endproc
.LFE1364:
	.seh_endproc
	.align 2
	.globl	_ZN13FAT32ReadUtil17getNextEntryIndexEPK10FAT32Entrym
	.def	_ZN13FAT32ReadUtil17getNextEntryIndexEPK10FAT32Entrym;	.scl	2;	.type	32;	.endef
	.seh_proc	_ZN13FAT32ReadUtil17getNextEntryIndexEPK10FAT32Entrym
_ZN13FAT32ReadUtil17getNextEntryIndexEPK10FAT32Entrym:
.LFB1365:
	.loc 1 62 0
	.cfi_startproc
	pushq	%rbp
	.seh_pushreg	%rbp
	.cfi_def_cfa_offset 16
	.cfi_offset 6, -16
	movq	%rsp, %rbp
	.seh_setframe	%rbp, 0
	.cfi_def_cfa_register 6
	subq	$32, %rsp
	.seh_stackalloc	32
	.seh_endprologue
	movq	%rcx, 16(%rbp)
	movq	%rdx, 24(%rbp)
	.loc 1 63 0
	movq	24(%rbp), %rax
	leaq	0(,%rax,4), %rdx
	movq	16(%rbp), %rax
	addq	%rdx, %rax
	movq	%rax, %rcx
	call	_ZNK10FAT32Entry8getAsIntEv
	movl	%eax, %eax
	.loc 1 64 0
	addq	$32, %rsp
	popq	%rbp
	.cfi_restore 6
	.cfi_def_cfa 7, 8
	ret
	.cfi_endproc
.LFE1365:
	.seh_endproc
	.align 2
	.globl	_ZN13FAT32ReadUtil19getLastClusterIndexEPK10FAT32Entrym
	.def	_ZN13FAT32ReadUtil19getLastClusterIndexEPK10FAT32Entrym;	.scl	2;	.type	32;	.endef
	.seh_proc	_ZN13FAT32ReadUtil19getLastClusterIndexEPK10FAT32Entrym
_ZN13FAT32ReadUtil19getLastClusterIndexEPK10FAT32Entrym:
.LFB1366:
	.loc 1 66 0
	.cfi_startproc
	pushq	%rbp
	.seh_pushreg	%rbp
	.cfi_def_cfa_offset 16
	.cfi_offset 6, -16
	movq	%rsp, %rbp
	.seh_setframe	%rbp, 0
	.cfi_def_cfa_register 6
	subq	$32, %rsp
	.seh_stackalloc	32
	.seh_endprologue
	movq	%rcx, 16(%rbp)
	movq	%rdx, 24(%rbp)
	.loc 1 67 0
	cmpq	$1, 24(%rbp)
	ja	.L38
	.loc 1 68 0
	movq	$-1, %rax
	jmp	.L39
.L38:
	.loc 1 69 0
	movq	24(%rbp), %rax
	leaq	0(,%rax,4), %rdx
	movq	16(%rbp), %rax
	addq	%rdx, %rax
	movq	%rax, %rcx
	call	_ZNK10FAT32Entry6isLastEv
	testb	%al, %al
	je	.L40
	.loc 1 70 0
	addq	$1, 24(%rbp)
	.loc 1 69 0
	jmp	.L38
.L40:
	.loc 1 71 0
	movq	24(%rbp), %rax
.L39:
	.loc 1 72 0
	addq	$32, %rsp
	popq	%rbp
	.cfi_restore 6
	.cfi_def_cfa 7, 8
	ret
	.cfi_endproc
.LFE1366:
	.seh_endproc
	.align 2
	.globl	_ZN13FAT32ReadUtil25findFirstFreeClusterIndexEPK10FAT32Entrymm
	.def	_ZN13FAT32ReadUtil25findFirstFreeClusterIndexEPK10FAT32Entrymm;	.scl	2;	.type	32;	.endef
	.seh_proc	_ZN13FAT32ReadUtil25findFirstFreeClusterIndexEPK10FAT32Entrymm
_ZN13FAT32ReadUtil25findFirstFreeClusterIndexEPK10FAT32Entrymm:
.LFB1367:
	.loc 1 75 0
	.cfi_startproc
	pushq	%rbp
	.seh_pushreg	%rbp
	.cfi_def_cfa_offset 16
	.cfi_offset 6, -16
	movq	%rsp, %rbp
	.seh_setframe	%rbp, 0
	.cfi_def_cfa_register 6
	subq	$32, %rsp
	.seh_stackalloc	32
	.seh_endprologue
	movq	%rcx, 16(%rbp)
	movq	%rdx, 24(%rbp)
	movq	%r8, 32(%rbp)
	.loc 1 76 0
	cmpq	$1, 32(%rbp)
	ja	.L42
	.loc 1 77 0
	movq	$2, 32(%rbp)
.L42:
	.loc 1 78 0
	movq	32(%rbp), %rax
	cmpq	24(%rbp), %rax
	je	.L43
	.loc 1 78 0 is_stmt 0 discriminator 1
	movq	32(%rbp), %rax
	leaq	0(,%rax,4), %rdx
	movq	16(%rbp), %rax
	addq	%rdx, %rax
	movq	%rax, %rcx
	call	_ZNK10FAT32Entry6isFreeEv
	xorl	$1, %eax
	testb	%al, %al
	je	.L43
	.loc 1 78 0 discriminator 3
	movl	$1, %eax
	jmp	.L44
.L43:
	.loc 1 78 0 discriminator 4
	movl	$0, %eax
.L44:
	.loc 1 78 0 discriminator 6
	testb	%al, %al
	je	.L45
	.loc 1 79 0 is_stmt 1
	addq	$1, 32(%rbp)
	.loc 1 78 0
	jmp	.L42
.L45:
	.loc 1 80 0
	movq	32(%rbp), %rax
	cmpq	24(%rbp), %rax
	je	.L46
	.loc 1 80 0 is_stmt 0 discriminator 1
	movq	32(%rbp), %rax
	jmp	.L48
.L46:
	.loc 1 80 0 discriminator 2
	movq	$-1, %rax
.L48:
	.loc 1 81 0 is_stmt 1 discriminator 5
	addq	$32, %rsp
	popq	%rbp
	.cfi_restore 6
	.cfi_def_cfa 7, 8
	ret
	.cfi_endproc
.LFE1367:
	.seh_endproc
	.section	.text$_ZSt4moveIR6VectorIPK11FATDirEntryEEONSt16remove_referenceIT_E4typeEOS7_,"x"
	.linkonce discard
	.globl	_ZSt4moveIR6VectorIPK11FATDirEntryEEONSt16remove_referenceIT_E4typeEOS7_
	.def	_ZSt4moveIR6VectorIPK11FATDirEntryEEONSt16remove_referenceIT_E4typeEOS7_;	.scl	2;	.type	32;	.endef
	.seh_proc	_ZSt4moveIR6VectorIPK11FATDirEntryEEONSt16remove_referenceIT_E4typeEOS7_
_ZSt4moveIR6VectorIPK11FATDirEntryEEONSt16remove_referenceIT_E4typeEOS7_:
.LFB1369:
	.loc 2 101 0
	.cfi_startproc
	pushq	%rbp
	.seh_pushreg	%rbp
	.cfi_def_cfa_offset 16
	.cfi_offset 6, -16
	movq	%rsp, %rbp
	.seh_setframe	%rbp, 0
	.cfi_def_cfa_register 6
	.seh_endprologue
	movq	%rcx, 16(%rbp)
	.loc 2 102 0
	movq	16(%rbp), %rax
	popq	%rbp
	.cfi_restore 6
	.cfi_def_cfa 7, 8
	ret
	.cfi_endproc
.LFE1369:
	.seh_endproc
	.text
	.align 2
	.globl	_ZN13FAT32ReadUtil22filterInDirFileEntriesERK6VectorI11FATDirEntryE
	.def	_ZN13FAT32ReadUtil22filterInDirFileEntriesERK6VectorI11FATDirEntryE;	.scl	2;	.type	32;	.endef
	.seh_proc	_ZN13FAT32ReadUtil22filterInDirFileEntriesERK6VectorI11FATDirEntryE
_ZN13FAT32ReadUtil22filterInDirFileEntriesERK6VectorI11FATDirEntryE:
.LFB1368:
	.loc 1 83 0
	.cfi_startproc
	pushq	%rbp
	.seh_pushreg	%rbp
	.cfi_def_cfa_offset 16
	.cfi_offset 6, -16
	movq	%rsp, %rbp
	.seh_setframe	%rbp, 0
	.cfi_def_cfa_register 6
	subq	$64, %rsp
	.seh_stackalloc	64
	.seh_endprologue
	movq	%rcx, 16(%rbp)
	movq	%rdx, 24(%rbp)
	.loc 1 84 0
	leaq	-32(%rbp), %rax
	movl	$0, %edx
	movq	%rax, %rcx
	call	_ZN6VectorIPK11FATDirEntryEC1Em
.LBB5:
	.loc 1 85 0
	movq	$0, -8(%rbp)
.L56:
	.loc 1 85 0 is_stmt 0 discriminator 1
	movq	24(%rbp), %rax
	movq	%rax, %rcx
	call	_ZNK6VectorI11FATDirEntryE7getSizeEv
	cmpq	-8(%rbp), %rax
	setne	%al
	testb	%al, %al
	je	.L52
	.loc 1 87 0 is_stmt 1
	movq	-8(%rbp), %rdx
	movq	24(%rbp), %rax
	movq	%rax, %rcx
	call	_ZNK6VectorI11FATDirEntryEixEm
	movq	%rax, %rcx
	call	_ZNK11FATDirEntry19uni_isLongNameEntryEv
	xorl	$1, %eax
	testb	%al, %al
	je	.L53
	.loc 1 87 0 is_stmt 0 discriminator 1
	movq	-8(%rbp), %rdx
	movq	24(%rbp), %rax
	movq	%rax, %rcx
	call	_ZNK6VectorI11FATDirEntryEixEm
	movq	%rax, %rcx
	call	_ZNK11FATDirEntry10isVolumeIDEv
	xorl	$1, %eax
	testb	%al, %al
	je	.L53
	.loc 1 87 0 discriminator 3
	movl	$1, %eax
	jmp	.L54
.L53:
	.loc 1 87 0 discriminator 4
	movl	$0, %eax
.L54:
	.loc 1 87 0 discriminator 6
	testb	%al, %al
	je	.L55
	.loc 1 89 0 is_stmt 1
	movq	24(%rbp), %rax
	movq	%rax, %rcx
	call	_ZNK6VectorI11FATDirEntryE7getDataEv
	movq	%rax, %rdx
	movq	-8(%rbp), %rax
	salq	$5, %rax
	addq	%rax, %rdx
	leaq	-32(%rbp), %rax
	movq	%rax, %rcx
	call	_ZN6VectorIPK11FATDirEntryE8pushBackES2_
.L55:
	.loc 1 85 0 discriminator 2
	addq	$1, -8(%rbp)
	jmp	.L56
.L52:
.LBE5:
	.loc 1 92 0
	leaq	-32(%rbp), %rax
	movq	%rax, %rcx
	call	_ZSt4moveIR6VectorIPK11FATDirEntryEEONSt16remove_referenceIT_E4typeEOS7_
	movq	%rax, %rdx
	movq	16(%rbp), %rcx
	call	_ZN6VectorIPK11FATDirEntryEC1EOS3_
	.loc 1 84 0
	leaq	-32(%rbp), %rax
	movq	%rax, %rcx
	call	_ZN6VectorIPK11FATDirEntryED1Ev
	.loc 1 92 0
	nop
	.loc 1 93 0
	movq	16(%rbp), %rax
	addq	$64, %rsp
	popq	%rbp
	.cfi_restore 6
	.cfi_def_cfa 7, 8
	ret
	.cfi_endproc
.LFE1368:
	.seh_endproc
	.section	.text$_ZN6VectorI11FATDirEntryEC1Em,"x"
	.linkonce discard
	.align 2
	.globl	_ZN6VectorI11FATDirEntryEC1Em
	.def	_ZN6VectorI11FATDirEntryEC1Em;	.scl	2;	.type	32;	.endef
	.seh_proc	_ZN6VectorI11FATDirEntryEC1Em
_ZN6VectorI11FATDirEntryEC1Em:
.LFB1576:
	.file 3 "D:\\Pool\\eclipse-workspace_aarch64\\newspace\\raspiOS\\include/templates_implementation/data_structures/Vector.h"
	.loc 3 15 0
	.cfi_startproc
	pushq	%rbp
	.seh_pushreg	%rbp
	.cfi_def_cfa_offset 16
	.cfi_offset 6, -16
	movq	%rsp, %rbp
	.seh_setframe	%rbp, 0
	.cfi_def_cfa_register 6
	subq	$32, %rsp
	.seh_stackalloc	32
	.seh_endprologue
	movq	%rcx, 16(%rbp)
	movq	%rdx, 24(%rbp)
.LBB6:
	.loc 3 16 0
	movq	16(%rbp), %rax
	movq	$0, (%rax)
	movq	16(%rbp), %rax
	movq	$0, 8(%rax)
	movq	16(%rbp), %rax
	movq	$0, 16(%rax)
	.loc 3 18 0
	movl	$8, %eax
	cmpq	$8, 24(%rbp)
	cmovnb	24(%rbp), %rax
	movq	%rax, %rdx
	movq	16(%rbp), %rcx
	call	_ZN6VectorI11FATDirEntryE14resizeCapacityEm
	testb	%al, %al
	je	.L60
	.loc 3 20 0
	movq	16(%rbp), %rax
	movq	24(%rbp), %rdx
	movq	%rdx, 16(%rax)
.L60:
.LBE6:
	.loc 3 22 0
	nop
	addq	$32, %rsp
	popq	%rbp
	.cfi_restore 6
	.cfi_def_cfa 7, 8
	ret
	.cfi_endproc
.LFE1576:
	.seh_endproc
	.section	.text$_ZN6VectorI11FATDirEntryED1Ev,"x"
	.linkonce discard
	.align 2
	.globl	_ZN6VectorI11FATDirEntryED1Ev
	.def	_ZN6VectorI11FATDirEntryED1Ev;	.scl	2;	.type	32;	.endef
	.seh_proc	_ZN6VectorI11FATDirEntryED1Ev
_ZN6VectorI11FATDirEntryED1Ev:
.LFB1579:
	.loc 3 53 0
	.cfi_startproc
	pushq	%rbp
	.seh_pushreg	%rbp
	.cfi_def_cfa_offset 16
	.cfi_offset 6, -16
	movq	%rsp, %rbp
	.seh_setframe	%rbp, 0
	.cfi_def_cfa_register 6
	subq	$32, %rsp
	.seh_stackalloc	32
	.seh_endprologue
	movq	%rcx, 16(%rbp)
.LBB7:
	.loc 3 55 0
	movq	16(%rbp), %rax
	movq	(%rax), %rax
	testq	%rax, %rax
	je	.L63
	.loc 3 57 0
	movq	16(%rbp), %rax
	movq	(%rax), %rax
	movq	%rax, %rdx
	movq	.refptr.mman(%rip), %rcx
	call	_ZN13MemoryManager10deallocateEPv
	.loc 3 58 0
	movq	16(%rbp), %rax
	movq	$0, (%rax)
.L63:
.LBE7:
	.loc 3 60 0
	nop
	addq	$32, %rsp
	popq	%rbp
	.cfi_restore 6
	.cfi_def_cfa 7, 8
	ret
	.cfi_endproc
.LFE1579:
	.seh_endproc
	.section	.text$_ZN6VectorI11FATDirEntryE7getDataEv,"x"
	.linkonce discard
	.align 2
	.globl	_ZN6VectorI11FATDirEntryE7getDataEv
	.def	_ZN6VectorI11FATDirEntryE7getDataEv;	.scl	2;	.type	32;	.endef
	.seh_proc	_ZN6VectorI11FATDirEntryE7getDataEv
_ZN6VectorI11FATDirEntryE7getDataEv:
.LFB1580:
	.loc 3 91 0
	.cfi_startproc
	pushq	%rbp
	.seh_pushreg	%rbp
	.cfi_def_cfa_offset 16
	.cfi_offset 6, -16
	movq	%rsp, %rbp
	.seh_setframe	%rbp, 0
	.cfi_def_cfa_register 6
	.seh_endprologue
	movq	%rcx, 16(%rbp)
	.loc 3 93 0
	movq	16(%rbp), %rax
	movq	(%rax), %rax
	.loc 3 94 0
	popq	%rbp
	.cfi_restore 6
	.cfi_def_cfa 7, 8
	ret
	.cfi_endproc
.LFE1580:
	.seh_endproc
	.section	.text$_ZNK6VectorI10FAT32EntryEixEm,"x"
	.linkonce discard
	.align 2
	.globl	_ZNK6VectorI10FAT32EntryEixEm
	.def	_ZNK6VectorI10FAT32EntryEixEm;	.scl	2;	.type	32;	.endef
	.seh_proc	_ZNK6VectorI10FAT32EntryEixEm
_ZNK6VectorI10FAT32EntryEixEm:
.LFB1581:
	.loc 3 63 0
	.cfi_startproc
	pushq	%rbp
	.seh_pushreg	%rbp
	.cfi_def_cfa_offset 16
	.cfi_offset 6, -16
	movq	%rsp, %rbp
	.seh_setframe	%rbp, 0
	.cfi_def_cfa_register 6
	.seh_endprologue
	movq	%rcx, 16(%rbp)
	movq	%rdx, 24(%rbp)
	.loc 3 65 0
	movq	16(%rbp), %rax
	movq	(%rax), %rax
	movq	24(%rbp), %rdx
	salq	$2, %rdx
	addq	%rdx, %rax
	.loc 3 66 0
	popq	%rbp
	.cfi_restore 6
	.cfi_def_cfa 7, 8
	ret
	.cfi_endproc
.LFE1581:
	.seh_endproc
	.section	.text$_ZN6VectorI11FATDirEntryEC1EOS1_,"x"
	.linkonce discard
	.align 2
	.globl	_ZN6VectorI11FATDirEntryEC1EOS1_
	.def	_ZN6VectorI11FATDirEntryEC1EOS1_;	.scl	2;	.type	32;	.endef
	.seh_proc	_ZN6VectorI11FATDirEntryEC1EOS1_
_ZN6VectorI11FATDirEntryEC1EOS1_:
.LFB1584:
	.loc 3 32 0
	.cfi_startproc
	pushq	%rbp
	.seh_pushreg	%rbp
	.cfi_def_cfa_offset 16
	.cfi_offset 6, -16
	movq	%rsp, %rbp
	.seh_setframe	%rbp, 0
	.cfi_def_cfa_register 6
	.seh_endprologue
	movq	%rcx, 16(%rbp)
	movq	%rdx, 24(%rbp)
.LBB8:
	.loc 3 33 0
	movq	24(%rbp), %rax
	movq	(%rax), %rdx
	movq	16(%rbp), %rax
	movq	%rdx, (%rax)
	movq	24(%rbp), %rax
	movq	8(%rax), %rdx
	movq	16(%rbp), %rax
	movq	%rdx, 8(%rax)
	movq	24(%rbp), %rax
	movq	16(%rax), %rdx
	movq	16(%rbp), %rax
	movq	%rdx, 16(%rax)
	.loc 3 35 0
	movq	24(%rbp), %rax
	movq	$0, (%rax)
	.loc 3 36 0
	movq	24(%rbp), %rax
	movq	$0, 8(%rax)
	.loc 3 37 0
	movq	24(%rbp), %rax
	movq	$0, 16(%rax)
.LBE8:
	.loc 3 38 0
	nop
	popq	%rbp
	.cfi_restore 6
	.cfi_def_cfa 7, 8
	ret
	.cfi_endproc
.LFE1584:
	.seh_endproc
	.section	.text$_ZN6VectorIPK11FATDirEntryEC1Em,"x"
	.linkonce discard
	.align 2
	.globl	_ZN6VectorIPK11FATDirEntryEC1Em
	.def	_ZN6VectorIPK11FATDirEntryEC1Em;	.scl	2;	.type	32;	.endef
	.seh_proc	_ZN6VectorIPK11FATDirEntryEC1Em
_ZN6VectorIPK11FATDirEntryEC1Em:
.LFB1587:
	.loc 3 15 0
	.cfi_startproc
	pushq	%rbp
	.seh_pushreg	%rbp
	.cfi_def_cfa_offset 16
	.cfi_offset 6, -16
	movq	%rsp, %rbp
	.seh_setframe	%rbp, 0
	.cfi_def_cfa_register 6
	subq	$32, %rsp
	.seh_stackalloc	32
	.seh_endprologue
	movq	%rcx, 16(%rbp)
	movq	%rdx, 24(%rbp)
.LBB9:
	.loc 3 16 0
	movq	16(%rbp), %rax
	movq	$0, (%rax)
	movq	16(%rbp), %rax
	movq	$0, 8(%rax)
	movq	16(%rbp), %rax
	movq	$0, 16(%rax)
	.loc 3 18 0
	movl	$8, %eax
	cmpq	$8, 24(%rbp)
	cmovnb	24(%rbp), %rax
	movq	%rax, %rdx
	movq	16(%rbp), %rcx
	call	_ZN6VectorIPK11FATDirEntryE14resizeCapacityEm
	testb	%al, %al
	je	.L71
	.loc 3 20 0
	movq	16(%rbp), %rax
	movq	24(%rbp), %rdx
	movq	%rdx, 16(%rax)
.L71:
.LBE9:
	.loc 3 22 0
	nop
	addq	$32, %rsp
	popq	%rbp
	.cfi_restore 6
	.cfi_def_cfa 7, 8
	ret
	.cfi_endproc
.LFE1587:
	.seh_endproc
	.section	.text$_ZN6VectorIPK11FATDirEntryED1Ev,"x"
	.linkonce discard
	.align 2
	.globl	_ZN6VectorIPK11FATDirEntryED1Ev
	.def	_ZN6VectorIPK11FATDirEntryED1Ev;	.scl	2;	.type	32;	.endef
	.seh_proc	_ZN6VectorIPK11FATDirEntryED1Ev
_ZN6VectorIPK11FATDirEntryED1Ev:
.LFB1590:
	.loc 3 53 0
	.cfi_startproc
	pushq	%rbp
	.seh_pushreg	%rbp
	.cfi_def_cfa_offset 16
	.cfi_offset 6, -16
	movq	%rsp, %rbp
	.seh_setframe	%rbp, 0
	.cfi_def_cfa_register 6
	subq	$32, %rsp
	.seh_stackalloc	32
	.seh_endprologue
	movq	%rcx, 16(%rbp)
.LBB10:
	.loc 3 55 0
	movq	16(%rbp), %rax
	movq	(%rax), %rax
	testq	%rax, %rax
	je	.L74
	.loc 3 57 0
	movq	16(%rbp), %rax
	movq	(%rax), %rax
	movq	%rax, %rdx
	movq	.refptr.mman(%rip), %rcx
	call	_ZN13MemoryManager10deallocateEPv
	.loc 3 58 0
	movq	16(%rbp), %rax
	movq	$0, (%rax)
.L74:
.LBE10:
	.loc 3 60 0
	nop
	addq	$32, %rsp
	popq	%rbp
	.cfi_restore 6
	.cfi_def_cfa 7, 8
	ret
	.cfi_endproc
.LFE1590:
	.seh_endproc
	.section	.text$_ZNK6VectorI11FATDirEntryE7getSizeEv,"x"
	.linkonce discard
	.align 2
	.globl	_ZNK6VectorI11FATDirEntryE7getSizeEv
	.def	_ZNK6VectorI11FATDirEntryE7getSizeEv;	.scl	2;	.type	32;	.endef
	.seh_proc	_ZNK6VectorI11FATDirEntryE7getSizeEv
_ZNK6VectorI11FATDirEntryE7getSizeEv:
.LFB1591:
	.loc 3 103 0
	.cfi_startproc
	pushq	%rbp
	.seh_pushreg	%rbp
	.cfi_def_cfa_offset 16
	.cfi_offset 6, -16
	movq	%rsp, %rbp
	.seh_setframe	%rbp, 0
	.cfi_def_cfa_register 6
	.seh_endprologue
	movq	%rcx, 16(%rbp)
	.loc 3 105 0
	movq	16(%rbp), %rax
	movq	16(%rax), %rax
	.loc 3 106 0
	popq	%rbp
	.cfi_restore 6
	.cfi_def_cfa 7, 8
	ret
	.cfi_endproc
.LFE1591:
	.seh_endproc
	.section	.text$_ZNK6VectorI11FATDirEntryEixEm,"x"
	.linkonce discard
	.align 2
	.globl	_ZNK6VectorI11FATDirEntryEixEm
	.def	_ZNK6VectorI11FATDirEntryEixEm;	.scl	2;	.type	32;	.endef
	.seh_proc	_ZNK6VectorI11FATDirEntryEixEm
_ZNK6VectorI11FATDirEntryEixEm:
.LFB1592:
	.loc 3 63 0
	.cfi_startproc
	pushq	%rbp
	.seh_pushreg	%rbp
	.cfi_def_cfa_offset 16
	.cfi_offset 6, -16
	movq	%rsp, %rbp
	.seh_setframe	%rbp, 0
	.cfi_def_cfa_register 6
	.seh_endprologue
	movq	%rcx, 16(%rbp)
	movq	%rdx, 24(%rbp)
	.loc 3 65 0
	movq	16(%rbp), %rax
	movq	(%rax), %rax
	movq	24(%rbp), %rdx
	salq	$5, %rdx
	addq	%rdx, %rax
	.loc 3 66 0
	popq	%rbp
	.cfi_restore 6
	.cfi_def_cfa 7, 8
	ret
	.cfi_endproc
.LFE1592:
	.seh_endproc
	.section	.text$_ZNK6VectorI11FATDirEntryE7getDataEv,"x"
	.linkonce discard
	.align 2
	.globl	_ZNK6VectorI11FATDirEntryE7getDataEv
	.def	_ZNK6VectorI11FATDirEntryE7getDataEv;	.scl	2;	.type	32;	.endef
	.seh_proc	_ZNK6VectorI11FATDirEntryE7getDataEv
_ZNK6VectorI11FATDirEntryE7getDataEv:
.LFB1593:
	.loc 3 97 0
	.cfi_startproc
	pushq	%rbp
	.seh_pushreg	%rbp
	.cfi_def_cfa_offset 16
	.cfi_offset 6, -16
	movq	%rsp, %rbp
	.seh_setframe	%rbp, 0
	.cfi_def_cfa_register 6
	.seh_endprologue
	movq	%rcx, 16(%rbp)
	.loc 3 99 0
	movq	16(%rbp), %rax
	movq	(%rax), %rax
	.loc 3 100 0
	popq	%rbp
	.cfi_restore 6
	.cfi_def_cfa 7, 8
	ret
	.cfi_endproc
.LFE1593:
	.seh_endproc
	.section	.text$_ZN6VectorIPK11FATDirEntryE8pushBackES2_,"x"
	.linkonce discard
	.align 2
	.globl	_ZN6VectorIPK11FATDirEntryE8pushBackES2_
	.def	_ZN6VectorIPK11FATDirEntryE8pushBackES2_;	.scl	2;	.type	32;	.endef
	.seh_proc	_ZN6VectorIPK11FATDirEntryE8pushBackES2_
_ZN6VectorIPK11FATDirEntryE8pushBackES2_:
.LFB1594:
	.loc 3 81 0
	.cfi_startproc
	pushq	%rbp
	.seh_pushreg	%rbp
	.cfi_def_cfa_offset 16
	.cfi_offset 6, -16
	movq	%rsp, %rbp
	.seh_setframe	%rbp, 0
	.cfi_def_cfa_register 6
	subq	$32, %rsp
	.seh_stackalloc	32
	.seh_endprologue
	movq	%rcx, 16(%rbp)
	movq	%rdx, 24(%rbp)
	.loc 3 83 0
	movq	16(%rbp), %rcx
	call	_ZN6VectorIPK11FATDirEntryE24adjustCapacityForOneMoreEv
	testb	%al, %al
	je	.L83
	.loc 3 85 0
	movq	16(%rbp), %rax
	movq	16(%rax), %rax
	leaq	1(%rax), %rdx
	movq	16(%rbp), %rax
	movq	%rdx, 16(%rax)
	.loc 3 86 0
	movq	16(%rbp), %rax
	movq	(%rax), %rdx
	movq	16(%rbp), %rax
	movq	16(%rax), %rax
	salq	$3, %rax
	subq	$8, %rax
	addq	%rax, %rdx
	movq	24(%rbp), %rax
	movq	%rax, (%rdx)
.L83:
	.loc 3 88 0
	nop
	addq	$32, %rsp
	popq	%rbp
	.cfi_restore 6
	.cfi_def_cfa 7, 8
	ret
	.cfi_endproc
.LFE1594:
	.seh_endproc
	.section	.text$_ZN6VectorIPK11FATDirEntryEC1EOS3_,"x"
	.linkonce discard
	.align 2
	.globl	_ZN6VectorIPK11FATDirEntryEC1EOS3_
	.def	_ZN6VectorIPK11FATDirEntryEC1EOS3_;	.scl	2;	.type	32;	.endef
	.seh_proc	_ZN6VectorIPK11FATDirEntryEC1EOS3_
_ZN6VectorIPK11FATDirEntryEC1EOS3_:
.LFB1597:
	.loc 3 32 0
	.cfi_startproc
	pushq	%rbp
	.seh_pushreg	%rbp
	.cfi_def_cfa_offset 16
	.cfi_offset 6, -16
	movq	%rsp, %rbp
	.seh_setframe	%rbp, 0
	.cfi_def_cfa_register 6
	.seh_endprologue
	movq	%rcx, 16(%rbp)
	movq	%rdx, 24(%rbp)
.LBB11:
	.loc 3 33 0
	movq	24(%rbp), %rax
	movq	(%rax), %rdx
	movq	16(%rbp), %rax
	movq	%rdx, (%rax)
	movq	24(%rbp), %rax
	movq	8(%rax), %rdx
	movq	16(%rbp), %rax
	movq	%rdx, 8(%rax)
	movq	24(%rbp), %rax
	movq	16(%rax), %rdx
	movq	16(%rbp), %rax
	movq	%rdx, 16(%rax)
	.loc 3 35 0
	movq	24(%rbp), %rax
	movq	$0, (%rax)
	.loc 3 36 0
	movq	24(%rbp), %rax
	movq	$0, 8(%rax)
	.loc 3 37 0
	movq	24(%rbp), %rax
	movq	$0, 16(%rax)
.LBE11:
	.loc 3 38 0
	nop
	popq	%rbp
	.cfi_restore 6
	.cfi_def_cfa 7, 8
	ret
	.cfi_endproc
.LFE1597:
	.seh_endproc
	.section	.text$_ZN6VectorI11FATDirEntryE14resizeCapacityEm,"x"
	.linkonce discard
	.align 2
	.globl	_ZN6VectorI11FATDirEntryE14resizeCapacityEm
	.def	_ZN6VectorI11FATDirEntryE14resizeCapacityEm;	.scl	2;	.type	32;	.endef
	.seh_proc	_ZN6VectorI11FATDirEntryE14resizeCapacityEm
_ZN6VectorI11FATDirEntryE14resizeCapacityEm:
.LFB1676:
	.loc 3 167 0
	.cfi_startproc
	pushq	%rbp
	.seh_pushreg	%rbp
	.cfi_def_cfa_offset 16
	.cfi_offset 6, -16
	movq	%rsp, %rbp
	.seh_setframe	%rbp, 0
	.cfi_def_cfa_register 6
	subq	$48, %rsp
	.seh_stackalloc	48
	.seh_endprologue
	movq	%rcx, 16(%rbp)
	movq	%rdx, 24(%rbp)
	.loc 3 169 0
	movq	16(%rbp), %rax
	movq	8(%rax), %rax
	cmpq	24(%rbp), %rax
	jne	.L86
	.loc 3 170 0
	movl	$1, %eax
	jmp	.L87
.L86:
	.loc 3 171 0
	movq	24(%rbp), %rax
	salq	$5, %rax
	movq	%rax, %rdx
	movq	16(%rbp), %rax
	movq	(%rax), %rax
	movq	$-1, %r9
	movq	%rdx, %r8
	movq	%rax, %rdx
	movq	.refptr.mman(%rip), %rcx
	call	_ZN13MemoryManager10reallocateEPvmm
	.loc 3 172 0
	movq	24(%rbp), %rax
	salq	$5, %rax
	movq	%rax, %rdx
	movq	.refptr.mman(%rip), %rcx
	call	_ZN13MemoryManager10allocateAsIP11FATDirEntryEET_m
	movq	%rax, -16(%rbp)
	.loc 3 173 0
	cmpq	$0, -16(%rbp)
	jne	.L88
	.loc 3 174 0
	movl	$0, %eax
	jmp	.L87
.L88:
.LBB12:
	.loc 3 176 0
	movq	$0, -8(%rbp)
.L90:
	.loc 3 176 0 is_stmt 0 discriminator 3
	movq	16(%rbp), %rax
	movq	16(%rax), %rax
	cmpq	-8(%rbp), %rax
	je	.L89
	.loc 3 177 0 is_stmt 1 discriminator 2
	movq	-8(%rbp), %rax
	salq	$5, %rax
	movq	%rax, %rdx
	movq	-16(%rbp), %rax
	addq	%rdx, %rax
	movq	16(%rbp), %rdx
	movq	(%rdx), %rdx
	movq	-8(%rbp), %rcx
	salq	$5, %rcx
	addq	%rcx, %rdx
	movq	(%rdx), %rcx
	movq	%rcx, (%rax)
	movq	8(%rdx), %rcx
	movq	%rcx, 8(%rax)
	movq	16(%rdx), %rcx
	movq	%rcx, 16(%rax)
	movq	24(%rdx), %rdx
	movq	%rdx, 24(%rax)
	.loc 3 176 0 discriminator 2
	addq	$1, -8(%rbp)
	jmp	.L90
.L89:
.LBE12:
	.loc 3 178 0
	movq	16(%rbp), %rax
	movq	(%rax), %rax
	movq	%rax, %rdx
	movq	.refptr.mman(%rip), %rcx
	call	_ZN13MemoryManager10deallocateEPv
	.loc 3 181 0
	movq	16(%rbp), %rax
	movq	-16(%rbp), %rdx
	movq	%rdx, (%rax)
	.loc 3 182 0
	movq	16(%rbp), %rax
	movq	24(%rbp), %rdx
	movq	%rdx, 8(%rax)
	.loc 3 183 0
	movl	$1, %eax
.L87:
	.loc 3 184 0
	addq	$48, %rsp
	popq	%rbp
	.cfi_restore 6
	.cfi_def_cfa 7, 8
	ret
	.cfi_endproc
.LFE1676:
	.seh_endproc
	.section	.text$_ZN6VectorIPK11FATDirEntryE14resizeCapacityEm,"x"
	.linkonce discard
	.align 2
	.globl	_ZN6VectorIPK11FATDirEntryE14resizeCapacityEm
	.def	_ZN6VectorIPK11FATDirEntryE14resizeCapacityEm;	.scl	2;	.type	32;	.endef
	.seh_proc	_ZN6VectorIPK11FATDirEntryE14resizeCapacityEm
_ZN6VectorIPK11FATDirEntryE14resizeCapacityEm:
.LFB1677:
	.loc 3 167 0
	.cfi_startproc
	pushq	%rbp
	.seh_pushreg	%rbp
	.cfi_def_cfa_offset 16
	.cfi_offset 6, -16
	movq	%rsp, %rbp
	.seh_setframe	%rbp, 0
	.cfi_def_cfa_register 6
	subq	$48, %rsp
	.seh_stackalloc	48
	.seh_endprologue
	movq	%rcx, 16(%rbp)
	movq	%rdx, 24(%rbp)
	.loc 3 169 0
	movq	16(%rbp), %rax
	movq	8(%rax), %rax
	cmpq	24(%rbp), %rax
	jne	.L92
	.loc 3 170 0
	movl	$1, %eax
	jmp	.L93
.L92:
	.loc 3 171 0
	movq	24(%rbp), %rax
	leaq	0(,%rax,8), %rdx
	movq	16(%rbp), %rax
	movq	(%rax), %rax
	movq	$-1, %r9
	movq	%rdx, %r8
	movq	%rax, %rdx
	movq	.refptr.mman(%rip), %rcx
	call	_ZN13MemoryManager10reallocateEPvmm
	.loc 3 172 0
	movq	24(%rbp), %rax
	salq	$3, %rax
	movq	%rax, %rdx
	movq	.refptr.mman(%rip), %rcx
	call	_ZN13MemoryManager10allocateAsIPPK11FATDirEntryEET_m
	movq	%rax, -16(%rbp)
	.loc 3 173 0
	cmpq	$0, -16(%rbp)
	jne	.L94
	.loc 3 174 0
	movl	$0, %eax
	jmp	.L93
.L94:
.LBB13:
	.loc 3 176 0
	movq	$0, -8(%rbp)
.L96:
	.loc 3 176 0 is_stmt 0 discriminator 3
	movq	16(%rbp), %rax
	movq	16(%rax), %rax
	cmpq	-8(%rbp), %rax
	je	.L95
	.loc 3 177 0 is_stmt 1 discriminator 2
	movq	-8(%rbp), %rax
	leaq	0(,%rax,8), %rdx
	movq	-16(%rbp), %rax
	addq	%rax, %rdx
	movq	16(%rbp), %rax
	movq	(%rax), %rax
	movq	-8(%rbp), %rcx
	salq	$3, %rcx
	addq	%rcx, %rax
	movq	(%rax), %rax
	movq	%rax, (%rdx)
	.loc 3 176 0 discriminator 2
	addq	$1, -8(%rbp)
	jmp	.L96
.L95:
.LBE13:
	.loc 3 178 0
	movq	16(%rbp), %rax
	movq	(%rax), %rax
	movq	%rax, %rdx
	movq	.refptr.mman(%rip), %rcx
	call	_ZN13MemoryManager10deallocateEPv
	.loc 3 181 0
	movq	16(%rbp), %rax
	movq	-16(%rbp), %rdx
	movq	%rdx, (%rax)
	.loc 3 182 0
	movq	16(%rbp), %rax
	movq	24(%rbp), %rdx
	movq	%rdx, 8(%rax)
	.loc 3 183 0
	movl	$1, %eax
.L93:
	.loc 3 184 0
	addq	$48, %rsp
	popq	%rbp
	.cfi_restore 6
	.cfi_def_cfa 7, 8
	ret
	.cfi_endproc
.LFE1677:
	.seh_endproc
	.section	.text$_ZN6VectorIPK11FATDirEntryE24adjustCapacityForOneMoreEv,"x"
	.linkonce discard
	.align 2
	.globl	_ZN6VectorIPK11FATDirEntryE24adjustCapacityForOneMoreEv
	.def	_ZN6VectorIPK11FATDirEntryE24adjustCapacityForOneMoreEv;	.scl	2;	.type	32;	.endef
	.seh_proc	_ZN6VectorIPK11FATDirEntryE24adjustCapacityForOneMoreEv
_ZN6VectorIPK11FATDirEntryE24adjustCapacityForOneMoreEv:
.LFB1678:
	.loc 3 187 0
	.cfi_startproc
	pushq	%rbp
	.seh_pushreg	%rbp
	.cfi_def_cfa_offset 16
	.cfi_offset 6, -16
	movq	%rsp, %rbp
	.seh_setframe	%rbp, 0
	.cfi_def_cfa_register 6
	subq	$32, %rsp
	.seh_stackalloc	32
	.seh_endprologue
	movq	%rcx, 16(%rbp)
	.loc 3 189 0
	movq	16(%rbp), %rax
	movq	16(%rax), %rax
	leaq	1(%rax), %rdx
	movq	16(%rbp), %rax
	movq	8(%rax), %rax
	cmpq	%rax, %rdx
	jbe	.L98
	.loc 3 190 0
	movq	16(%rbp), %rax
	movq	8(%rax), %rax
	movq	%rax, %rcx
	call	_ZN6VectorIPK11FATDirEntryE18getIncrementalSizeEm
	movq	%rax, %rdx
	movq	16(%rbp), %rcx
	call	_ZN6VectorIPK11FATDirEntryE14resizeCapacityEm
	jmp	.L99
.L98:
	.loc 3 191 0
	movl	$1, %eax
.L99:
	.loc 3 192 0
	addq	$32, %rsp
	popq	%rbp
	.cfi_restore 6
	.cfi_def_cfa 7, 8
	ret
	.cfi_endproc
.LFE1678:
	.seh_endproc
	.section	.text$_ZN13MemoryManager10allocateAsIP11FATDirEntryEET_m,"x"
	.linkonce discard
	.align 2
	.globl	_ZN13MemoryManager10allocateAsIP11FATDirEntryEET_m
	.def	_ZN13MemoryManager10allocateAsIP11FATDirEntryEET_m;	.scl	2;	.type	32;	.endef
	.seh_proc	_ZN13MemoryManager10allocateAsIP11FATDirEntryEET_m
_ZN13MemoryManager10allocateAsIP11FATDirEntryEET_m:
.LFB1707:
	.file 4 "D:\\Pool\\eclipse-workspace_aarch64\\newspace\\raspiOS\\include/templates_implementation/MemoryManager.h"
	.loc 4 15 0
	.cfi_startproc
	pushq	%rbp
	.seh_pushreg	%rbp
	.cfi_def_cfa_offset 16
	.cfi_offset 6, -16
	movq	%rsp, %rbp
	.seh_setframe	%rbp, 0
	.cfi_def_cfa_register 6
	subq	$32, %rsp
	.seh_stackalloc	32
	.seh_endprologue
	movq	%rcx, 16(%rbp)
	movq	%rdx, 24(%rbp)
	.loc 4 17 0
	movq	24(%rbp), %rax
	movq	%rax, %rdx
	movq	16(%rbp), %rcx
	call	_ZN13MemoryManager8allocateEm
	.loc 4 18 0
	addq	$32, %rsp
	popq	%rbp
	.cfi_restore 6
	.cfi_def_cfa 7, 8
	ret
	.cfi_endproc
.LFE1707:
	.seh_endproc
	.section	.text$_ZN13MemoryManager10allocateAsIPPK11FATDirEntryEET_m,"x"
	.linkonce discard
	.align 2
	.globl	_ZN13MemoryManager10allocateAsIPPK11FATDirEntryEET_m
	.def	_ZN13MemoryManager10allocateAsIPPK11FATDirEntryEET_m;	.scl	2;	.type	32;	.endef
	.seh_proc	_ZN13MemoryManager10allocateAsIPPK11FATDirEntryEET_m
_ZN13MemoryManager10allocateAsIPPK11FATDirEntryEET_m:
.LFB1708:
	.loc 4 15 0
	.cfi_startproc
	pushq	%rbp
	.seh_pushreg	%rbp
	.cfi_def_cfa_offset 16
	.cfi_offset 6, -16
	movq	%rsp, %rbp
	.seh_setframe	%rbp, 0
	.cfi_def_cfa_register 6
	subq	$32, %rsp
	.seh_stackalloc	32
	.seh_endprologue
	movq	%rcx, 16(%rbp)
	movq	%rdx, 24(%rbp)
	.loc 4 17 0
	movq	24(%rbp), %rax
	movq	%rax, %rdx
	movq	16(%rbp), %rcx
	call	_ZN13MemoryManager8allocateEm
	.loc 4 18 0
	addq	$32, %rsp
	popq	%rbp
	.cfi_restore 6
	.cfi_def_cfa 7, 8
	ret
	.cfi_endproc
.LFE1708:
	.seh_endproc
	.section	.text$_ZN6VectorIPK11FATDirEntryE18getIncrementalSizeEm,"x"
	.linkonce discard
	.align 2
	.globl	_ZN6VectorIPK11FATDirEntryE18getIncrementalSizeEm
	.def	_ZN6VectorIPK11FATDirEntryE18getIncrementalSizeEm;	.scl	2;	.type	32;	.endef
	.seh_proc	_ZN6VectorIPK11FATDirEntryE18getIncrementalSizeEm
_ZN6VectorIPK11FATDirEntryE18getIncrementalSizeEm:
.LFB1709:
	.loc 3 209 0
	.cfi_startproc
	pushq	%rbp
	.seh_pushreg	%rbp
	.cfi_def_cfa_offset 16
	.cfi_offset 6, -16
	movq	%rsp, %rbp
	.seh_setframe	%rbp, 0
	.cfi_def_cfa_register 6
	.seh_endprologue
	movq	%rcx, 16(%rbp)
	.loc 3 211 0
	movq	16(%rbp), %rdx
	movq	%rdx, %rax
	addq	%rax, %rax
	addq	%rdx, %rax
	shrq	%rax
	.loc 3 212 0
	popq	%rbp
	.cfi_restore 6
	.cfi_def_cfa 7, 8
	ret
	.cfi_endproc
.LFE1709:
	.seh_endproc
	.text
.Letext0:
	.file 5 "/usr/lib/gcc/x86_64-pc-cygwin/6.4.0/include/stddef.h"
	.file 6 "/usr/lib/gcc/x86_64-pc-cygwin/6.4.0/include/c++/cstddef"
	.file 7 "/usr/lib/gcc/x86_64-pc-cygwin/6.4.0/include/c++/cstdint"
	.file 8 "/usr/lib/gcc/x86_64-pc-cygwin/6.4.0/include/c++/initializer_list"
	.file 9 "<built-in>"
	.file 10 "/usr/lib/gcc/x86_64-pc-cygwin/6.4.0/include/c++/bits/exception_ptr.h"
	.file 11 "/usr/lib/gcc/x86_64-pc-cygwin/6.4.0/include/c++/x86_64-pc-cygwin/bits/c++config.h"
	.file 12 "/usr/lib/gcc/x86_64-pc-cygwin/6.4.0/include/c++/new"
	.file 13 "/usr/lib/gcc/x86_64-pc-cygwin/6.4.0/include/c++/bits/stl_pair.h"
	.file 14 "/usr/lib/gcc/x86_64-pc-cygwin/6.4.0/include/c++/type_traits"
	.file 15 "/usr/lib/gcc/x86_64-pc-cygwin/6.4.0/include/c++/debug/debug.h"
	.file 16 "/usr/lib/gcc/x86_64-pc-cygwin/6.4.0/include/c++/cwchar"
	.file 17 "/usr/lib/gcc/x86_64-pc-cygwin/6.4.0/include/c++/bits/char_traits.h"
	.file 18 "/usr/lib/gcc/x86_64-pc-cygwin/6.4.0/include/c++/clocale"
	.file 19 "/usr/lib/gcc/x86_64-pc-cygwin/6.4.0/include/c++/cctype"
	.file 20 "/usr/lib/gcc/x86_64-pc-cygwin/6.4.0/include/c++/cstdlib"
	.file 21 "/usr/lib/gcc/x86_64-pc-cygwin/6.4.0/include/c++/cstdio"
	.file 22 "/usr/lib/gcc/x86_64-pc-cygwin/6.4.0/include/c++/bits/basic_string.h"
	.file 23 "/usr/lib/gcc/x86_64-pc-cygwin/6.4.0/include/c++/bits/basic_string.tcc"
	.file 24 "/usr/lib/gcc/x86_64-pc-cygwin/6.4.0/include/c++/bits/allocator.h"
	.file 25 "/usr/lib/gcc/x86_64-pc-cygwin/6.4.0/include/c++/bits/uses_allocator.h"
	.file 26 "/usr/lib/gcc/x86_64-pc-cygwin/6.4.0/include/c++/tuple"
	.file 27 "/usr/lib/gcc/x86_64-pc-cygwin/6.4.0/include/c++/functional"
	.file 28 "/usr/lib/gcc/x86_64-pc-cygwin/6.4.0/include/c++/bits/stl_iterator_base_types.h"
	.file 29 "/usr/lib/gcc/x86_64-pc-cygwin/6.4.0/include/stdint-gcc.h"
	.file 30 "D:\\Pool\\eclipse-workspace_aarch64\\newspace\\raspiOS\\include/def.h"
	.file 31 "D:\\Pool\\eclipse-workspace_aarch64\\newspace\\raspiOS\\include/filesystem/fat/FAT_BPB.h"
	.file 32 "D:\\Pool\\eclipse-workspace_aarch64\\newspace\\raspiOS\\include/io/SectorReader.h"
	.file 33 "D:\\Pool\\eclipse-workspace_aarch64\\newspace\\raspiOS\\include/io/Output.h"
	.file 34 "D:\\Pool\\eclipse-workspace_aarch64\\newspace\\raspiOS\\include/generic_util.h"
	.file 35 "D:\\Pool\\eclipse-workspace_aarch64\\newspace\\raspiOS\\include/memory/MemoryChunk.h"
	.file 36 "D:\\Pool\\eclipse-workspace_aarch64\\newspace\\raspiOS\\include/memory/MemoryManager.h"
	.file 37 "D:\\Pool\\eclipse-workspace_aarch64\\newspace\\raspiOS\\include/data_structures/Vector.h"
	.file 38 "D:\\Pool\\eclipse-workspace_aarch64\\newspace\\raspiOS\\include/data_structures/String.h"
	.file 39 "D:\\Pool\\eclipse-workspace_aarch64\\newspace\\raspiOS\\include/data_structures/VectorRef.h"
	.file 40 "D:\\Pool\\eclipse-workspace_aarch64\\newspace\\raspiOS\\include/templates_implementation/data_structures/VectorRef.h"
	.file 41 "D:\\Pool\\eclipse-workspace_aarch64\\newspace\\raspiOS\\include/data_structures/StringRef.h"
	.file 42 "D:\\Pool\\eclipse-workspace_aarch64\\newspace\\raspiOS\\include/filesystem/fat/FATDirEntry.h"
	.file 43 "D:\\Pool\\eclipse-workspace_aarch64\\newspace\\raspiOS\\include/filesystem/fat/FAT32ExtBPB.h"
	.file 44 "D:\\Pool\\eclipse-workspace_aarch64\\newspace\\raspiOS\\include/filesystem/fat/FATLongNameEntry.h"
	.file 45 "/usr/lib/gcc/x86_64-pc-cygwin/6.4.0/include/c++/exception"
	.file 46 "/usr/lib/gcc/x86_64-pc-cygwin/6.4.0/include/c++/bits/predefined_ops.h"
	.file 47 "/usr/lib/gcc/x86_64-pc-cygwin/6.4.0/include/c++/ext/new_allocator.h"
	.file 48 "/usr/lib/gcc/x86_64-pc-cygwin/6.4.0/include/c++/ext/numeric_traits.h"
	.file 49 "/usr/lib/gcc/x86_64-pc-cygwin/6.4.0/include/c++/bits/stl_iterator.h"
	.file 50 "/usr/include/sys/lock.h"
	.file 51 "/usr/include/sys/_types.h"
	.file 52 "/usr/include/sys/reent.h"
	.file 53 "/usr/lib/gcc/x86_64-pc-cygwin/6.4.0/include/stdarg.h"
	.file 54 "/usr/include/wchar.h"
	.file 55 "/usr/include/time.h"
	.file 56 "/usr/include/locale.h"
	.file 57 "/usr/include/ctype.h"
	.file 58 "/usr/lib/gcc/x86_64-pc-cygwin/6.4.0/include/c++/x86_64-pc-cygwin/bits/atomic_word.h"
	.file 59 "/usr/include/stdlib.h"
	.file 60 "/usr/include/stdio.h"
	.file 61 "/usr/include/sys/errno.h"
	.file 62 "D:\\Pool\\eclipse-workspace_aarch64\\newspace\\raspiOS\\include/filesystem/fat/FAT32Entry.h"
	.file 63 "D:\\Pool\\eclipse-workspace_aarch64\\newspace\\raspiOS\\include/filesystem/fat/FAT32ReadUtil.h"
	.section	.rdata$.refptr.mman, "dr"
	.globl	.refptr.mman
	.linkonce	discard
.refptr.mman:
	.quad	mman
