	.file	"main_debug_mman.cpp"
	.text
.Ltext0:
	.cfi_sections	.debug_frame
	.def	_Z41__static_initialization_and_destruction_0ii;	.scl	3;	.type	32;	.endef
	.seh_proc	_Z41__static_initialization_and_destruction_0ii
_Z41__static_initialization_and_destruction_0ii:
.LFB1853:
	.file 1 "D:/Pool/eclipse-workspace_aarch64/newspace/raspiOS/src/arch/host/main_debug_mman.cpp"
	.loc 1 44 0
	.cfi_startproc
.LVL0:
	subq	$40, %rsp
	.seh_stackalloc	40
	.cfi_def_cfa_offset 48
	.seh_endprologue
	.loc 1 44 0
	cmpl	$1, %ecx
	je	.L3
.LVL1:
.L1:
	addq	$40, %rsp
	.cfi_remember_state
	.cfi_def_cfa_offset 8
	ret
.LVL2:
.L3:
	.cfi_restore_state
	.loc 1 44 0 is_stmt 0 discriminator 1
	cmpl	$65535, %edx
	jne	.L1
	.file 2 "/usr/lib/gcc/x86_64-pc-cygwin/6.4.0/include/c++/iostream"
	.loc 2 74 0 is_stmt 1
	leaq	_ZStL8__ioinit(%rip), %rcx
.LVL3:
	call	_ZNSt8ios_base4InitC1Ev
.LVL4:
	movq	.refptr.__dso_handle(%rip), %r8
	leaq	_ZStL8__ioinit(%rip), %rdx
	leaq	_ZNSt8ios_base4InitD1Ev(%rip), %rcx
	call	__cxa_atexit
.LVL5:
	.loc 1 44 0
	jmp	.L1
	.cfi_endproc
.LFE1853:
	.seh_endproc
	.section	.text$_ZN13MemoryManager10allocateAsIPcEET_m,"x"
	.linkonce discard
	.align 2
	.globl	_ZN13MemoryManager10allocateAsIPcEET_m
	.def	_ZN13MemoryManager10allocateAsIPcEET_m;	.scl	2;	.type	32;	.endef
	.seh_proc	_ZN13MemoryManager10allocateAsIPcEET_m
_ZN13MemoryManager10allocateAsIPcEET_m:
.LFB1679:
	.file 3 "D:\\Pool\\eclipse-workspace_aarch64\\newspace\\raspiOS\\include/templates_implementation/MemoryManager.h"
	.loc 3 15 0
	.cfi_startproc
.LVL6:
	subq	$40, %rsp
	.seh_stackalloc	40
	.cfi_def_cfa_offset 48
	.seh_endprologue
	.loc 3 17 0
	call	_ZN13MemoryManager8allocateEm
.LVL7:
	.loc 3 18 0
	addq	$40, %rsp
	.cfi_def_cfa_offset 8
	ret
	.cfi_endproc
.LFE1679:
	.seh_endproc
	.section	.text$_ZN13MemoryManager10allocateAsIPcEET_mm,"x"
	.linkonce discard
	.align 2
	.globl	_ZN13MemoryManager10allocateAsIPcEET_mm
	.def	_ZN13MemoryManager10allocateAsIPcEET_mm;	.scl	2;	.type	32;	.endef
	.seh_proc	_ZN13MemoryManager10allocateAsIPcEET_mm
_ZN13MemoryManager10allocateAsIPcEET_mm:
.LFB1680:
	.loc 3 20 0
	.cfi_startproc
.LVL8:
	subq	$40, %rsp
	.seh_stackalloc	40
	.cfi_def_cfa_offset 48
	.seh_endprologue
	.loc 3 22 0
	call	_ZN13MemoryManager8allocateEmm
.LVL9:
	.loc 3 23 0
	addq	$40, %rsp
	.cfi_def_cfa_offset 8
	ret
	.cfi_endproc
.LFE1680:
	.seh_endproc
	.def	__main;	.scl	2;	.type	32;	.endef
	.section .rdata,"dr"
.LC0:
	.ascii "\12\0"
.LC1:
	.ascii "[INFO] \0"
.LC2:
	.ascii "Run test of MemoryManager\12\0"
.LC3:
	.ascii "[FATAL] \0"
.LC4:
	.ascii " [TEST] `\0"
.LC5:
	.ascii "tmm.memoryChunkMergeCorrectly\0"
.LC6:
	.ascii "` failed.\12\0"
.LC7:
	.ascii "tmm.allocateCorrectly\0"
.LC8:
	.ascii "tmm.nextChunkCorrectly\0"
.LC9:
	.ascii "tmm.deallocateCorrectly\0"
	.align 8
.LC10:
	.ascii "tmm.reallocateInPlaceCollectCorrectly\0"
	.align 8
.LC11:
	.ascii "tmm.reallocateOutOfPlaceMoveCorrectly\0"
	.align 8
.LC12:
	.ascii "tmm.reallocateSmallerCorrectly\0"
.LC13:
	.ascii "All test ended\12\0"
	.text
	.globl	main
	.def	main;	.scl	2;	.type	32;	.endef
	.seh_proc	main
main:
.LFB1465:
	.loc 1 17 0
	.cfi_startproc
	pushq	%rbp
	.seh_pushreg	%rbp
	.cfi_def_cfa_offset 16
	.cfi_offset 6, -16
	pushq	%rdi
	.seh_pushreg	%rdi
	.cfi_def_cfa_offset 24
	.cfi_offset 5, -24
	pushq	%rsi
	.seh_pushreg	%rsi
	.cfi_def_cfa_offset 32
	.cfi_offset 4, -32
	pushq	%rbx
	.seh_pushreg	%rbx
	.cfi_def_cfa_offset 40
	.cfi_offset 3, -40
	subq	$88, %rsp
	.seh_stackalloc	88
	.cfi_def_cfa_offset 128
	.seh_endprologue
	.loc 1 17 0
	call	__main
.LVL10:
	.loc 1 19 0
	movl	$1024, %ecx
	call	_Znam
.LVL11:
	movq	%rax, %rsi
.LVL12:
	.loc 1 20 0
	leaq	48(%rsp), %rbx
	movl	$1, %r9d
	movl	$1024, %r8d
	movq	%rax, %rdx
	movq	%rbx, %rcx
	call	_ZN13MemoryManagerC1EPvmb
.LVL13:
	.loc 1 22 0
	movl	$100, %edx
	movq	%rbx, %rcx
	call	_ZN13MemoryManager10allocateAsIPcEET_m
.LVL14:
	movq	%rax, %rbp
.LVL15:
	.loc 1 23 0
	movl	$40, %r8d
	movl	$50, %edx
	movq	%rbx, %rcx
	call	_ZN13MemoryManager10allocateAsIPcEET_mm
.LVL16:
	movq	%rax, %rdi
.LVL17:
.LBB70:
.LBB71:
	.file 4 "/usr/lib/gcc/x86_64-pc-cygwin/6.4.0/include/c++/ostream"
	.loc 4 132 0
	movq	.refptr._ZSt4cout(%rip), %rbx
	movq	(%rbx), %rax
.LVL18:
	movq	%rbx, %rdx
	addq	-24(%rax), %rdx
.LVL19:
.LBB72:
.LBB73:
.LBB74:
.LBB75:
.LBB76:
.LBB77:
	.file 5 "/usr/lib/gcc/x86_64-pc-cygwin/6.4.0/include/c++/bits/ios_base.h"
	.loc 5 84 0
	movl	24(%rdx), %eax
	andl	$-75, %eax
.LVL20:
.LBE77:
.LBE76:
.LBE75:
.LBB78:
.LBB79:
.LBB80:
.LBB81:
	.loc 5 88 0
	orl	$8, %eax
.LVL21:
.LBE81:
.LBE80:
	.loc 5 100 0
	movl	%eax, 24(%rdx)
.LVL22:
.LBE79:
.LBE78:
.LBE74:
.LBE73:
.LBE72:
.LBE71:
.LBE70:
.LBB82:
.LBB83:
	.loc 4 171 0
	movq	%rsi, %rdx
	movq	%rbx, %rcx
	call	_ZNSo9_M_insertImEERSoT_
.LVL23:
.LBE83:
.LBE82:
	.loc 1 27 0
	leaq	.LC0(%rip), %rdx
	movq	%rax, %rcx
	call	_ZStlsISt11char_traitsIcEERSt13basic_ostreamIcT_ES5_PKc
.LVL24:
.LBB84:
.LBB85:
	.loc 4 171 0
	movq	%rbp, %rdx
	movq	%rbx, %rcx
	call	_ZNSo9_M_insertImEERSoT_
.LVL25:
.LBE85:
.LBE84:
	.loc 1 28 0
	leaq	.LC0(%rip), %rdx
	movq	%rax, %rcx
	call	_ZStlsISt11char_traitsIcEERSt13basic_ostreamIcT_ES5_PKc
.LVL26:
.LBB86:
.LBB87:
	.loc 4 171 0
	movq	%rdi, %rdx
	movq	%rbx, %rcx
	call	_ZNSo9_M_insertImEERSoT_
.LVL27:
.LBE87:
.LBE86:
	.loc 1 29 0
	leaq	.LC0(%rip), %rdx
	movq	%rax, %rcx
	call	_ZStlsISt11char_traitsIcEERSt13basic_ostreamIcT_ES5_PKc
.LVL28:
	.loc 1 31 0
	leaq	.LC1(%rip), %rdx
	movq	.refptr.kout(%rip), %rcx
	call	_ZN6OutputlsEPKc
.LVL29:
	leaq	.LC2(%rip), %rdx
	movq	%rax, %rcx
	call	_ZN6OutputlsEPKc
.LVL30:
	.loc 1 33 0
	leaq	47(%rsp), %rcx
	call	_ZN17TestMemoryManager25memoryChunkMergeCorrectlyEv
.LVL31:
	testb	%al, %al
	je	.L14
.L7:
	.loc 1 34 0
	leaq	47(%rsp), %rcx
	call	_ZN17TestMemoryManager17allocateCorrectlyEv
.LVL32:
	testb	%al, %al
	je	.L15
.L8:
	.loc 1 35 0
	leaq	47(%rsp), %rcx
	call	_ZN17TestMemoryManager18nextChunkCorrectlyEv
.LVL33:
	testb	%al, %al
	je	.L16
.L9:
	.loc 1 36 0
	leaq	47(%rsp), %rcx
	call	_ZN17TestMemoryManager19deallocateCorrectlyEv
.LVL34:
	testb	%al, %al
	je	.L17
.L10:
	.loc 1 37 0
	leaq	47(%rsp), %rcx
	call	_ZN17TestMemoryManager33reallocateInPlaceCollectCorrectlyEv
.LVL35:
	testb	%al, %al
	je	.L18
.L11:
	.loc 1 38 0
	leaq	47(%rsp), %rcx
	call	_ZN17TestMemoryManager33reallocateOutOfPlaceMoveCorrectlyEv
.LVL36:
	testb	%al, %al
	je	.L19
.L12:
	.loc 1 39 0
	leaq	47(%rsp), %rcx
	call	_ZN17TestMemoryManager26reallocateSmallerCorrectlyEv
.LVL37:
	testb	%al, %al
	je	.L20
.L13:
	.loc 1 41 0
	leaq	.LC1(%rip), %rdx
	movq	.refptr.kout(%rip), %rcx
	call	_ZN6OutputlsEPKc
.LVL38:
	leaq	.LC13(%rip), %rdx
	movq	%rax, %rcx
	call	_ZN6OutputlsEPKc
.LVL39:
	.loc 1 44 0
	movl	$0, %eax
	addq	$88, %rsp
	.cfi_remember_state
	.cfi_def_cfa_offset 40
	popq	%rbx
	.cfi_restore 3
	.cfi_def_cfa_offset 32
	popq	%rsi
	.cfi_restore 4
	.cfi_def_cfa_offset 24
.LVL40:
	popq	%rdi
	.cfi_restore 5
	.cfi_def_cfa_offset 16
.LVL41:
	popq	%rbp
	.cfi_restore 6
	.cfi_def_cfa_offset 8
.LVL42:
	ret
.LVL43:
.L14:
	.cfi_restore_state
	.loc 1 33 0 discriminator 1
	leaq	.LC3(%rip), %rdx
	movq	.refptr.kout(%rip), %rcx
	call	_ZN6OutputlsEPKc
.LVL44:
	leaq	.LC4(%rip), %rdx
	movq	%rax, %rcx
	call	_ZN6OutputlsEPKc
.LVL45:
	leaq	.LC5(%rip), %rdx
	movq	%rax, %rcx
	call	_ZN6OutputlsEPKc
.LVL46:
	leaq	.LC6(%rip), %rdx
	movq	%rax, %rcx
	call	_ZN6OutputlsEPKc
.LVL47:
	jmp	.L7
.L15:
	.loc 1 34 0 discriminator 1
	leaq	.LC3(%rip), %rdx
	movq	.refptr.kout(%rip), %rcx
	call	_ZN6OutputlsEPKc
.LVL48:
	leaq	.LC4(%rip), %rdx
	movq	%rax, %rcx
	call	_ZN6OutputlsEPKc
.LVL49:
	leaq	.LC7(%rip), %rdx
	movq	%rax, %rcx
	call	_ZN6OutputlsEPKc
.LVL50:
	leaq	.LC6(%rip), %rdx
	movq	%rax, %rcx
	call	_ZN6OutputlsEPKc
.LVL51:
	jmp	.L8
.L16:
	.loc 1 35 0 discriminator 1
	leaq	.LC3(%rip), %rdx
	movq	.refptr.kout(%rip), %rcx
	call	_ZN6OutputlsEPKc
.LVL52:
	leaq	.LC4(%rip), %rdx
	movq	%rax, %rcx
	call	_ZN6OutputlsEPKc
.LVL53:
	leaq	.LC8(%rip), %rdx
	movq	%rax, %rcx
	call	_ZN6OutputlsEPKc
.LVL54:
	leaq	.LC6(%rip), %rdx
	movq	%rax, %rcx
	call	_ZN6OutputlsEPKc
.LVL55:
	jmp	.L9
.L17:
	.loc 1 36 0 discriminator 1
	leaq	.LC3(%rip), %rdx
	movq	.refptr.kout(%rip), %rcx
	call	_ZN6OutputlsEPKc
.LVL56:
	leaq	.LC4(%rip), %rdx
	movq	%rax, %rcx
	call	_ZN6OutputlsEPKc
.LVL57:
	leaq	.LC9(%rip), %rdx
	movq	%rax, %rcx
	call	_ZN6OutputlsEPKc
.LVL58:
	leaq	.LC6(%rip), %rdx
	movq	%rax, %rcx
	call	_ZN6OutputlsEPKc
.LVL59:
	jmp	.L10
.L18:
	.loc 1 37 0 discriminator 1
	leaq	.LC3(%rip), %rdx
	movq	.refptr.kout(%rip), %rcx
	call	_ZN6OutputlsEPKc
.LVL60:
	leaq	.LC4(%rip), %rdx
	movq	%rax, %rcx
	call	_ZN6OutputlsEPKc
.LVL61:
	leaq	.LC10(%rip), %rdx
	movq	%rax, %rcx
	call	_ZN6OutputlsEPKc
.LVL62:
	leaq	.LC6(%rip), %rdx
	movq	%rax, %rcx
	call	_ZN6OutputlsEPKc
.LVL63:
	jmp	.L11
.L19:
	.loc 1 38 0 discriminator 1
	leaq	.LC3(%rip), %rdx
	movq	.refptr.kout(%rip), %rcx
	call	_ZN6OutputlsEPKc
.LVL64:
	leaq	.LC4(%rip), %rdx
	movq	%rax, %rcx
	call	_ZN6OutputlsEPKc
.LVL65:
	leaq	.LC11(%rip), %rdx
	movq	%rax, %rcx
	call	_ZN6OutputlsEPKc
.LVL66:
	leaq	.LC6(%rip), %rdx
	movq	%rax, %rcx
	call	_ZN6OutputlsEPKc
.LVL67:
	jmp	.L12
.L20:
	.loc 1 39 0 discriminator 1
	leaq	.LC3(%rip), %rdx
	movq	.refptr.kout(%rip), %rcx
	call	_ZN6OutputlsEPKc
.LVL68:
	leaq	.LC4(%rip), %rdx
	movq	%rax, %rcx
	call	_ZN6OutputlsEPKc
.LVL69:
	leaq	.LC12(%rip), %rdx
	movq	%rax, %rcx
	call	_ZN6OutputlsEPKc
.LVL70:
	leaq	.LC6(%rip), %rdx
	movq	%rax, %rcx
	call	_ZN6OutputlsEPKc
.LVL71:
	jmp	.L13
	.cfi_endproc
.LFE1465:
	.seh_endproc
	.def	_GLOBAL__sub_I_main;	.scl	3;	.type	32;	.endef
	.seh_proc	_GLOBAL__sub_I_main
_GLOBAL__sub_I_main:
.LFB1854:
	.loc 1 44 0
	.cfi_startproc
	subq	$40, %rsp
	.seh_stackalloc	40
	.cfi_def_cfa_offset 48
	.seh_endprologue
	.loc 1 44 0
	movl	$65535, %edx
	movl	$1, %ecx
	call	_Z41__static_initialization_and_destruction_0ii
	nop
.LVL72:
	addq	$40, %rsp
	.cfi_def_cfa_offset 8
	ret
	.cfi_endproc
.LFE1854:
	.seh_endproc
	.section	.ctors,"w"
	.align 8
	.quad	_GLOBAL__sub_I_main
.lcomm _ZStL8__ioinit,1,1
	.text
.Letext0:
	.file 6 "/usr/lib/gcc/x86_64-pc-cygwin/6.4.0/include/stddef.h"
	.file 7 "/usr/include/sys/lock.h"
	.file 8 "/usr/include/sys/_types.h"
	.file 9 "/usr/include/sys/reent.h"
	.file 10 "/usr/lib/gcc/x86_64-pc-cygwin/6.4.0/include/stdarg.h"
	.file 11 "/usr/include/wchar.h"
	.file 12 "/usr/lib/gcc/x86_64-pc-cygwin/6.4.0/include/c++/cwchar"
	.file 13 "<built-in>"
	.file 14 "/usr/lib/gcc/x86_64-pc-cygwin/6.4.0/include/c++/bits/exception_ptr.h"
	.file 15 "/usr/lib/gcc/x86_64-pc-cygwin/6.4.0/include/c++/x86_64-pc-cygwin/bits/c++config.h"
	.file 16 "/usr/lib/gcc/x86_64-pc-cygwin/6.4.0/include/c++/type_traits"
	.file 17 "/usr/lib/gcc/x86_64-pc-cygwin/6.4.0/include/c++/bits/stl_pair.h"
	.file 18 "/usr/lib/gcc/x86_64-pc-cygwin/6.4.0/include/c++/debug/debug.h"
	.file 19 "/usr/lib/gcc/x86_64-pc-cygwin/6.4.0/include/c++/bits/char_traits.h"
	.file 20 "/usr/lib/gcc/x86_64-pc-cygwin/6.4.0/include/c++/cstdint"
	.file 21 "/usr/lib/gcc/x86_64-pc-cygwin/6.4.0/include/c++/clocale"
	.file 22 "/usr/lib/gcc/x86_64-pc-cygwin/6.4.0/include/c++/cctype"
	.file 23 "/usr/lib/gcc/x86_64-pc-cygwin/6.4.0/include/c++/new"
	.file 24 "/usr/lib/gcc/x86_64-pc-cygwin/6.4.0/include/c++/cstdlib"
	.file 25 "/usr/lib/gcc/x86_64-pc-cygwin/6.4.0/include/c++/cstdio"
	.file 26 "/usr/lib/gcc/x86_64-pc-cygwin/6.4.0/include/c++/bits/basic_string.h"
	.file 27 "/usr/lib/gcc/x86_64-pc-cygwin/6.4.0/include/c++/bits/basic_string.tcc"
	.file 28 "/usr/lib/gcc/x86_64-pc-cygwin/6.4.0/include/c++/bits/allocator.h"
	.file 29 "/usr/lib/gcc/x86_64-pc-cygwin/6.4.0/include/c++/initializer_list"
	.file 30 "/usr/lib/gcc/x86_64-pc-cygwin/6.4.0/include/c++/system_error"
	.file 31 "/usr/lib/gcc/x86_64-pc-cygwin/6.4.0/include/c++/cwctype"
	.file 32 "/usr/lib/gcc/x86_64-pc-cygwin/6.4.0/include/c++/iosfwd"
	.file 33 "/usr/lib/gcc/x86_64-pc-cygwin/6.4.0/include/c++/cstddef"
	.file 34 "/usr/lib/gcc/x86_64-pc-cygwin/6.4.0/include/c++/bits/stl_iterator_base_types.h"
	.file 35 "/usr/lib/gcc/x86_64-pc-cygwin/6.4.0/include/c++/bits/basic_ios.h"
	.file 36 "/usr/include/time.h"
	.file 37 "/usr/lib/gcc/x86_64-pc-cygwin/6.4.0/include/c++/bits/predefined_ops.h"
	.file 38 "/usr/lib/gcc/x86_64-pc-cygwin/6.4.0/include/c++/ext/new_allocator.h"
	.file 39 "/usr/lib/gcc/x86_64-pc-cygwin/6.4.0/include/c++/ext/numeric_traits.h"
	.file 40 "/usr/lib/gcc/x86_64-pc-cygwin/6.4.0/include/c++/bits/stl_iterator.h"
	.file 41 "/usr/lib/gcc/x86_64-pc-cygwin/6.4.0/include/stdint-gcc.h"
	.file 42 "/usr/include/locale.h"
	.file 43 "/usr/include/ctype.h"
	.file 44 "/usr/lib/gcc/x86_64-pc-cygwin/6.4.0/include/c++/x86_64-pc-cygwin/bits/atomic_word.h"
	.file 45 "/usr/include/stdlib.h"
	.file 46 "/usr/include/stdio.h"
	.file 47 "/usr/include/sys/errno.h"
	.file 48 "/usr/include/wctype.h"
	.file 49 "D:\\Pool\\eclipse-workspace_aarch64\\newspace\\raspiOS\\include/def.h"
	.file 50 "D:\\Pool\\eclipse-workspace_aarch64\\newspace\\raspiOS\\include/generic_util.h"
	.file 51 "D:\\Pool\\eclipse-workspace_aarch64\\newspace\\raspiOS\\include/memory/MemoryChunk.h"
	.file 52 "D:\\Pool\\eclipse-workspace_aarch64\\newspace\\raspiOS\\include/memory/MemoryManager.h"
	.file 53 "D:\\Pool\\eclipse-workspace_aarch64\\newspace\\raspiOS\\include/printk.h"
	.file 54 "D:\\Pool\\eclipse-workspace_aarch64\\newspace\\raspiOS\\include/test/TestMemoryManager.h"
	.file 55 "D:\\Pool\\eclipse-workspace_aarch64\\newspace\\raspiOS\\include/kernel.h"
	.file 56 "/usr/lib/gcc/x86_64-pc-cygwin/6.4.0/include/c++/bits/ostream.tcc"
	.section	.rdata$.refptr.kout, "dr"
	.globl	.refptr.kout
	.linkonce	discard
.refptr.kout:
	.quad	kout
	.section	.rdata$.refptr._ZSt4cout, "dr"
	.globl	.refptr._ZSt4cout
	.linkonce	discard
.refptr._ZSt4cout:
	.quad	_ZSt4cout
	.section	.rdata$.refptr._ZNSt8ios_base4InitD1Ev, "dr"
	.globl	.refptr._ZNSt8ios_base4InitD1Ev
	.linkonce	discard
.refptr._ZNSt8ios_base4InitD1Ev:
	.quad	_ZNSt8ios_base4InitD1Ev
	.section	.rdata$.refptr.__dso_handle, "dr"
	.globl	.refptr.__dso_handle
	.linkonce	discard
.refptr.__dso_handle:
	.quad	__dso_handle
