	.file	"printk_no_arch_impl.cpp"
	.text
.Ltext0:
	.cfi_sections	.debug_frame
	.section .rdata,"dr"
	.align 4
_ZL6UNIT_K:
	.long	1024
	.align 4
_ZL3KiB:
	.long	1024
	.align 4
_ZL3MiB:
	.long	1048576
	.align 4
_ZL3GiB:
	.long	1073741824
	.text
	.globl	_Z6printkPKc
	.def	_Z6printkPKc;	.scl	2;	.type	32;	.endef
	.seh_proc	_Z6printkPKc
_Z6printkPKc:
.LFB0:
	.file 1 "D:/Pool/eclipse-workspace_aarch64/newspace/raspiOS/src/io/printk_no_arch_impl.cpp"
	.loc 1 12 0
	.cfi_startproc
	pushq	%rbp
	.seh_pushreg	%rbp
	.cfi_def_cfa_offset 16
	.cfi_offset 6, -16
	movq	%rsp, %rbp
	.seh_setframe	%rbp, 0
	.cfi_def_cfa_register 6
	subq	$48, %rsp
	.seh_stackalloc	48
	.seh_endprologue
	movq	%rcx, 16(%rbp)
	.loc 1 13 0
	movq	$0, -8(%rbp)
.L3:
	.loc 1 14 0
	movq	16(%rbp), %rax
	movzbl	(%rax), %eax
	testb	%al, %al
	je	.L2
	.loc 1 15 0
	movq	16(%rbp), %rax
	leaq	1(%rax), %rdx
	movq	%rdx, 16(%rbp)
	movzbl	(%rax), %eax
	movsbl	%al, %eax
	movl	%eax, %ecx
	call	_Z6printkc
	addq	%rax, -8(%rbp)
	.loc 1 14 0
	jmp	.L3
.L2:
	.loc 1 16 0
	movq	-8(%rbp), %rax
	.loc 1 17 0
	addq	$48, %rsp
	popq	%rbp
	.cfi_restore 6
	.cfi_def_cfa 7, 8
	ret
	.cfi_endproc
.LFE0:
	.seh_endproc
	.globl	_Z6printkPKcm
	.def	_Z6printkPKcm;	.scl	2;	.type	32;	.endef
	.seh_proc	_Z6printkPKcm
_Z6printkPKcm:
.LFB1:
	.loc 1 19 0
	.cfi_startproc
	pushq	%rbp
	.seh_pushreg	%rbp
	.cfi_def_cfa_offset 16
	.cfi_offset 6, -16
	movq	%rsp, %rbp
	.seh_setframe	%rbp, 0
	.cfi_def_cfa_register 6
	subq	$48, %rsp
	.seh_stackalloc	48
	.seh_endprologue
	movq	%rcx, 16(%rbp)
	movq	%rdx, 24(%rbp)
	.loc 1 20 0
	cmpq	$0, 24(%rbp)
	jne	.L6
	.loc 1 21 0
	movq	16(%rbp), %rcx
	call	_Z6printkPKc
	jmp	.L7
.L6:
	.loc 1 22 0
	movq	$0, -8(%rbp)
	.loc 1 23 0
	cmpq	$0, 24(%rbp)
	je	.L8
.L9:
	.loc 1 24 0
	movq	24(%rbp), %rax
	leaq	-1(%rax), %rdx
	movq	%rdx, 24(%rbp)
	testq	%rax, %rax
	setne	%al
	testb	%al, %al
	je	.L8
	.loc 1 25 0
	movq	16(%rbp), %rax
	leaq	1(%rax), %rdx
	movq	%rdx, 16(%rbp)
	movzbl	(%rax), %eax
	movsbl	%al, %eax
	movl	%eax, %ecx
	call	_Z6printkc
	addq	%rax, -8(%rbp)
	.loc 1 24 0
	jmp	.L9
.L8:
	.loc 1 26 0
	movq	-8(%rbp), %rax
.L7:
	.loc 1 27 0
	addq	$48, %rsp
	popq	%rbp
	.cfi_restore 6
	.cfi_def_cfa 7, 8
	ret
	.cfi_endproc
.LFE1:
	.seh_endproc
.Letext0:
	.file 2 "/usr/lib/gcc/x86_64-pc-cygwin/6.4.0/include/stddef.h"
	.file 3 "/usr/lib/gcc/x86_64-pc-cygwin/6.4.0/include/c++/cstddef"
	.file 4 "/usr/lib/gcc/x86_64-pc-cygwin/6.4.0/include/c++/cstdint"
	.file 5 "/usr/lib/gcc/x86_64-pc-cygwin/6.4.0/include/stdint-gcc.h"
	.file 6 "D:\\Pool\\eclipse-workspace_aarch64\\newspace\\raspiOS\\include/def.h"
	.file 7 "<built-in>"