	.file	"Process.cpp"
	.text
.Ltext0:
	.cfi_sections	.debug_frame
	.section .rdata,"dr"
	.align 4
_ZL6UNIT_K:
	.long	1024
	.align 4
_ZL3KiB:
	.long	1024
	.align 4
_ZL3MiB:
	.long	1048576
	.align 4
_ZL3GiB:
	.long	1073741824
_ZStL19piecewise_construct:
	.space 1
_ZStL13allocator_arg:
	.space 1
_ZStL6ignore:
	.space 1
	.align 2
_ZL11INVALID_PID:
	.space 2
	.align 2
_ZL11CURRENT_PID:
	.word	1
	.align 2
_ZL10PARENT_PID:
	.word	2
	.align 8
_ZL11koutBufSize:
	.quad	65
	.text
	.align 2
	.globl	_ZN7ProcessC2Ev
	.def	_ZN7ProcessC2Ev;	.scl	2;	.type	32;	.endef
	.seh_proc	_ZN7ProcessC2Ev
_ZN7ProcessC2Ev:
.LFB1555:
	.file 1 "D:/Pool/eclipse-workspace_aarch64/newspace/raspiOS/src/schedule/Process.cpp"
	.loc 1 16 0
	.cfi_startproc
	pushq	%rbp
	.seh_pushreg	%rbp
	.cfi_def_cfa_offset 16
	.cfi_offset 6, -16
	movq	%rsp, %rbp
	.seh_setframe	%rbp, 0
	.cfi_def_cfa_register 6
	.seh_endprologue
	movq	%rcx, 16(%rbp)
.LBB52:
	.loc 1 16 0
	movq	16(%rbp), %rax
	movw	$0, (%rax)
	movq	16(%rbp), %rax
	movl	$0, 4(%rax)
	movq	16(%rbp), %rax
	movl	$0, 8(%rax)
	movq	16(%rbp), %rax
	movq	$0, 16(%rax)
	movq	16(%rbp), %rax
	movq	$0, 24(%rax)
	movq	16(%rbp), %rax
	movq	32(%rax), %rdx
	andl	$0, %edx
	movq	%rdx, 32(%rax)
	movq	16(%rbp), %rax
	movq	$0, 40(%rax)
	movq	16(%rbp), %rax
	movq	$0, 48(%rax)
	movq	16(%rbp), %rax
	movq	$0, 56(%rax)
	movq	16(%rbp), %rax
	movq	$0, 64(%rax)
	movq	16(%rbp), %rax
	movq	$0, 72(%rax)
	movq	16(%rbp), %rax
	movq	$0, 80(%rax)
	movq	16(%rbp), %rax
	movq	$0, 88(%rax)
	movq	16(%rbp), %rax
	movq	$0, 96(%rax)
	movq	16(%rbp), %rax
	movq	$0, 104(%rax)
	movq	16(%rbp), %rax
	movq	$0, 112(%rax)
	movq	16(%rbp), %rax
	movq	368(%rax), %rdx
	andl	$0, %edx
	movq	%rdx, 368(%rax)
	movq	16(%rbp), %rax
	movl	$0, 376(%rax)
.LBE52:
	.loc 1 17 0
	nop
	popq	%rbp
	.cfi_restore 6
	.cfi_def_cfa 7, 8
	ret
	.cfi_endproc
.LFE1555:
	.seh_endproc
	.globl	_ZN7ProcessC1Ev
	.def	_ZN7ProcessC1Ev;	.scl	2;	.type	32;	.endef
	.set	_ZN7ProcessC1Ev,_ZN7ProcessC2Ev
	.section .rdata,"dr"
.LC0:
	.ascii "[FATAL] \0"
	.align 8
.LC1:
	.ascii "a level of page table,heap or stack can not be allocated\12\0"
	.text
	.align 2
	.globl	_ZN7Process4initEmPS_jmmm
	.def	_ZN7Process4initEmPS_jmmm;	.scl	2;	.type	32;	.endef
	.seh_proc	_ZN7Process4initEmPS_jmmm
_ZN7Process4initEmPS_jmmm:
.LFB1557:
	.loc 1 21 0
	.cfi_startproc
	pushq	%rbp
	.seh_pushreg	%rbp
	.cfi_def_cfa_offset 16
	.cfi_offset 6, -16
	movq	%rsp, %rbp
	.seh_setframe	%rbp, 0
	.cfi_def_cfa_register 6
	subq	$240, %rsp
	.seh_stackalloc	240
	.seh_endprologue
	movq	%rcx, 16(%rbp)
	movq	%rdx, 24(%rbp)
	movq	%r8, 32(%rbp)
	movl	%r9d, 40(%rbp)
	.loc 1 22 0
	movq	.refptr.pidManager(%rip), %rcx
	call	_ZN10PidManager8allocateEv
	movl	%eax, %edx
	movq	16(%rbp), %rax
	movw	%dx, (%rax)
	.loc 1 24 0
	movq	16(%rbp), %rax
	movzwl	(%rax), %eax
	testw	%ax, %ax
	jne	.L3
	.loc 1 25 0
	movl	$1, %eax
	jmp	.L29
.L3:
	.loc 1 26 0
	movq	16(%rbp), %rax
	movq	32(%rbp), %rdx
	movq	%rdx, 16(%rax)
	.loc 1 27 0
	movq	16(%rbp), %rax
	movl	40(%rbp), %edx
	movl	%edx, 4(%rax)
	.loc 1 31 0
	movq	24(%rbp), %rax
	movzbl	%al, %edx
	leaq	-112(%rbp), %rax
	movl	%edx, %r8d
	movl	$0, %edx
	movq	%rax, %rcx
	call	_ZN14VirtualAddressC1Emh
	.loc 1 32 0
	leaq	-112(%rbp), %rax
	movl	$0, %edx
	movq	%rax, %rcx
	call	_ZN14VirtualAddress7ttbrSelEi
	.loc 1 33 0
	leaq	-112(%rbp), %rax
	movl	$1, %r8d
	movl	$3, %edx
	movq	%rax, %rcx
	call	_ZN14VirtualAddress5indexEhj
	.loc 1 34 0
	movq	24(%rbp), %rax
	movzbl	%al, %edx
	leaq	-128(%rbp), %rax
	movl	%edx, %r8d
	movl	$0, %edx
	movq	%rax, %rcx
	call	_ZN14VirtualAddressC1Emh
	.loc 1 35 0
	leaq	-128(%rbp), %rax
	movl	$0, %edx
	movq	%rax, %rcx
	call	_ZN14VirtualAddress7ttbrSelEi
	.loc 1 36 0
	leaq	-128(%rbp), %rax
	movl	$0, %r8d
	movl	$0, %edx
	movq	%rax, %rcx
	call	_ZN14VirtualAddress5indexEhj
	.loc 1 37 0
	leaq	-128(%rbp), %rax
	movl	$0, %r8d
	movl	$1, %edx
	movq	%rax, %rcx
	call	_ZN14VirtualAddress5indexEhj
	.loc 1 38 0
	leaq	-128(%rbp), %rax
	movl	$0, %r8d
	movl	$2, %edx
	movq	%rax, %rcx
	call	_ZN14VirtualAddress5indexEhj
	.loc 1 39 0
	leaq	-128(%rbp), %rax
	movl	$510, %r8d
	movl	$3, %edx
	movq	%rax, %rcx
	call	_ZN14VirtualAddress5indexEhj
	.loc 1 41 0
	leaq	-128(%rbp), %rax
	movq	%rax, %rcx
	call	_ZNK14VirtualAddress4addrEv
	movq	%rax, %rcx
	movq	16(%rbp), %rax
	movq	32(%rax), %rdx
	andl	$0, %edx
	orq	%rcx, %rdx
	movq	%rdx, 32(%rax)
	.loc 1 42 0
	leaq	-112(%rbp), %rax
	movq	%rax, %rcx
	call	_ZNK14VirtualAddress4addrEv
	movq	%rax, %rcx
	movq	16(%rbp), %rax
	movq	368(%rax), %rdx
	andl	$0, %edx
	orq	%rcx, %rdx
	movq	%rdx, 368(%rax)
	.loc 1 43 0
	movq	16(%rbp), %rax
	movl	$0, 376(%rax)
	.loc 1 48 0
	movq	16(%rbp), %rax
	movq	48(%rbp), %rdx
	movq	%rdx, 80(%rax)
	.loc 1 49 0
	movq	48(%rbp), %rax
	movl	$4096, %r8d
	movq	%rax, %rdx
	movq	.refptr.mman(%rip), %rcx
	call	_ZN13MemoryManager8allocateEmm
	movq	%rax, %rdx
	movq	16(%rbp), %rax
	movq	%rdx, 72(%rax)
	.loc 1 50 0
	movq	16(%rbp), %rax
	movq	64(%rbp), %rdx
	movq	%rdx, 112(%rax)
	.loc 1 51 0
	movq	64(%rbp), %rax
	movl	$4096, %r8d
	movq	%rax, %rdx
	movq	.refptr.mman(%rip), %rcx
	call	_ZN13MemoryManager8allocateEmm
	movq	%rax, %rdx
	movq	16(%rbp), %rax
	movq	%rdx, 104(%rax)
	.loc 1 52 0
	movq	16(%rbp), %rax
	movq	56(%rbp), %rdx
	movq	%rdx, 96(%rax)
	.loc 1 53 0
	movq	56(%rbp), %rax
	movl	$4096, %r8d
	movq	%rax, %rdx
	movq	.refptr.mman(%rip), %rcx
	call	_ZN13MemoryManager8allocateEmm
	movq	%rax, %rdx
	movq	16(%rbp), %rax
	movq	%rdx, 88(%rax)
	.loc 1 55 0
	movl	$4096, %r8d
	movl	$4096, %edx
	movq	.refptr.mman(%rip), %rcx
	call	_ZN13MemoryManager10allocateAsIP18RegDescriptor4KBL0EET_mm
	movq	%rax, %rdx
	movq	16(%rbp), %rax
	movq	%rdx, 40(%rax)
	.loc 1 56 0
	movl	$4096, %r8d
	movl	$4096, %edx
	movq	.refptr.mman(%rip), %rcx
	call	_ZN13MemoryManager10allocateAsIP18RegDescriptor4KBL1EET_mm
	movq	%rax, %rdx
	movq	16(%rbp), %rax
	movq	%rdx, 48(%rax)
	.loc 1 57 0
	movl	$4096, %r8d
	movl	$4096, %edx
	movq	.refptr.mman(%rip), %rcx
	call	_ZN13MemoryManager10allocateAsIP18RegDescriptor4KBL2EET_mm
	movq	%rax, %rdx
	movq	16(%rbp), %rax
	movq	%rdx, 56(%rax)
	.loc 1 58 0
	movl	$4096, %r8d
	movl	$4096, %edx
	movq	.refptr.mman(%rip), %rcx
	call	_ZN13MemoryManager10allocateAsIP18RegDescriptor4KBL3EET_mm
	movq	%rax, %rdx
	movq	16(%rbp), %rax
	movq	%rdx, 64(%rax)
	.loc 1 60 0
	movq	16(%rbp), %rax
	movq	72(%rax), %rax
	testq	%rax, %rax
	je	.L5
	.loc 1 60 0 is_stmt 0 discriminator 1
	movq	16(%rbp), %rax
	movq	88(%rax), %rax
	testq	%rax, %rax
	je	.L5
	.loc 1 60 0 discriminator 2
	movq	16(%rbp), %rax
	movq	104(%rax), %rax
	testq	%rax, %rax
	je	.L5
	.loc 1 60 0 discriminator 3
	movq	16(%rbp), %rax
	movq	40(%rax), %rax
	testq	%rax, %rax
	je	.L5
	.loc 1 60 0 discriminator 4
	movq	16(%rbp), %rax
	movq	48(%rax), %rax
	testq	%rax, %rax
	je	.L5
	.loc 1 60 0 discriminator 5
	movq	16(%rbp), %rax
	movq	56(%rax), %rax
	testq	%rax, %rax
	je	.L5
	.loc 1 60 0 discriminator 6
	movq	16(%rbp), %rax
	movq	64(%rax), %rax
	testq	%rax, %rax
	jne	.L6
.L5:
	.loc 1 62 0 is_stmt 1
	leaq	.LC0(%rip), %rdx
	movq	.refptr.kout(%rip), %rcx
	call	_ZN6OutputlsEPKc
	leaq	.LC1(%rip), %rdx
	movq	%rax, %rcx
	call	_ZN6OutputlsEPKc
	.loc 1 63 0
	movl	$1, %eax
	jmp	.L29
.L6:
	.loc 1 66 0
	movq	16(%rbp), %rax
	movq	40(%rax), %rax
	movq	%rax, -40(%rbp)
.LBB53:
.LBB54:
	.file 2 "D:\\Pool\\eclipse-workspace_aarch64\\newspace\\raspiOS\\include/asm_instructions.h"
	.loc 2 58 0
	movq	-40(%rbp), %rax
/APP
 # 58 "D:\Pool\eclipse-workspace_aarch64\newspace\raspiOS\include/asm_instructions.h" 1
	at S1E1R,%rax 
	
 # 0 "" 2
/NO_APP
.LBB55:
.LBB56:
	.file 3 "D:\\Pool\\eclipse-workspace_aarch64\\newspace\\raspiOS\\include/arch/common_aarch64/system_common_registers.h"
	.loc 3 1034 0
/APP
 # 1034 "D:\Pool\eclipse-workspace_aarch64\newspace\raspiOS\include/arch/common_aarch64/system_common_registers.h" 1
	mrs %rax,PAR_EL1
	
 # 0 "" 2
/NO_APP
	movq	%rax, -208(%rbp)
	movq	-208(%rbp), %rax
.LBE56:
.LBE55:
.LBE54:
.LBE53:
	.loc 1 66 0
	movq	%rax, -136(%rbp)
	.loc 1 67 0
	movq	16(%rbp), %rax
	movzwl	30(%rax), %edx
	andl	$0, %edx
	movw	%dx, 30(%rax)
	.loc 1 68 0
	movzbl	-130(%rbp), %eax
	andl	$15, %eax
	movzbl	%al, %eax
	salq	$48, %rax
	movq	%rax, %rcx
	movq	-136(%rbp), %rax
	shrq	$12, %rax
	movabsq	$68719476735, %rdx
	andq	%rdx, %rax
	salq	$12, %rax
	orq	%rcx, %rax
	shrq	%rax
	movq	%rax, %rdx
	movabsq	$140737488355327, %rax
	movq	%rdx, %rcx
	andq	%rax, %rcx
	movq	16(%rbp), %rax
	movabsq	$140737488355327, %rdx
	andq	%rcx, %rdx
	leaq	(%rdx,%rdx), %r8
	movq	24(%rax), %rcx
	movabsq	$-281474976710655, %rdx
	andq	%rcx, %rdx
	orq	%r8, %rdx
	movq	%rdx, 24(%rax)
	.loc 1 69 0
	movq	16(%rbp), %rax
	movzbl	24(%rax), %edx
	andl	$-2, %edx
	movb	%dl, 24(%rax)
.LBB57:
	.loc 1 71 0
	movq	$0, -8(%rbp)
.L10:
	.loc 1 71 0 is_stmt 0 discriminator 3
	cmpq	$512, -8(%rbp)
	je	.L9
	.loc 1 73 0 is_stmt 1 discriminator 2
	movq	16(%rbp), %rax
	movq	40(%rax), %rax
	movq	-8(%rbp), %rdx
	salq	$3, %rdx
	addq	%rdx, %rax
	movzbl	(%rax), %edx
	andl	$-2, %edx
	movb	%dl, (%rax)
	.loc 1 74 0 discriminator 2
	movq	16(%rbp), %rax
	movq	48(%rax), %rax
	movq	-8(%rbp), %rdx
	salq	$3, %rdx
	addq	%rdx, %rax
	movzbl	(%rax), %edx
	andl	$-2, %edx
	movb	%dl, (%rax)
	.loc 1 75 0 discriminator 2
	movq	16(%rbp), %rax
	movq	56(%rax), %rax
	movq	-8(%rbp), %rdx
	salq	$3, %rdx
	addq	%rdx, %rax
	movzbl	(%rax), %edx
	andl	$-2, %edx
	movb	%dl, (%rax)
	.loc 1 76 0 discriminator 2
	movq	16(%rbp), %rax
	movq	64(%rax), %rax
	movq	-8(%rbp), %rdx
	salq	$3, %rdx
	addq	%rdx, %rax
	movzbl	(%rax), %edx
	andl	$-2, %edx
	movb	%dl, (%rax)
	.loc 1 71 0 discriminator 2
	addq	$1, -8(%rbp)
	jmp	.L10
.L9:
.LBE57:
	.loc 1 79 0
	movq	16(%rbp), %rax
	movq	40(%rax), %rax
	movq	$0, (%rax)
	.loc 1 80 0
	movq	16(%rbp), %rax
	movq	40(%rax), %rax
	movzbl	(%rax), %edx
	orl	$1, %edx
	movb	%dl, (%rax)
	.loc 1 81 0
	movq	16(%rbp), %rax
	movq	40(%rax), %rax
	movzbl	(%rax), %edx
	orl	$2, %edx
	movb	%dl, (%rax)
	.loc 1 82 0
	movq	16(%rbp), %rax
	movq	48(%rax), %rax
	movq	%rax, -72(%rbp)
.LBB58:
.LBB59:
	.loc 2 58 0
	movq	-72(%rbp), %rax
/APP
 # 58 "D:\Pool\eclipse-workspace_aarch64\newspace\raspiOS\include/asm_instructions.h" 1
	at S1E1R,%rax 
	
 # 0 "" 2
/NO_APP
.LBB60:
.LBB61:
	.loc 3 1034 0
/APP
 # 1034 "D:\Pool\eclipse-workspace_aarch64\newspace\raspiOS\include/arch/common_aarch64/system_common_registers.h" 1
	mrs %rax,PAR_EL1
	
 # 0 "" 2
/NO_APP
	movq	%rax, -176(%rbp)
	movq	-176(%rbp), %rax
.LBE61:
.LBE60:
.LBE59:
.LBE58:
	.loc 1 82 0
	movq	%rax, -136(%rbp)
	.loc 1 83 0
	movq	16(%rbp), %rax
	movq	40(%rax), %rax
	movzbl	-130(%rbp), %edx
	andl	$15, %edx
	movzbl	%dl, %edx
	salq	$36, %rdx
	movq	%rdx, %r8
	movq	-136(%rbp), %rdx
	shrq	$12, %rdx
	movabsq	$68719476735, %rcx
	andq	%rcx, %rdx
	movq	%r8, %rcx
	orq	%rdx, %rcx
	movabsq	$68719476735, %rdx
	andq	%rcx, %rdx
	movq	%rdx, %rcx
	andl	$15, %ecx
	movl	%ecx, %r8d
	sall	$4, %r8d
	movzbl	1(%rax), %ecx
	andl	$15, %ecx
	orl	%r8d, %ecx
	movb	%cl, 1(%rax)
	movq	%rdx, %rcx
	shrq	$4, %rcx
	movzbl	%cl, %r8d
	movzbl	2(%rax), %ecx
	andl	$0, %ecx
	orl	%r8d, %ecx
	movb	%cl, 2(%rax)
	movq	%rdx, %rcx
	shrq	$12, %rcx
	movzbl	%cl, %r8d
	movzbl	3(%rax), %ecx
	andl	$0, %ecx
	orl	%r8d, %ecx
	movb	%cl, 3(%rax)
	movq	%rdx, %rcx
	shrq	$20, %rcx
	movzbl	%cl, %r8d
	movzbl	4(%rax), %ecx
	andl	$0, %ecx
	orl	%r8d, %ecx
	movb	%cl, 4(%rax)
	shrq	$28, %rdx
	movzbl	%dl, %ecx
	movzbl	5(%rax), %edx
	andl	$0, %edx
	orl	%ecx, %edx
	movb	%dl, 5(%rax)
	.loc 1 86 0
	movq	16(%rbp), %rax
	movq	48(%rax), %rax
	movzbl	(%rax), %edx
	orl	$2, %edx
	movb	%dl, (%rax)
	.loc 1 87 0
	movq	16(%rbp), %rax
	movq	48(%rax), %rax
	movzbl	(%rax), %edx
	orl	$1, %edx
	movb	%dl, (%rax)
	.loc 1 88 0
	movq	16(%rbp), %rax
	movq	56(%rax), %rax
	movq	%rax, -64(%rbp)
.LBB62:
.LBB63:
	.loc 2 58 0
	movq	-64(%rbp), %rax
/APP
 # 58 "D:\Pool\eclipse-workspace_aarch64\newspace\raspiOS\include/asm_instructions.h" 1
	at S1E1R,%rax 
	
 # 0 "" 2
/NO_APP
.LBB64:
.LBB65:
	.loc 3 1034 0
/APP
 # 1034 "D:\Pool\eclipse-workspace_aarch64\newspace\raspiOS\include/arch/common_aarch64/system_common_registers.h" 1
	mrs %rax,PAR_EL1
	
 # 0 "" 2
/NO_APP
	movq	%rax, -184(%rbp)
	movq	-184(%rbp), %rax
.LBE65:
.LBE64:
.LBE63:
.LBE62:
	.loc 1 88 0
	movq	%rax, -136(%rbp)
	.loc 1 89 0
	movq	16(%rbp), %rax
	movq	48(%rax), %rax
	movzbl	-130(%rbp), %edx
	andl	$15, %edx
	movzbl	%dl, %edx
	salq	$36, %rdx
	movq	%rdx, %r8
	movq	-136(%rbp), %rdx
	shrq	$12, %rdx
	movabsq	$68719476735, %rcx
	andq	%rcx, %rdx
	movq	%r8, %rcx
	orq	%rdx, %rcx
	movabsq	$68719476735, %rdx
	andq	%rcx, %rdx
	movq	%rdx, %rcx
	andl	$15, %ecx
	movl	%ecx, %r8d
	sall	$4, %r8d
	movzbl	1(%rax), %ecx
	andl	$15, %ecx
	orl	%r8d, %ecx
	movb	%cl, 1(%rax)
	movq	%rdx, %rcx
	shrq	$4, %rcx
	movzbl	%cl, %r8d
	movzbl	2(%rax), %ecx
	andl	$0, %ecx
	orl	%r8d, %ecx
	movb	%cl, 2(%rax)
	movq	%rdx, %rcx
	shrq	$12, %rcx
	movzbl	%cl, %r8d
	movzbl	3(%rax), %ecx
	andl	$0, %ecx
	orl	%r8d, %ecx
	movb	%cl, 3(%rax)
	movq	%rdx, %rcx
	shrq	$20, %rcx
	movzbl	%cl, %r8d
	movzbl	4(%rax), %ecx
	andl	$0, %ecx
	orl	%r8d, %ecx
	movb	%cl, 4(%rax)
	shrq	$28, %rdx
	movzbl	%dl, %ecx
	movzbl	5(%rax), %edx
	andl	$0, %edx
	orl	%ecx, %edx
	movb	%dl, 5(%rax)
	.loc 1 92 0
	movq	16(%rbp), %rax
	movq	56(%rax), %rax
	movzbl	(%rax), %edx
	orl	$2, %edx
	movb	%dl, (%rax)
	.loc 1 93 0
	movq	16(%rbp), %rax
	movq	56(%rax), %rax
	movzbl	(%rax), %edx
	orl	$1, %edx
	movb	%dl, (%rax)
	.loc 1 94 0
	movq	16(%rbp), %rax
	movq	64(%rax), %rax
	movq	%rax, -56(%rbp)
.LBB66:
.LBB67:
	.loc 2 58 0
	movq	-56(%rbp), %rax
/APP
 # 58 "D:\Pool\eclipse-workspace_aarch64\newspace\raspiOS\include/asm_instructions.h" 1
	at S1E1R,%rax 
	
 # 0 "" 2
/NO_APP
.LBB68:
.LBB69:
	.loc 3 1034 0
/APP
 # 1034 "D:\Pool\eclipse-workspace_aarch64\newspace\raspiOS\include/arch/common_aarch64/system_common_registers.h" 1
	mrs %rax,PAR_EL1
	
 # 0 "" 2
/NO_APP
	movq	%rax, -192(%rbp)
	movq	-192(%rbp), %rax
.LBE69:
.LBE68:
.LBE67:
.LBE66:
	.loc 1 94 0
	movq	%rax, -136(%rbp)
	.loc 1 95 0
	movq	16(%rbp), %rax
	movq	56(%rax), %rax
	movzbl	-130(%rbp), %edx
	andl	$15, %edx
	movzbl	%dl, %edx
	salq	$36, %rdx
	movq	%rdx, %r8
	movq	-136(%rbp), %rdx
	shrq	$12, %rdx
	movabsq	$68719476735, %rcx
	andq	%rcx, %rdx
	movq	%r8, %rcx
	orq	%rdx, %rcx
	movabsq	$68719476735, %rdx
	andq	%rcx, %rdx
	movq	%rdx, %rcx
	andl	$15, %ecx
	movl	%ecx, %r8d
	sall	$4, %r8d
	movzbl	1(%rax), %ecx
	andl	$15, %ecx
	orl	%r8d, %ecx
	movb	%cl, 1(%rax)
	movq	%rdx, %rcx
	shrq	$4, %rcx
	movzbl	%cl, %r8d
	movzbl	2(%rax), %ecx
	andl	$0, %ecx
	orl	%r8d, %ecx
	movb	%cl, 2(%rax)
	movq	%rdx, %rcx
	shrq	$12, %rcx
	movzbl	%cl, %r8d
	movzbl	3(%rax), %ecx
	andl	$0, %ecx
	orl	%r8d, %ecx
	movb	%cl, 3(%rax)
	movq	%rdx, %rcx
	shrq	$20, %rcx
	movzbl	%cl, %r8d
	movzbl	4(%rax), %ecx
	andl	$0, %ecx
	orl	%r8d, %ecx
	movb	%cl, 4(%rax)
	shrq	$28, %rdx
	movzbl	%dl, %ecx
	movzbl	5(%rax), %edx
	andl	$0, %edx
	orl	%ecx, %edx
	movb	%dl, 5(%rax)
	.loc 1 97 0
	movq	16(%rbp), %rax
	movq	72(%rax), %rax
	movq	%rax, -48(%rbp)
.LBB70:
.LBB71:
	.loc 2 58 0
	movq	-48(%rbp), %rax
/APP
 # 58 "D:\Pool\eclipse-workspace_aarch64\newspace\raspiOS\include/asm_instructions.h" 1
	at S1E1R,%rax 
	
 # 0 "" 2
/NO_APP
.LBB72:
.LBB73:
	.loc 3 1034 0
/APP
 # 1034 "D:\Pool\eclipse-workspace_aarch64\newspace\raspiOS\include/arch/common_aarch64/system_common_registers.h" 1
	mrs %rax,PAR_EL1
	
 # 0 "" 2
/NO_APP
	movq	%rax, -200(%rbp)
	movq	-200(%rbp), %rax
.LBE73:
.LBE72:
.LBE71:
.LBE70:
	.loc 1 97 0
	movq	%rax, -136(%rbp)
.LBB74:
	.loc 1 99 0
	movq	$0, -16(%rbp)
.L20:
	.loc 1 99 0 is_stmt 0 discriminator 3
	cmpq	$5, -16(%rbp)
	je	.L19
	.loc 1 101 0 is_stmt 1 discriminator 2
	movq	16(%rbp), %rax
	movq	64(%rax), %rax
	movq	-16(%rbp), %rdx
	addq	$1, %rdx
	salq	$3, %rdx
	addq	%rdx, %rax
	movq	$0, (%rax)
	.loc 1 102 0 discriminator 2
	movq	16(%rbp), %rax
	movq	64(%rax), %rax
	movq	-16(%rbp), %rdx
	addq	$1, %rdx
	salq	$3, %rdx
	addq	%rdx, %rax
	movzbl	(%rax), %edx
	orl	$2, %edx
	movb	%dl, (%rax)
	.loc 1 103 0 discriminator 2
	movq	16(%rbp), %rax
	movq	64(%rax), %rax
	movq	-16(%rbp), %rdx
	addq	$1, %rdx
	salq	$3, %rdx
	addq	%rdx, %rax
	movzbl	1(%rax), %edx
	orl	$4, %edx
	movb	%dl, 1(%rax)
	.loc 1 104 0 discriminator 2
	movq	16(%rbp), %rax
	movq	64(%rax), %rax
	movq	-16(%rbp), %rdx
	addq	$1, %rdx
	salq	$3, %rdx
	addq	%rdx, %rax
	movzbl	(%rax), %edx
	orl	$1, %edx
	movb	%dl, (%rax)
	.loc 1 105 0 discriminator 2
	movq	16(%rbp), %rax
	movq	64(%rax), %rax
	movq	-16(%rbp), %rdx
	addq	$1, %rdx
	salq	$3, %rdx
	addq	%rdx, %rax
	movzbl	1(%rax), %edx
	orl	$8, %edx
	movb	%dl, 1(%rax)
	.loc 1 106 0 discriminator 2
	movq	16(%rbp), %rax
	movq	64(%rax), %rax
	movq	-16(%rbp), %rdx
	addq	$1, %rdx
	salq	$3, %rdx
	addq	%rdx, %rax
	movzbl	(%rax), %edx
	orl	$32, %edx
	movb	%dl, (%rax)
	.loc 1 107 0 discriminator 2
	movq	16(%rbp), %rax
	movq	64(%rax), %rax
	movq	-16(%rbp), %rdx
	addq	$1, %rdx
	salq	$3, %rdx
	addq	%rdx, %rax
	movzbl	6(%rax), %edx
	orl	$16, %edx
	movb	%dl, 6(%rax)
	.loc 1 108 0 discriminator 2
	movq	16(%rbp), %rax
	movq	64(%rax), %rax
	movq	-16(%rbp), %rdx
	addq	$1, %rdx
	salq	$3, %rdx
	addq	%rdx, %rax
	movzbl	(%rax), %edx
	orl	$-64, %edx
	movb	%dl, (%rax)
	.loc 1 109 0 discriminator 2
	movq	16(%rbp), %rax
	movq	64(%rax), %rax
	movq	-16(%rbp), %rdx
	addq	$1, %rdx
	salq	$3, %rdx
	addq	%rdx, %rax
	movzbl	-130(%rbp), %edx
	andl	$15, %edx
	movzbl	%dl, %edx
	salq	$36, %rdx
	movq	%rdx, %r8
	movq	-136(%rbp), %rdx
	shrq	$12, %rdx
	movabsq	$68719476735, %rcx
	andq	%rcx, %rdx
	movq	%r8, %rcx
	orq	%rdx, %rcx
	movq	-16(%rbp), %rdx
	addq	%rdx, %rcx
	movabsq	$68719476735, %rdx
	andq	%rcx, %rdx
	movq	%rdx, %rcx
	andl	$15, %ecx
	movl	%ecx, %r8d
	sall	$4, %r8d
	movzbl	1(%rax), %ecx
	andl	$15, %ecx
	orl	%r8d, %ecx
	movb	%cl, 1(%rax)
	movq	%rdx, %rcx
	shrq	$4, %rcx
	movzbl	%cl, %r8d
	movzbl	2(%rax), %ecx
	andl	$0, %ecx
	orl	%r8d, %ecx
	movb	%cl, 2(%rax)
	movq	%rdx, %rcx
	shrq	$12, %rcx
	movzbl	%cl, %r8d
	movzbl	3(%rax), %ecx
	andl	$0, %ecx
	orl	%r8d, %ecx
	movb	%cl, 3(%rax)
	movq	%rdx, %rcx
	shrq	$20, %rcx
	movzbl	%cl, %r8d
	movzbl	4(%rax), %ecx
	andl	$0, %ecx
	orl	%r8d, %ecx
	movb	%cl, 4(%rax)
	shrq	$28, %rdx
	movzbl	%dl, %ecx
	movzbl	5(%rax), %edx
	andl	$0, %edx
	orl	%ecx, %edx
	movb	%dl, 5(%rax)
	.loc 1 99 0 discriminator 2
	addq	$1, -16(%rbp)
	jmp	.L20
.L19:
.LBE74:
	.loc 1 111 0
	movq	16(%rbp), %rax
	movq	104(%rax), %rax
	movq	%rax, -80(%rbp)
.LBB75:
.LBB76:
	.loc 2 58 0
	movq	-80(%rbp), %rax
/APP
 # 58 "D:\Pool\eclipse-workspace_aarch64\newspace\raspiOS\include/asm_instructions.h" 1
	at S1E1R,%rax 
	
 # 0 "" 2
/NO_APP
.LBB77:
.LBB78:
	.loc 3 1034 0
/APP
 # 1034 "D:\Pool\eclipse-workspace_aarch64\newspace\raspiOS\include/arch/common_aarch64/system_common_registers.h" 1
	mrs %rax,PAR_EL1
	
 # 0 "" 2
/NO_APP
	movq	%rax, -168(%rbp)
	movq	-168(%rbp), %rax
	movq	%rax, -144(%rbp)
.LBE78:
.LBE77:
.LBE76:
.LBE75:
.LBB79:
	.loc 1 112 0
	movq	$0, -24(%rbp)
.L24:
	.loc 1 112 0 is_stmt 0 discriminator 3
	cmpq	$1, -24(%rbp)
	ja	.L23
	.loc 1 114 0 is_stmt 1 discriminator 2
	movq	16(%rbp), %rax
	movq	64(%rax), %rax
	movq	-24(%rbp), %rdx
	addq	$508, %rdx
	salq	$3, %rdx
	addq	%rdx, %rax
	movq	$0, (%rax)
	.loc 1 115 0 discriminator 2
	movq	16(%rbp), %rax
	movq	64(%rax), %rax
	movq	-24(%rbp), %rdx
	addq	$508, %rdx
	salq	$3, %rdx
	addq	%rdx, %rax
	movzbl	(%rax), %edx
	orl	$2, %edx
	movb	%dl, (%rax)
	.loc 1 116 0 discriminator 2
	movq	16(%rbp), %rax
	movq	64(%rax), %rax
	movq	-24(%rbp), %rdx
	addq	$508, %rdx
	salq	$3, %rdx
	addq	%rdx, %rax
	movzbl	1(%rax), %edx
	orl	$4, %edx
	movb	%dl, 1(%rax)
	.loc 1 117 0 discriminator 2
	movq	16(%rbp), %rax
	movq	64(%rax), %rax
	movq	-24(%rbp), %rdx
	addq	$508, %rdx
	salq	$3, %rdx
	addq	%rdx, %rax
	movzbl	(%rax), %edx
	orl	$1, %edx
	movb	%dl, (%rax)
	.loc 1 118 0 discriminator 2
	movq	16(%rbp), %rax
	movq	64(%rax), %rax
	movq	-24(%rbp), %rdx
	addq	$508, %rdx
	salq	$3, %rdx
	addq	%rdx, %rax
	movzbl	1(%rax), %edx
	orl	$8, %edx
	movb	%dl, 1(%rax)
	.loc 1 119 0 discriminator 2
	movq	16(%rbp), %rax
	movq	64(%rax), %rax
	movq	-24(%rbp), %rdx
	addq	$508, %rdx
	salq	$3, %rdx
	addq	%rdx, %rax
	movzbl	(%rax), %edx
	orl	$32, %edx
	movb	%dl, (%rax)
	.loc 1 120 0 discriminator 2
	movq	16(%rbp), %rax
	movq	64(%rax), %rax
	movq	-24(%rbp), %rdx
	addq	$508, %rdx
	salq	$3, %rdx
	addq	%rdx, %rax
	movzbl	6(%rax), %edx
	andl	$-17, %edx
	movb	%dl, 6(%rax)
	.loc 1 121 0 discriminator 2
	movq	16(%rbp), %rax
	movq	64(%rax), %rax
	movq	-24(%rbp), %rdx
	addq	$508, %rdx
	salq	$3, %rdx
	addq	%rdx, %rax
	movzbl	(%rax), %edx
	andl	$63, %edx
	orl	$64, %edx
	movb	%dl, (%rax)
	.loc 1 122 0 discriminator 2
	movq	16(%rbp), %rax
	movq	64(%rax), %rax
	movq	-24(%rbp), %rdx
	addq	$508, %rdx
	salq	$3, %rdx
	addq	%rdx, %rax
	movzbl	-138(%rbp), %edx
	andl	$15, %edx
	movzbl	%dl, %edx
	salq	$36, %rdx
	movq	%rdx, %r8
	movq	-144(%rbp), %rdx
	shrq	$12, %rdx
	movabsq	$68719476735, %rcx
	andq	%rcx, %rdx
	movq	%r8, %rcx
	orq	%rdx, %rcx
	movq	-24(%rbp), %rdx
	addq	%rdx, %rcx
	movabsq	$68719476735, %rdx
	andq	%rcx, %rdx
	movq	%rdx, %rcx
	andl	$15, %ecx
	movl	%ecx, %r8d
	sall	$4, %r8d
	movzbl	1(%rax), %ecx
	andl	$15, %ecx
	orl	%r8d, %ecx
	movb	%cl, 1(%rax)
	movq	%rdx, %rcx
	shrq	$4, %rcx
	movzbl	%cl, %r8d
	movzbl	2(%rax), %ecx
	andl	$0, %ecx
	orl	%r8d, %ecx
	movb	%cl, 2(%rax)
	movq	%rdx, %rcx
	shrq	$12, %rcx
	movzbl	%cl, %r8d
	movzbl	3(%rax), %ecx
	andl	$0, %ecx
	orl	%r8d, %ecx
	movb	%cl, 3(%rax)
	movq	%rdx, %rcx
	shrq	$20, %rcx
	movzbl	%cl, %r8d
	movzbl	4(%rax), %ecx
	andl	$0, %ecx
	orl	%r8d, %ecx
	movb	%cl, 4(%rax)
	shrq	$28, %rdx
	movzbl	%dl, %ecx
	movzbl	5(%rax), %edx
	andl	$0, %edx
	orl	%ecx, %edx
	movb	%dl, 5(%rax)
	.loc 1 112 0 discriminator 2
	addq	$1, -24(%rbp)
	jmp	.L24
.L23:
.LBE79:
	.loc 1 125 0
	movq	16(%rbp), %rax
	movq	88(%rax), %rax
	movq	%rax, -88(%rbp)
.LBB80:
.LBB81:
	.loc 2 58 0
	movq	-88(%rbp), %rax
/APP
 # 58 "D:\Pool\eclipse-workspace_aarch64\newspace\raspiOS\include/asm_instructions.h" 1
	at S1E1R,%rax 
	
 # 0 "" 2
/NO_APP
.LBB82:
.LBB83:
	.loc 3 1034 0
/APP
 # 1034 "D:\Pool\eclipse-workspace_aarch64\newspace\raspiOS\include/arch/common_aarch64/system_common_registers.h" 1
	mrs %rax,PAR_EL1
	
 # 0 "" 2
/NO_APP
	movq	%rax, -160(%rbp)
	movq	-160(%rbp), %rax
	movq	%rax, -152(%rbp)
.LBE83:
.LBE82:
.LBE81:
.LBE80:
.LBB84:
	.loc 1 126 0
	movq	$0, -32(%rbp)
.L28:
	.loc 1 126 0 is_stmt 0 discriminator 3
	cmpq	$2, -32(%rbp)
	je	.L27
	.loc 1 128 0 is_stmt 1 discriminator 2
	movq	16(%rbp), %rax
	movq	64(%rax), %rax
	movq	-32(%rbp), %rdx
	addq	$510, %rdx
	salq	$3, %rdx
	addq	%rdx, %rax
	movq	$0, (%rax)
	.loc 1 129 0 discriminator 2
	movq	16(%rbp), %rax
	movq	64(%rax), %rax
	movq	-32(%rbp), %rdx
	addq	$510, %rdx
	salq	$3, %rdx
	addq	%rdx, %rax
	movzbl	(%rax), %edx
	orl	$2, %edx
	movb	%dl, (%rax)
	.loc 1 130 0 discriminator 2
	movq	16(%rbp), %rax
	movq	64(%rax), %rax
	movq	-32(%rbp), %rdx
	addq	$510, %rdx
	salq	$3, %rdx
	addq	%rdx, %rax
	movzbl	1(%rax), %edx
	orl	$4, %edx
	movb	%dl, 1(%rax)
	.loc 1 131 0 discriminator 2
	movq	16(%rbp), %rax
	movq	64(%rax), %rax
	movq	-32(%rbp), %rdx
	addq	$510, %rdx
	salq	$3, %rdx
	addq	%rdx, %rax
	movzbl	(%rax), %edx
	orl	$1, %edx
	movb	%dl, (%rax)
	.loc 1 132 0 discriminator 2
	movq	16(%rbp), %rax
	movq	64(%rax), %rax
	movq	-32(%rbp), %rdx
	addq	$510, %rdx
	salq	$3, %rdx
	addq	%rdx, %rax
	movzbl	1(%rax), %edx
	orl	$8, %edx
	movb	%dl, 1(%rax)
	.loc 1 133 0 discriminator 2
	movq	16(%rbp), %rax
	movq	64(%rax), %rax
	movq	-32(%rbp), %rdx
	addq	$510, %rdx
	salq	$3, %rdx
	addq	%rdx, %rax
	movzbl	(%rax), %edx
	orl	$32, %edx
	movb	%dl, (%rax)
	.loc 1 134 0 discriminator 2
	movq	16(%rbp), %rax
	movq	64(%rax), %rax
	movq	-32(%rbp), %rdx
	addq	$510, %rdx
	salq	$3, %rdx
	addq	%rdx, %rax
	movzbl	6(%rax), %edx
	andl	$-17, %edx
	movb	%dl, 6(%rax)
	.loc 1 135 0 discriminator 2
	movq	16(%rbp), %rax
	movq	64(%rax), %rax
	movq	-32(%rbp), %rdx
	addq	$510, %rdx
	salq	$3, %rdx
	addq	%rdx, %rax
	movzbl	(%rax), %edx
	andl	$63, %edx
	orl	$64, %edx
	movb	%dl, (%rax)
	.loc 1 136 0 discriminator 2
	movq	16(%rbp), %rax
	movq	64(%rax), %rax
	movq	-32(%rbp), %rdx
	addq	$510, %rdx
	salq	$3, %rdx
	addq	%rdx, %rax
	movzbl	-146(%rbp), %edx
	andl	$15, %edx
	movzbl	%dl, %edx
	salq	$36, %rdx
	movq	%rdx, %r8
	movq	-152(%rbp), %rdx
	shrq	$12, %rdx
	movabsq	$68719476735, %rcx
	andq	%rcx, %rdx
	movq	%r8, %rcx
	orq	%rdx, %rcx
	movq	-32(%rbp), %rdx
	addq	%rdx, %rcx
	movabsq	$68719476735, %rdx
	andq	%rcx, %rdx
	movq	%rdx, %rcx
	andl	$15, %ecx
	movl	%ecx, %r8d
	sall	$4, %r8d
	movzbl	1(%rax), %ecx
	andl	$15, %ecx
	orl	%r8d, %ecx
	movb	%cl, 1(%rax)
	movq	%rdx, %rcx
	shrq	$4, %rcx
	movzbl	%cl, %r8d
	movzbl	2(%rax), %ecx
	andl	$0, %ecx
	orl	%r8d, %ecx
	movb	%cl, 2(%rax)
	movq	%rdx, %rcx
	shrq	$12, %rcx
	movzbl	%cl, %r8d
	movzbl	3(%rax), %ecx
	andl	$0, %ecx
	orl	%r8d, %ecx
	movb	%cl, 3(%rax)
	movq	%rdx, %rcx
	shrq	$20, %rcx
	movzbl	%cl, %r8d
	movzbl	4(%rax), %ecx
	andl	$0, %ecx
	orl	%r8d, %ecx
	movb	%cl, 4(%rax)
	shrq	$28, %rdx
	movzbl	%dl, %ecx
	movzbl	5(%rax), %edx
	andl	$0, %edx
	orl	%ecx, %edx
	movb	%dl, 5(%rax)
	.loc 1 126 0 discriminator 2
	addq	$1, -32(%rbp)
	jmp	.L28
.L27:
.LBE84:
	.loc 1 139 0
	movq	16(%rbp), %rax
	movl	$1, 8(%rax)
	.loc 1 140 0
	movl	$0, %eax
.L29:
	.loc 1 142 0 discriminator 1
	addq	$240, %rsp
	popq	%rbp
	.cfi_restore 6
	.cfi_def_cfa 7, 8
	ret
	.cfi_endproc
.LFE1557:
	.seh_endproc
	.align 2
	.globl	_ZN7Process7destroyEv
	.def	_ZN7Process7destroyEv;	.scl	2;	.type	32;	.endef
	.seh_proc	_ZN7Process7destroyEv
_ZN7Process7destroyEv:
.LFB1558:
	.loc 1 145 0
	.cfi_startproc
	pushq	%rbp
	.seh_pushreg	%rbp
	.cfi_def_cfa_offset 16
	.cfi_offset 6, -16
	movq	%rsp, %rbp
	.seh_setframe	%rbp, 0
	.cfi_def_cfa_register 6
	subq	$32, %rsp
	.seh_stackalloc	32
	.seh_endprologue
	movq	%rcx, 16(%rbp)
	.loc 1 146 0
	movq	16(%rbp), %rax
	movl	8(%rax), %eax
	cmpl	$6, %eax
	je	.L34
	.loc 1 149 0
	movq	16(%rbp), %rax
	movzwl	(%rax), %eax
	testw	%ax, %ax
	je	.L33
	.loc 1 151 0
	movq	16(%rbp), %rax
	movzwl	(%rax), %eax
	movzwl	%ax, %eax
	movl	%eax, %edx
	movq	.refptr.pidManager(%rip), %rcx
	call	_ZN10PidManager10deallocateEt
	.loc 1 152 0
	movq	16(%rbp), %rax
	movw	$0, (%rax)
.L33:
	.loc 1 154 0
	movq	16(%rbp), %rax
	movq	104(%rax), %rax
	movq	%rax, %rdx
	movq	.refptr.mman(%rip), %rcx
	call	_ZN13MemoryManager10deallocateEPv
	.loc 1 155 0
	movq	16(%rbp), %rax
	movq	88(%rax), %rax
	movq	%rax, %rdx
	movq	.refptr.mman(%rip), %rcx
	call	_ZN13MemoryManager10deallocateEPv
	.loc 1 156 0
	movq	16(%rbp), %rax
	movq	72(%rax), %rax
	movq	%rax, %rdx
	movq	.refptr.mman(%rip), %rcx
	call	_ZN13MemoryManager10deallocateEPv
	.loc 1 157 0
	movq	16(%rbp), %rax
	movq	40(%rax), %rax
	movq	%rax, %rdx
	movq	.refptr.mman(%rip), %rcx
	call	_ZN13MemoryManager10deallocateEPv
	.loc 1 158 0
	movq	16(%rbp), %rax
	movq	48(%rax), %rax
	movq	%rax, %rdx
	movq	.refptr.mman(%rip), %rcx
	call	_ZN13MemoryManager10deallocateEPv
	.loc 1 159 0
	movq	16(%rbp), %rax
	movq	56(%rax), %rax
	movq	%rax, %rdx
	movq	.refptr.mman(%rip), %rcx
	call	_ZN13MemoryManager10deallocateEPv
	.loc 1 160 0
	movq	16(%rbp), %rax
	movq	64(%rax), %rax
	movq	%rax, %rdx
	movq	.refptr.mman(%rip), %rcx
	call	_ZN13MemoryManager10deallocateEPv
	.loc 1 172 0
	movq	16(%rbp), %rax
	movl	$6, 8(%rax)
	jmp	.L30
.L34:
	.loc 1 147 0
	nop
.L30:
	.loc 1 173 0
	addq	$32, %rsp
	popq	%rbp
	.cfi_restore 6
	.cfi_def_cfa 7, 8
	ret
	.cfi_endproc
.LFE1558:
	.seh_endproc
	.align 2
	.globl	_ZN7Process11saveContextEPKm
	.def	_ZN7Process11saveContextEPKm;	.scl	2;	.type	32;	.endef
	.seh_proc	_ZN7Process11saveContextEPKm
_ZN7Process11saveContextEPKm:
.LFB1559:
	.loc 1 176 0
	.cfi_startproc
	pushq	%rbp
	.seh_pushreg	%rbp
	.cfi_def_cfa_offset 16
	.cfi_offset 6, -16
	movq	%rsp, %rbp
	.seh_setframe	%rbp, 0
	.cfi_def_cfa_register 6
	subq	$64, %rsp
	.seh_stackalloc	64
	.seh_endprologue
	movq	%rcx, 16(%rbp)
	movq	%rdx, 24(%rbp)
	.loc 1 177 0
	movq	16(%rbp), %rax
	leaq	120(%rax), %rcx
	movq	24(%rbp), %rax
	movl	$248, %r8d
	movq	%rax, %rdx
	call	memcpy
	.loc 1 178 0
	movq	16(%rbp), %rax
	addq	$24, %rax
	movq	%rax, -32(%rbp)
.LBB85:
.LBB86:
	.loc 3 936 0
/APP
 # 936 "D:\Pool\eclipse-workspace_aarch64\newspace\raspiOS\include/arch/common_aarch64/system_common_registers.h" 1
	mrs %rdx,TTBR0_EL1
	
 # 0 "" 2
/NO_APP
	movq	-32(%rbp), %rax
	movq	%rdx, (%rax)
.LBE86:
.LBE85:
	.loc 1 179 0
	movq	16(%rbp), %rax
	addq	$368, %rax
	movq	%rax, -24(%rbp)
.LBB87:
.LBB88:
	.loc 3 93 0
/APP
 # 93 "D:\Pool\eclipse-workspace_aarch64\newspace\raspiOS\include/arch/common_aarch64/system_common_registers.h" 1
	mrs %rdx,ELR_EL1
	
 # 0 "" 2
/NO_APP
	movq	-24(%rbp), %rax
	movq	%rdx, (%rax)
.LBE88:
.LBE87:
	.loc 1 180 0
	movq	16(%rbp), %rax
	addq	$376, %rax
	movq	%rax, -16(%rbp)
.LBB89:
.LBB90:
	.loc 3 312 0
/APP
 # 312 "D:\Pool\eclipse-workspace_aarch64\newspace\raspiOS\include/arch/common_aarch64/system_common_registers.h" 1
	mrs %edx,SPSR_EL1
	
 # 0 "" 2
/NO_APP
	movq	-16(%rbp), %rax
	movl	%edx, (%rax)
.LBE90:
.LBE89:
	.loc 1 181 0
	movq	16(%rbp), %rax
	addq	$32, %rax
	movq	%rax, -8(%rbp)
.LBB91:
.LBB92:
	.loc 3 460 0
/APP
 # 460 "D:\Pool\eclipse-workspace_aarch64\newspace\raspiOS\include/arch/common_aarch64/system_common_registers.h" 1
	mrs %rdx,SP_EL0
	
 # 0 "" 2
/NO_APP
	movq	-8(%rbp), %rax
	movq	%rdx, (%rax)
.LBE92:
.LBE91:
	.loc 1 182 0
	nop
	addq	$64, %rsp
	popq	%rbp
	.cfi_restore 6
	.cfi_def_cfa 7, 8
	ret
	.cfi_endproc
.LFE1559:
	.seh_endproc
	.align 2
	.globl	_ZN7Process24restoreContextAndExecuteEv
	.def	_ZN7Process24restoreContextAndExecuteEv;	.scl	2;	.type	32;	.endef
	.seh_proc	_ZN7Process24restoreContextAndExecuteEv
_ZN7Process24restoreContextAndExecuteEv:
.LFB1560:
	.loc 1 185 0
	.cfi_startproc
	pushq	%rbp
	.seh_pushreg	%rbp
	.cfi_def_cfa_offset 16
	.cfi_offset 6, -16
	movq	%rsp, %rbp
	.seh_setframe	%rbp, 0
	.cfi_def_cfa_register 6
	subq	$32, %rsp
	.seh_stackalloc	32
	.seh_endprologue
	movq	%rcx, 16(%rbp)
	.loc 1 186 0
	movq	16(%rbp), %rax
	addq	$24, %rax
	movq	%rax, -32(%rbp)
.LBB93:
.LBB94:
	.loc 3 937 0
	movq	-32(%rbp), %rax
	movq	(%rax), %rax
/APP
 # 937 "D:\Pool\eclipse-workspace_aarch64\newspace\raspiOS\include/arch/common_aarch64/system_common_registers.h" 1
	msr TTBR0_EL1,%rax 
	
 # 0 "" 2
/NO_APP
.LBE94:
.LBE93:
	.loc 1 187 0
	movq	16(%rbp), %rax
	addq	$368, %rax
	movq	%rax, -24(%rbp)
.LBB95:
.LBB96:
	.loc 3 94 0
	movq	-24(%rbp), %rax
	movq	(%rax), %rax
/APP
 # 94 "D:\Pool\eclipse-workspace_aarch64\newspace\raspiOS\include/arch/common_aarch64/system_common_registers.h" 1
	msr ELR_EL1,%rax 
	
 # 0 "" 2
/NO_APP
.LBE96:
.LBE95:
	.loc 1 188 0
	movq	16(%rbp), %rax
	addq	$376, %rax
	movq	%rax, -16(%rbp)
.LBB97:
.LBB98:
	.loc 3 313 0
	movq	-16(%rbp), %rax
	movl	(%rax), %eax
/APP
 # 313 "D:\Pool\eclipse-workspace_aarch64\newspace\raspiOS\include/arch/common_aarch64/system_common_registers.h" 1
	msr SPSR_EL1,%eax 
	
 # 0 "" 2
/NO_APP
.LBE98:
.LBE97:
	.loc 1 189 0
	movq	16(%rbp), %rax
	addq	$32, %rax
	movq	%rax, -8(%rbp)
.LBB99:
.LBB100:
	.loc 3 461 0
	movq	-8(%rbp), %rax
	movq	(%rax), %rax
/APP
 # 461 "D:\Pool\eclipse-workspace_aarch64\newspace\raspiOS\include/arch/common_aarch64/system_common_registers.h" 1
	msr SP_EL0,%rax 
	
 # 0 "" 2
/NO_APP
.LBE100:
.LBE99:
	.loc 1 195 0
	movq	16(%rbp), %rax
	addq	$120, %rax
	addq	$248, %rax
	.loc 1 197 0
/APP
 # 197 "D:/Pool/eclipse-workspace_aarch64/newspace/raspiOS/src/schedule/Process.cpp" 1
	mov sp,%rax 
	ldr x0,[sp],#8 
	ldp x1,x2,[sp],#16 
	ldp x3,x4,[sp],#16 
	ldp x5,x6,[sp],#16 
	ldp x7,x8,[sp],#16 
	ldp x9,x10,[sp],#16 
	ldp x11,x12,[sp],#16 
	ldp x13,x14,[sp],#16 
	ldp x15,x16,[sp],#16 
	ldp x17,x18,[sp],#16 
	ldp x19,x20,[sp],#16 
	ldp x21,x22,[sp],#16 
	ldp x23,x24,[sp],#16 
	ldp x25,x26,[sp],#16 
	ldp x27,x28,[sp],#16 
	ldp x29,x30,[sp],#16 
	eret 
	
 # 0 "" 2
	.loc 1 198 0
/NO_APP
	nop
	movq	%rbp, %rsp
	popq	%rbp
	.cfi_restore 6
	.cfi_def_cfa 7, 8
	ret
	.cfi_endproc
.LFE1560:
	.seh_endproc
	.align 2
	.globl	_ZNK7Process8codeBaseEv
	.def	_ZNK7Process8codeBaseEv;	.scl	2;	.type	32;	.endef
	.seh_proc	_ZNK7Process8codeBaseEv
_ZNK7Process8codeBaseEv:
.LFB1561:
	.loc 1 200 0
	.cfi_startproc
	pushq	%rbp
	.seh_pushreg	%rbp
	.cfi_def_cfa_offset 16
	.cfi_offset 6, -16
	movq	%rsp, %rbp
	.seh_setframe	%rbp, 0
	.cfi_def_cfa_register 6
	.seh_endprologue
	movq	%rcx, 16(%rbp)
	.loc 1 201 0
	movq	16(%rbp), %rax
	movq	72(%rax), %rax
	.loc 1 202 0
	popq	%rbp
	.cfi_restore 6
	.cfi_def_cfa 7, 8
	ret
	.cfi_endproc
.LFE1561:
	.seh_endproc
	.align 2
	.globl	_ZNK7Process8codeSizeEv
	.def	_ZNK7Process8codeSizeEv;	.scl	2;	.type	32;	.endef
	.seh_proc	_ZNK7Process8codeSizeEv
_ZNK7Process8codeSizeEv:
.LFB1562:
	.loc 1 204 0
	.cfi_startproc
	pushq	%rbp
	.seh_pushreg	%rbp
	.cfi_def_cfa_offset 16
	.cfi_offset 6, -16
	movq	%rsp, %rbp
	.seh_setframe	%rbp, 0
	.cfi_def_cfa_register 6
	.seh_endprologue
	movq	%rcx, 16(%rbp)
	.loc 1 205 0
	movq	16(%rbp), %rax
	movq	80(%rax), %rax
	.loc 1 206 0
	popq	%rbp
	.cfi_restore 6
	.cfi_def_cfa 7, 8
	ret
	.cfi_endproc
.LFE1562:
	.seh_endproc
	.align 2
	.globl	_ZNK7Process3ELREv
	.def	_ZNK7Process3ELREv;	.scl	2;	.type	32;	.endef
	.seh_proc	_ZNK7Process3ELREv
_ZNK7Process3ELREv:
.LFB1563:
	.loc 1 208 0
	.cfi_startproc
	pushq	%rbp
	.seh_pushreg	%rbp
	.cfi_def_cfa_offset 16
	.cfi_offset 6, -16
	movq	%rsp, %rbp
	.seh_setframe	%rbp, 0
	.cfi_def_cfa_register 6
	.seh_endprologue
	movq	%rcx, 16(%rbp)
	.loc 1 209 0
	movq	16(%rbp), %rax
	movq	368(%rax), %rax
	.loc 1 210 0
	popq	%rbp
	.cfi_restore 6
	.cfi_def_cfa 7, 8
	ret
	.cfi_endproc
.LFE1563:
	.seh_endproc
	.align 2
	.globl	_ZNK7Process8heapBaseEv
	.def	_ZNK7Process8heapBaseEv;	.scl	2;	.type	32;	.endef
	.seh_proc	_ZNK7Process8heapBaseEv
_ZNK7Process8heapBaseEv:
.LFB1564:
	.loc 1 212 0
	.cfi_startproc
	pushq	%rbp
	.seh_pushreg	%rbp
	.cfi_def_cfa_offset 16
	.cfi_offset 6, -16
	movq	%rsp, %rbp
	.seh_setframe	%rbp, 0
	.cfi_def_cfa_register 6
	.seh_endprologue
	movq	%rcx, 16(%rbp)
	.loc 1 213 0
	movq	16(%rbp), %rax
	movq	88(%rax), %rax
	.loc 1 214 0
	popq	%rbp
	.cfi_restore 6
	.cfi_def_cfa 7, 8
	ret
	.cfi_endproc
.LFE1564:
	.seh_endproc
	.align 2
	.globl	_ZNK7Process8heapSizeEv
	.def	_ZNK7Process8heapSizeEv;	.scl	2;	.type	32;	.endef
	.seh_proc	_ZNK7Process8heapSizeEv
_ZNK7Process8heapSizeEv:
.LFB1565:
	.loc 1 216 0
	.cfi_startproc
	pushq	%rbp
	.seh_pushreg	%rbp
	.cfi_def_cfa_offset 16
	.cfi_offset 6, -16
	movq	%rsp, %rbp
	.seh_setframe	%rbp, 0
	.cfi_def_cfa_register 6
	.seh_endprologue
	movq	%rcx, 16(%rbp)
	.loc 1 217 0
	movq	16(%rbp), %rax
	movq	96(%rax), %rax
	.loc 1 218 0
	popq	%rbp
	.cfi_restore 6
	.cfi_def_cfa 7, 8
	ret
	.cfi_endproc
.LFE1565:
	.seh_endproc
	.align 2
	.globl	_ZNK7Process6parentEv
	.def	_ZNK7Process6parentEv;	.scl	2;	.type	32;	.endef
	.seh_proc	_ZNK7Process6parentEv
_ZNK7Process6parentEv:
.LFB1566:
	.loc 1 220 0
	.cfi_startproc
	pushq	%rbp
	.seh_pushreg	%rbp
	.cfi_def_cfa_offset 16
	.cfi_offset 6, -16
	movq	%rsp, %rbp
	.seh_setframe	%rbp, 0
	.cfi_def_cfa_register 6
	.seh_endprologue
	movq	%rcx, 16(%rbp)
	.loc 1 221 0
	movq	16(%rbp), %rax
	movq	16(%rax), %rax
	.loc 1 222 0
	popq	%rbp
	.cfi_restore 6
	.cfi_def_cfa 7, 8
	ret
	.cfi_endproc
.LFE1566:
	.seh_endproc
	.align 2
	.globl	_ZNK7Process3pidEv
	.def	_ZNK7Process3pidEv;	.scl	2;	.type	32;	.endef
	.seh_proc	_ZNK7Process3pidEv
_ZNK7Process3pidEv:
.LFB1567:
	.loc 1 224 0
	.cfi_startproc
	pushq	%rbp
	.seh_pushreg	%rbp
	.cfi_def_cfa_offset 16
	.cfi_offset 6, -16
	movq	%rsp, %rbp
	.seh_setframe	%rbp, 0
	.cfi_def_cfa_register 6
	.seh_endprologue
	movq	%rcx, 16(%rbp)
	.loc 1 225 0
	movq	16(%rbp), %rax
	movzwl	(%rax), %eax
	.loc 1 226 0
	popq	%rbp
	.cfi_restore 6
	.cfi_def_cfa 7, 8
	ret
	.cfi_endproc
.LFE1567:
	.seh_endproc
	.align 2
	.globl	_ZNK7Process8priorityEv
	.def	_ZNK7Process8priorityEv;	.scl	2;	.type	32;	.endef
	.seh_proc	_ZNK7Process8priorityEv
_ZNK7Process8priorityEv:
.LFB1568:
	.loc 1 228 0
	.cfi_startproc
	pushq	%rbp
	.seh_pushreg	%rbp
	.cfi_def_cfa_offset 16
	.cfi_offset 6, -16
	movq	%rsp, %rbp
	.seh_setframe	%rbp, 0
	.cfi_def_cfa_register 6
	.seh_endprologue
	movq	%rcx, 16(%rbp)
	.loc 1 229 0
	movq	16(%rbp), %rax
	movl	4(%rax), %eax
	.loc 1 230 0
	popq	%rbp
	.cfi_restore 6
	.cfi_def_cfa 7, 8
	ret
	.cfi_endproc
.LFE1568:
	.seh_endproc
	.align 2
	.globl	_ZN7Process9registersEv
	.def	_ZN7Process9registersEv;	.scl	2;	.type	32;	.endef
	.seh_proc	_ZN7Process9registersEv
_ZN7Process9registersEv:
.LFB1569:
	.loc 1 232 0
	.cfi_startproc
	pushq	%rbp
	.seh_pushreg	%rbp
	.cfi_def_cfa_offset 16
	.cfi_offset 6, -16
	movq	%rsp, %rbp
	.seh_setframe	%rbp, 0
	.cfi_def_cfa_register 6
	.seh_endprologue
	movq	%rcx, 16(%rbp)
	.loc 1 233 0
	movq	16(%rbp), %rax
	addq	$120, %rax
	.loc 1 234 0
	popq	%rbp
	.cfi_restore 6
	.cfi_def_cfa 7, 8
	ret
	.cfi_endproc
.LFE1569:
	.seh_endproc
	.align 2
	.globl	_ZNK7Process9registersEv
	.def	_ZNK7Process9registersEv;	.scl	2;	.type	32;	.endef
	.seh_proc	_ZNK7Process9registersEv
_ZNK7Process9registersEv:
.LFB1570:
	.loc 1 235 0
	.cfi_startproc
	pushq	%rbp
	.seh_pushreg	%rbp
	.cfi_def_cfa_offset 16
	.cfi_offset 6, -16
	movq	%rsp, %rbp
	.seh_setframe	%rbp, 0
	.cfi_def_cfa_register 6
	.seh_endprologue
	movq	%rcx, 16(%rbp)
	.loc 1 236 0
	movq	16(%rbp), %rax
	addq	$120, %rax
	.loc 1 237 0
	popq	%rbp
	.cfi_restore 6
	.cfi_def_cfa 7, 8
	ret
	.cfi_endproc
.LFE1570:
	.seh_endproc
	.align 2
	.globl	_ZNK7Process6spBaseEv
	.def	_ZNK7Process6spBaseEv;	.scl	2;	.type	32;	.endef
	.seh_proc	_ZNK7Process6spBaseEv
_ZNK7Process6spBaseEv:
.LFB1571:
	.loc 1 239 0
	.cfi_startproc
	pushq	%rbp
	.seh_pushreg	%rbp
	.cfi_def_cfa_offset 16
	.cfi_offset 6, -16
	movq	%rsp, %rbp
	.seh_setframe	%rbp, 0
	.cfi_def_cfa_register 6
	.seh_endprologue
	movq	%rcx, 16(%rbp)
	.loc 1 240 0
	movq	16(%rbp), %rax
	movq	104(%rax), %rax
	.loc 1 241 0
	popq	%rbp
	.cfi_restore 6
	.cfi_def_cfa 7, 8
	ret
	.cfi_endproc
.LFE1571:
	.seh_endproc
	.align 2
	.globl	_ZNK7Process5spEL0Ev
	.def	_ZNK7Process5spEL0Ev;	.scl	2;	.type	32;	.endef
	.seh_proc	_ZNK7Process5spEL0Ev
_ZNK7Process5spEL0Ev:
.LFB1572:
	.loc 1 243 0
	.cfi_startproc
	pushq	%rbp
	.seh_pushreg	%rbp
	.cfi_def_cfa_offset 16
	.cfi_offset 6, -16
	movq	%rsp, %rbp
	.seh_setframe	%rbp, 0
	.cfi_def_cfa_register 6
	.seh_endprologue
	movq	%rcx, 16(%rbp)
	.loc 1 244 0
	movq	16(%rbp), %rax
	movq	32(%rax), %rax
	.loc 1 245 0
	popq	%rbp
	.cfi_restore 6
	.cfi_def_cfa 7, 8
	ret
	.cfi_endproc
.LFE1572:
	.seh_endproc
	.align 2
	.globl	_ZNK7Process6spSizeEv
	.def	_ZNK7Process6spSizeEv;	.scl	2;	.type	32;	.endef
	.seh_proc	_ZNK7Process6spSizeEv
_ZNK7Process6spSizeEv:
.LFB1573:
	.loc 1 247 0
	.cfi_startproc
	pushq	%rbp
	.seh_pushreg	%rbp
	.cfi_def_cfa_offset 16
	.cfi_offset 6, -16
	movq	%rsp, %rbp
	.seh_setframe	%rbp, 0
	.cfi_def_cfa_register 6
	.seh_endprologue
	movq	%rcx, 16(%rbp)
	.loc 1 248 0
	movq	16(%rbp), %rax
	movq	112(%rax), %rax
	.loc 1 249 0
	popq	%rbp
	.cfi_restore 6
	.cfi_def_cfa 7, 8
	ret
	.cfi_endproc
.LFE1573:
	.seh_endproc
	.align 2
	.globl	_ZNK7Process6statusEv
	.def	_ZNK7Process6statusEv;	.scl	2;	.type	32;	.endef
	.seh_proc	_ZNK7Process6statusEv
_ZNK7Process6statusEv:
.LFB1574:
	.loc 1 251 0
	.cfi_startproc
	pushq	%rbp
	.seh_pushreg	%rbp
	.cfi_def_cfa_offset 16
	.cfi_offset 6, -16
	movq	%rsp, %rbp
	.seh_setframe	%rbp, 0
	.cfi_def_cfa_register 6
	.seh_endprologue
	movq	%rcx, 16(%rbp)
	.loc 1 252 0
	movq	16(%rbp), %rax
	movl	8(%rax), %eax
	.loc 1 253 0
	popq	%rbp
	.cfi_restore 6
	.cfi_def_cfa 7, 8
	ret
	.cfi_endproc
.LFE1574:
	.seh_endproc
	.align 2
	.globl	_ZN7Process6statusENS_6StatusE
	.def	_ZN7Process6statusENS_6StatusE;	.scl	2;	.type	32;	.endef
	.seh_proc	_ZN7Process6statusENS_6StatusE
_ZN7Process6statusENS_6StatusE:
.LFB1575:
	.loc 1 255 0
	.cfi_startproc
	pushq	%rbp
	.seh_pushreg	%rbp
	.cfi_def_cfa_offset 16
	.cfi_offset 6, -16
	movq	%rsp, %rbp
	.seh_setframe	%rbp, 0
	.cfi_def_cfa_register 6
	.seh_endprologue
	movq	%rcx, 16(%rbp)
	movl	%edx, 24(%rbp)
	.loc 1 256 0
	movq	16(%rbp), %rax
	movl	24(%rbp), %edx
	movl	%edx, 8(%rax)
	.loc 1 257 0
	nop
	popq	%rbp
	.cfi_restore 6
	.cfi_def_cfa 7, 8
	ret
	.cfi_endproc
.LFE1575:
	.seh_endproc
	.align 2
	.globl	_ZNK7Process4SPSREv
	.def	_ZNK7Process4SPSREv;	.scl	2;	.type	32;	.endef
	.seh_proc	_ZNK7Process4SPSREv
_ZNK7Process4SPSREv:
.LFB1576:
	.loc 1 258 0
	.cfi_startproc
	pushq	%rbp
	.seh_pushreg	%rbp
	.cfi_def_cfa_offset 16
	.cfi_offset 6, -16
	movq	%rsp, %rbp
	.seh_setframe	%rbp, 0
	.cfi_def_cfa_register 6
	.seh_endprologue
	movq	%rcx, 16(%rbp)
	.loc 1 259 0
	movq	16(%rbp), %rax
	movl	376(%rax), %eax
	.loc 1 260 0
	popq	%rbp
	.cfi_restore 6
	.cfi_def_cfa 7, 8
	ret
	.cfi_endproc
.LFE1576:
	.seh_endproc
	.align 2
	.globl	_ZNK7Process7tableL0Ev
	.def	_ZNK7Process7tableL0Ev;	.scl	2;	.type	32;	.endef
	.seh_proc	_ZNK7Process7tableL0Ev
_ZNK7Process7tableL0Ev:
.LFB1577:
	.loc 1 262 0
	.cfi_startproc
	pushq	%rbp
	.seh_pushreg	%rbp
	.cfi_def_cfa_offset 16
	.cfi_offset 6, -16
	movq	%rsp, %rbp
	.seh_setframe	%rbp, 0
	.cfi_def_cfa_register 6
	.seh_endprologue
	movq	%rcx, 16(%rbp)
	.loc 1 263 0
	movq	16(%rbp), %rax
	movq	40(%rax), %rax
	.loc 1 264 0
	popq	%rbp
	.cfi_restore 6
	.cfi_def_cfa 7, 8
	ret
	.cfi_endproc
.LFE1577:
	.seh_endproc
	.align 2
	.globl	_ZNK7Process7tableL1Ev
	.def	_ZNK7Process7tableL1Ev;	.scl	2;	.type	32;	.endef
	.seh_proc	_ZNK7Process7tableL1Ev
_ZNK7Process7tableL1Ev:
.LFB1578:
	.loc 1 266 0
	.cfi_startproc
	pushq	%rbp
	.seh_pushreg	%rbp
	.cfi_def_cfa_offset 16
	.cfi_offset 6, -16
	movq	%rsp, %rbp
	.seh_setframe	%rbp, 0
	.cfi_def_cfa_register 6
	.seh_endprologue
	movq	%rcx, 16(%rbp)
	.loc 1 267 0
	movq	16(%rbp), %rax
	movq	48(%rax), %rax
	.loc 1 268 0
	popq	%rbp
	.cfi_restore 6
	.cfi_def_cfa 7, 8
	ret
	.cfi_endproc
.LFE1578:
	.seh_endproc
	.align 2
	.globl	_ZNK7Process7tableL2Ev
	.def	_ZNK7Process7tableL2Ev;	.scl	2;	.type	32;	.endef
	.seh_proc	_ZNK7Process7tableL2Ev
_ZNK7Process7tableL2Ev:
.LFB1579:
	.loc 1 270 0
	.cfi_startproc
	pushq	%rbp
	.seh_pushreg	%rbp
	.cfi_def_cfa_offset 16
	.cfi_offset 6, -16
	movq	%rsp, %rbp
	.seh_setframe	%rbp, 0
	.cfi_def_cfa_register 6
	.seh_endprologue
	movq	%rcx, 16(%rbp)
	.loc 1 271 0
	movq	16(%rbp), %rax
	movq	56(%rax), %rax
	.loc 1 272 0
	popq	%rbp
	.cfi_restore 6
	.cfi_def_cfa 7, 8
	ret
	.cfi_endproc
.LFE1579:
	.seh_endproc
	.align 2
	.globl	_ZNK7Process7tableL3Ev
	.def	_ZNK7Process7tableL3Ev;	.scl	2;	.type	32;	.endef
	.seh_proc	_ZNK7Process7tableL3Ev
_ZNK7Process7tableL3Ev:
.LFB1580:
	.loc 1 274 0
	.cfi_startproc
	pushq	%rbp
	.seh_pushreg	%rbp
	.cfi_def_cfa_offset 16
	.cfi_offset 6, -16
	movq	%rsp, %rbp
	.seh_setframe	%rbp, 0
	.cfi_def_cfa_register 6
	.seh_endprologue
	movq	%rcx, 16(%rbp)
	.loc 1 275 0
	movq	16(%rbp), %rax
	movq	64(%rax), %rax
	.loc 1 276 0
	popq	%rbp
	.cfi_restore 6
	.cfi_def_cfa 7, 8
	ret
	.cfi_endproc
.LFE1580:
	.seh_endproc
	.align 2
	.globl	_ZNK7Process5TTBR0Ev
	.def	_ZNK7Process5TTBR0Ev;	.scl	2;	.type	32;	.endef
	.seh_proc	_ZNK7Process5TTBR0Ev
_ZNK7Process5TTBR0Ev:
.LFB1581:
	.loc 1 278 0
	.cfi_startproc
	pushq	%rbp
	.seh_pushreg	%rbp
	.cfi_def_cfa_offset 16
	.cfi_offset 6, -16
	movq	%rsp, %rbp
	.seh_setframe	%rbp, 0
	.cfi_def_cfa_register 6
	.seh_endprologue
	movq	%rcx, 16(%rbp)
	.loc 1 279 0
	movq	16(%rbp), %rax
	addq	$24, %rax
	.loc 1 280 0
	popq	%rbp
	.cfi_restore 6
	.cfi_def_cfa 7, 8
	ret
	.cfi_endproc
.LFE1581:
	.seh_endproc
	.section	.text$_ZN13MemoryManager10allocateAsIP18RegDescriptor4KBL0EET_mm,"x"
	.linkonce discard
	.align 2
	.globl	_ZN13MemoryManager10allocateAsIP18RegDescriptor4KBL0EET_mm
	.def	_ZN13MemoryManager10allocateAsIP18RegDescriptor4KBL0EET_mm;	.scl	2;	.type	32;	.endef
	.seh_proc	_ZN13MemoryManager10allocateAsIP18RegDescriptor4KBL0EET_mm
_ZN13MemoryManager10allocateAsIP18RegDescriptor4KBL0EET_mm:
.LFB1790:
	.file 4 "D:\\Pool\\eclipse-workspace_aarch64\\newspace\\raspiOS\\include/templates_implementation/MemoryManager.h"
	.loc 4 20 0
	.cfi_startproc
	pushq	%rbp
	.seh_pushreg	%rbp
	.cfi_def_cfa_offset 16
	.cfi_offset 6, -16
	movq	%rsp, %rbp
	.seh_setframe	%rbp, 0
	.cfi_def_cfa_register 6
	subq	$32, %rsp
	.seh_stackalloc	32
	.seh_endprologue
	movq	%rcx, 16(%rbp)
	movq	%rdx, 24(%rbp)
	movq	%r8, 32(%rbp)
	.loc 4 22 0
	movq	32(%rbp), %rdx
	movq	24(%rbp), %rax
	movq	%rdx, %r8
	movq	%rax, %rdx
	movq	16(%rbp), %rcx
	call	_ZN13MemoryManager8allocateEmm
	.loc 4 23 0
	addq	$32, %rsp
	popq	%rbp
	.cfi_restore 6
	.cfi_def_cfa 7, 8
	ret
	.cfi_endproc
.LFE1790:
	.seh_endproc
	.section	.text$_ZN13MemoryManager10allocateAsIP18RegDescriptor4KBL1EET_mm,"x"
	.linkonce discard
	.align 2
	.globl	_ZN13MemoryManager10allocateAsIP18RegDescriptor4KBL1EET_mm
	.def	_ZN13MemoryManager10allocateAsIP18RegDescriptor4KBL1EET_mm;	.scl	2;	.type	32;	.endef
	.seh_proc	_ZN13MemoryManager10allocateAsIP18RegDescriptor4KBL1EET_mm
_ZN13MemoryManager10allocateAsIP18RegDescriptor4KBL1EET_mm:
.LFB1791:
	.loc 4 20 0
	.cfi_startproc
	pushq	%rbp
	.seh_pushreg	%rbp
	.cfi_def_cfa_offset 16
	.cfi_offset 6, -16
	movq	%rsp, %rbp
	.seh_setframe	%rbp, 0
	.cfi_def_cfa_register 6
	subq	$32, %rsp
	.seh_stackalloc	32
	.seh_endprologue
	movq	%rcx, 16(%rbp)
	movq	%rdx, 24(%rbp)
	movq	%r8, 32(%rbp)
	.loc 4 22 0
	movq	32(%rbp), %rdx
	movq	24(%rbp), %rax
	movq	%rdx, %r8
	movq	%rax, %rdx
	movq	16(%rbp), %rcx
	call	_ZN13MemoryManager8allocateEmm
	.loc 4 23 0
	addq	$32, %rsp
	popq	%rbp
	.cfi_restore 6
	.cfi_def_cfa 7, 8
	ret
	.cfi_endproc
.LFE1791:
	.seh_endproc
	.section	.text$_ZN13MemoryManager10allocateAsIP18RegDescriptor4KBL2EET_mm,"x"
	.linkonce discard
	.align 2
	.globl	_ZN13MemoryManager10allocateAsIP18RegDescriptor4KBL2EET_mm
	.def	_ZN13MemoryManager10allocateAsIP18RegDescriptor4KBL2EET_mm;	.scl	2;	.type	32;	.endef
	.seh_proc	_ZN13MemoryManager10allocateAsIP18RegDescriptor4KBL2EET_mm
_ZN13MemoryManager10allocateAsIP18RegDescriptor4KBL2EET_mm:
.LFB1792:
	.loc 4 20 0
	.cfi_startproc
	pushq	%rbp
	.seh_pushreg	%rbp
	.cfi_def_cfa_offset 16
	.cfi_offset 6, -16
	movq	%rsp, %rbp
	.seh_setframe	%rbp, 0
	.cfi_def_cfa_register 6
	subq	$32, %rsp
	.seh_stackalloc	32
	.seh_endprologue
	movq	%rcx, 16(%rbp)
	movq	%rdx, 24(%rbp)
	movq	%r8, 32(%rbp)
	.loc 4 22 0
	movq	32(%rbp), %rdx
	movq	24(%rbp), %rax
	movq	%rdx, %r8
	movq	%rax, %rdx
	movq	16(%rbp), %rcx
	call	_ZN13MemoryManager8allocateEmm
	.loc 4 23 0
	addq	$32, %rsp
	popq	%rbp
	.cfi_restore 6
	.cfi_def_cfa 7, 8
	ret
	.cfi_endproc
.LFE1792:
	.seh_endproc
	.section	.text$_ZN13MemoryManager10allocateAsIP18RegDescriptor4KBL3EET_mm,"x"
	.linkonce discard
	.align 2
	.globl	_ZN13MemoryManager10allocateAsIP18RegDescriptor4KBL3EET_mm
	.def	_ZN13MemoryManager10allocateAsIP18RegDescriptor4KBL3EET_mm;	.scl	2;	.type	32;	.endef
	.seh_proc	_ZN13MemoryManager10allocateAsIP18RegDescriptor4KBL3EET_mm
_ZN13MemoryManager10allocateAsIP18RegDescriptor4KBL3EET_mm:
.LFB1793:
	.loc 4 20 0
	.cfi_startproc
	pushq	%rbp
	.seh_pushreg	%rbp
	.cfi_def_cfa_offset 16
	.cfi_offset 6, -16
	movq	%rsp, %rbp
	.seh_setframe	%rbp, 0
	.cfi_def_cfa_register 6
	subq	$32, %rsp
	.seh_stackalloc	32
	.seh_endprologue
	movq	%rcx, 16(%rbp)
	movq	%rdx, 24(%rbp)
	movq	%r8, 32(%rbp)
	.loc 4 22 0
	movq	32(%rbp), %rdx
	movq	24(%rbp), %rax
	movq	%rdx, %r8
	movq	%rax, %rdx
	movq	16(%rbp), %rcx
	call	_ZN13MemoryManager8allocateEmm
	.loc 4 23 0
	addq	$32, %rsp
	popq	%rbp
	.cfi_restore 6
	.cfi_def_cfa 7, 8
	ret
	.cfi_endproc
.LFE1793:
	.seh_endproc
	.text
.Letext0:
	.file 5 "/usr/lib/gcc/x86_64-pc-cygwin/6.4.0/include/stddef.h"
	.file 6 "/usr/lib/gcc/x86_64-pc-cygwin/6.4.0/include/c++/cstddef"
	.file 7 "/usr/lib/gcc/x86_64-pc-cygwin/6.4.0/include/c++/cstdint"
	.file 8 "<built-in>"
	.file 9 "/usr/lib/gcc/x86_64-pc-cygwin/6.4.0/include/c++/bits/exception_ptr.h"
	.file 10 "/usr/lib/gcc/x86_64-pc-cygwin/6.4.0/include/c++/x86_64-pc-cygwin/bits/c++config.h"
	.file 11 "/usr/lib/gcc/x86_64-pc-cygwin/6.4.0/include/c++/bits/stl_pair.h"
	.file 12 "/usr/lib/gcc/x86_64-pc-cygwin/6.4.0/include/c++/new"
	.file 13 "/usr/lib/gcc/x86_64-pc-cygwin/6.4.0/include/c++/type_traits"
	.file 14 "/usr/lib/gcc/x86_64-pc-cygwin/6.4.0/include/c++/debug/debug.h"
	.file 15 "/usr/lib/gcc/x86_64-pc-cygwin/6.4.0/include/c++/cwchar"
	.file 16 "/usr/lib/gcc/x86_64-pc-cygwin/6.4.0/include/c++/bits/char_traits.h"
	.file 17 "/usr/lib/gcc/x86_64-pc-cygwin/6.4.0/include/c++/clocale"
	.file 18 "/usr/lib/gcc/x86_64-pc-cygwin/6.4.0/include/c++/cctype"
	.file 19 "/usr/lib/gcc/x86_64-pc-cygwin/6.4.0/include/c++/cstdlib"
	.file 20 "/usr/lib/gcc/x86_64-pc-cygwin/6.4.0/include/c++/cstdio"
	.file 21 "/usr/lib/gcc/x86_64-pc-cygwin/6.4.0/include/c++/bits/basic_string.h"
	.file 22 "/usr/lib/gcc/x86_64-pc-cygwin/6.4.0/include/c++/bits/basic_string.tcc"
	.file 23 "/usr/lib/gcc/x86_64-pc-cygwin/6.4.0/include/c++/bits/allocator.h"
	.file 24 "/usr/lib/gcc/x86_64-pc-cygwin/6.4.0/include/c++/initializer_list"
	.file 25 "/usr/lib/gcc/x86_64-pc-cygwin/6.4.0/include/c++/bits/uses_allocator.h"
	.file 26 "/usr/lib/gcc/x86_64-pc-cygwin/6.4.0/include/c++/tuple"
	.file 27 "/usr/lib/gcc/x86_64-pc-cygwin/6.4.0/include/c++/functional"
	.file 28 "/usr/lib/gcc/x86_64-pc-cygwin/6.4.0/include/c++/cstring"
	.file 29 "/usr/lib/gcc/x86_64-pc-cygwin/6.4.0/include/c++/bits/stl_iterator_base_types.h"
	.file 30 "/usr/lib/gcc/x86_64-pc-cygwin/6.4.0/include/stdint-gcc.h"
	.file 31 "D:\\Pool\\eclipse-workspace_aarch64\\newspace\\raspiOS\\include/def.h"
	.file 32 "/usr/lib/gcc/x86_64-pc-cygwin/6.4.0/include/c++/exception"
	.file 33 "/usr/lib/gcc/x86_64-pc-cygwin/6.4.0/include/c++/bits/predefined_ops.h"
	.file 34 "/usr/lib/gcc/x86_64-pc-cygwin/6.4.0/include/c++/ext/new_allocator.h"
	.file 35 "/usr/lib/gcc/x86_64-pc-cygwin/6.4.0/include/c++/ext/numeric_traits.h"
	.file 36 "/usr/lib/gcc/x86_64-pc-cygwin/6.4.0/include/c++/bits/stl_iterator.h"
	.file 37 "/usr/include/sys/lock.h"
	.file 38 "/usr/include/sys/_types.h"
	.file 39 "/usr/include/sys/reent.h"
	.file 40 "/usr/lib/gcc/x86_64-pc-cygwin/6.4.0/include/stdarg.h"
	.file 41 "/usr/include/wchar.h"
	.file 42 "/usr/include/time.h"
	.file 43 "/usr/include/locale.h"
	.file 44 "/usr/include/ctype.h"
	.file 45 "/usr/lib/gcc/x86_64-pc-cygwin/6.4.0/include/c++/x86_64-pc-cygwin/bits/atomic_word.h"
	.file 46 "/usr/include/stdlib.h"
	.file 47 "/usr/include/stdio.h"
	.file 48 "/usr/include/sys/errno.h"
	.file 49 "D:\\Pool\\eclipse-workspace_aarch64\\newspace\\raspiOS\\include/generic_util.h"
	.file 50 "D:\\Pool\\eclipse-workspace_aarch64\\newspace\\raspiOS\\include/memory/MemoryChunk.h"
	.file 51 "D:\\Pool\\eclipse-workspace_aarch64\\newspace\\raspiOS\\include/memory/MemoryManager.h"
	.file 52 "/usr/include/string.h"
	.file 53 "D:\\Pool\\eclipse-workspace_aarch64\\newspace\\raspiOS\\include/schedule/PidManager.h"
	.file 54 "D:\\Pool\\eclipse-workspace_aarch64\\newspace\\raspiOS\\include/io/Output.h"
	.file 55 "D:\\Pool\\eclipse-workspace_aarch64\\newspace\\raspiOS\\include/arch/common_aarch64/vmsa_descriptors.h"
	.file 56 "D:\\Pool\\eclipse-workspace_aarch64\\newspace\\raspiOS\\include/schedule/Process.h"
	.file 57 "D:\\Pool\\eclipse-workspace_aarch64\\newspace\\raspiOS\\include/arch/common_aarch64/mmu/VirtualAddress.h"
	.section	.rdata$.refptr.kout, "dr"
	.globl	.refptr.kout
	.linkonce	discard
.refptr.kout:
	.quad	kout
	.section	.rdata$.refptr.mman, "dr"
	.globl	.refptr.mman
	.linkonce	discard
.refptr.mman:
	.quad	mman
	.section	.rdata$.refptr.pidManager, "dr"
	.globl	.refptr.pidManager
	.linkonce	discard
.refptr.pidManager:
	.quad	pidManager
