	.file	"StringRef.cpp"
	.text
.Ltext0:
	.cfi_sections	.debug_frame
	.section .rdata,"dr"
	.align 4
_ZL6UNIT_K:
	.long	1024
	.align 4
_ZL3KiB:
	.long	1024
	.align 4
_ZL3MiB:
	.long	1048576
	.align 4
_ZL3GiB:
	.long	1073741824
	.align 8
_ZL11koutBufSize:
	.quad	65
	.text
	.align 2
	.globl	_ZN9StringRefC2EPKv
	.def	_ZN9StringRefC2EPKv;	.scl	2;	.type	32;	.endef
	.seh_proc	_ZN9StringRefC2EPKv
_ZN9StringRefC2EPKv:
.LFB55:
	.file 1 "D:/Pool/eclipse-workspace_aarch64/newspace/raspiOS/src/data_structures/StringRef.cpp"
	.loc 1 15 0
	.cfi_startproc
	pushq	%rbp
	.seh_pushreg	%rbp
	.cfi_def_cfa_offset 16
	.cfi_offset 6, -16
	movq	%rsp, %rbp
	.seh_setframe	%rbp, 0
	.cfi_def_cfa_register 6
	subq	$32, %rsp
	.seh_stackalloc	32
	.seh_endprologue
	movq	%rcx, 16(%rbp)
	movq	%rdx, 24(%rbp)
.LBB2:
	.loc 1 16 0
	movq	24(%rbp), %rax
	movq	%rax, %rcx
	call	strlen
	movq	%rax, %rcx
	movq	16(%rbp), %rax
	movq	24(%rbp), %rdx
	movq	%rcx, %r8
	movq	%rax, %rcx
	call	_ZN9VectorRefIcEC2EPKcm
.LBE2:
	nop
	addq	$32, %rsp
	popq	%rbp
	.cfi_restore 6
	.cfi_def_cfa 7, 8
	ret
	.cfi_endproc
.LFE55:
	.seh_endproc
	.globl	_ZN9StringRefC1EPKv
	.def	_ZN9StringRefC1EPKv;	.scl	2;	.type	32;	.endef
	.set	_ZN9StringRefC1EPKv,_ZN9StringRefC2EPKv
	.align 2
	.globl	_ZN9StringRefC2EPKvm
	.def	_ZN9StringRefC2EPKvm;	.scl	2;	.type	32;	.endef
	.seh_proc	_ZN9StringRefC2EPKvm
_ZN9StringRefC2EPKvm:
.LFB58:
	.loc 1 17 0
	.cfi_startproc
	pushq	%rbp
	.seh_pushreg	%rbp
	.cfi_def_cfa_offset 16
	.cfi_offset 6, -16
	movq	%rsp, %rbp
	.seh_setframe	%rbp, 0
	.cfi_def_cfa_register 6
	subq	$32, %rsp
	.seh_stackalloc	32
	.seh_endprologue
	movq	%rcx, 16(%rbp)
	movq	%rdx, 24(%rbp)
	movq	%r8, 32(%rbp)
.LBB3:
	.loc 1 18 0
	movq	16(%rbp), %rax
	movq	32(%rbp), %rcx
	movq	24(%rbp), %rdx
	movq	%rcx, %r8
	movq	%rax, %rcx
	call	_ZN9VectorRefIcEC2EPKcm
.LBE3:
	nop
	addq	$32, %rsp
	popq	%rbp
	.cfi_restore 6
	.cfi_def_cfa 7, 8
	ret
	.cfi_endproc
.LFE58:
	.seh_endproc
	.globl	_ZN9StringRefC1EPKvm
	.def	_ZN9StringRefC1EPKvm;	.scl	2;	.type	32;	.endef
	.set	_ZN9StringRefC1EPKvm,_ZN9StringRefC2EPKvm
	.align 2
	.globl	_ZN9StringRefC2ERK6String
	.def	_ZN9StringRefC2ERK6String;	.scl	2;	.type	32;	.endef
	.seh_proc	_ZN9StringRefC2ERK6String
_ZN9StringRefC2ERK6String:
.LFB61:
	.loc 1 20 0
	.cfi_startproc
	pushq	%rbp
	.seh_pushreg	%rbp
	.cfi_def_cfa_offset 16
	.cfi_offset 6, -16
	pushq	%rbx
	.seh_pushreg	%rbx
	.cfi_def_cfa_offset 24
	.cfi_offset 3, -24
	subq	$40, %rsp
	.seh_stackalloc	40
	.cfi_def_cfa_offset 64
	leaq	128(%rsp), %rbp
	.seh_setframe	%rbp, 128
	.cfi_def_cfa 6, -64
	.seh_endprologue
	movq	%rcx, -64(%rbp)
	movq	%rdx, -56(%rbp)
.LBB4:
	.loc 1 21 0
	movq	-56(%rbp), %rax
	movq	%rax, %rcx
	call	_ZNK6VectorIcE7getSizeEv
	movq	%rax, %rbx
	movq	-56(%rbp), %rax
	movq	%rax, %rcx
	call	_ZNK6VectorIcE7getDataEv
	movq	%rax, %rdx
	movq	-64(%rbp), %rax
	movq	%rbx, %r8
	movq	%rax, %rcx
	call	_ZN9VectorRefIcEC2EPKcm
.LBE4:
	nop
	addq	$40, %rsp
	popq	%rbx
	.cfi_restore 3
	popq	%rbp
	.cfi_restore 6
	.cfi_def_cfa 7, -24
	ret
	.cfi_endproc
.LFE61:
	.seh_endproc
	.globl	_ZN9StringRefC1ERK6String
	.def	_ZN9StringRefC1ERK6String;	.scl	2;	.type	32;	.endef
	.set	_ZN9StringRefC1ERK6String,_ZN9StringRefC2ERK6String
	.globl	_ZlsR6Output9StringRef
	.def	_ZlsR6Output9StringRef;	.scl	2;	.type	32;	.endef
	.seh_proc	_ZlsR6Output9StringRef
_ZlsR6Output9StringRef:
.LFB63:
	.loc 1 24 0
	.cfi_startproc
	pushq	%rbp
	.seh_pushreg	%rbp
	.cfi_def_cfa_offset 16
	.cfi_offset 6, -16
	pushq	%rbx
	.seh_pushreg	%rbx
	.cfi_def_cfa_offset 24
	.cfi_offset 3, -24
	subq	$56, %rsp
	.seh_stackalloc	56
	.cfi_def_cfa_offset 80
	leaq	128(%rsp), %rbp
	.seh_setframe	%rbp, 128
	.cfi_def_cfa 6, -48
	.seh_endprologue
	movq	%rcx, -48(%rbp)
	movq	%rdx, %rbx
	movq	(%rbx), %rax
	movq	8(%rbx), %rdx
	movq	%rax, -96(%rbp)
	movq	%rdx, -88(%rbp)
	.loc 1 25 0
	leaq	-96(%rbp), %rax
	movq	%rax, %rcx
	call	_ZNK9VectorRefIcE7getSizeEv
	movq	%rax, %rbx
	leaq	-96(%rbp), %rax
	movq	%rax, %rcx
	call	_ZNK9VectorRefIcE7getDataEv
	movq	%rbx, %r8
	movq	%rax, %rdx
	movq	-48(%rbp), %rcx
	call	_ZN6Output5printEPKcm
	.loc 1 26 0
	movq	-48(%rbp), %rax
	.loc 1 27 0
	addq	$56, %rsp
	popq	%rbx
	.cfi_restore 3
	popq	%rbp
	.cfi_restore 6
	.cfi_def_cfa 7, -40
	ret
	.cfi_endproc
.LFE63:
	.seh_endproc
	.section	.text$_ZN9VectorRefIcEC2EPKcm,"x"
	.linkonce discard
	.align 2
	.globl	_ZN9VectorRefIcEC2EPKcm
	.def	_ZN9VectorRefIcEC2EPKcm;	.scl	2;	.type	32;	.endef
	.seh_proc	_ZN9VectorRefIcEC2EPKcm
_ZN9VectorRefIcEC2EPKcm:
.LFB65:
	.file 2 "D:\\Pool\\eclipse-workspace_aarch64\\newspace\\raspiOS\\include/templates_implementation/data_structures/VectorRef.h"
	.loc 2 15 0
	.cfi_startproc
	pushq	%rbp
	.seh_pushreg	%rbp
	.cfi_def_cfa_offset 16
	.cfi_offset 6, -16
	movq	%rsp, %rbp
	.seh_setframe	%rbp, 0
	.cfi_def_cfa_register 6
	.seh_endprologue
	movq	%rcx, 16(%rbp)
	movq	%rdx, 24(%rbp)
	movq	%r8, 32(%rbp)
.LBB5:
	.loc 2 16 0
	movq	16(%rbp), %rax
	movq	24(%rbp), %rdx
	movq	%rdx, (%rax)
	movq	16(%rbp), %rax
	movq	32(%rbp), %rdx
	movq	%rdx, 8(%rax)
.LBE5:
	nop
	popq	%rbp
	.cfi_restore 6
	.cfi_def_cfa 7, 8
	ret
	.cfi_endproc
.LFE65:
	.seh_endproc
	.section	.text$_ZNK6VectorIcE7getDataEv,"x"
	.linkonce discard
	.align 2
	.globl	_ZNK6VectorIcE7getDataEv
	.def	_ZNK6VectorIcE7getDataEv;	.scl	2;	.type	32;	.endef
	.seh_proc	_ZNK6VectorIcE7getDataEv
_ZNK6VectorIcE7getDataEv:
.LFB67:
	.file 3 "D:\\Pool\\eclipse-workspace_aarch64\\newspace\\raspiOS\\include/templates_implementation/data_structures/Vector.h"
	.loc 3 97 0
	.cfi_startproc
	pushq	%rbp
	.seh_pushreg	%rbp
	.cfi_def_cfa_offset 16
	.cfi_offset 6, -16
	movq	%rsp, %rbp
	.seh_setframe	%rbp, 0
	.cfi_def_cfa_register 6
	.seh_endprologue
	movq	%rcx, 16(%rbp)
	.loc 3 99 0
	movq	16(%rbp), %rax
	movq	(%rax), %rax
	.loc 3 100 0
	popq	%rbp
	.cfi_restore 6
	.cfi_def_cfa 7, 8
	ret
	.cfi_endproc
.LFE67:
	.seh_endproc
	.section	.text$_ZNK6VectorIcE7getSizeEv,"x"
	.linkonce discard
	.align 2
	.globl	_ZNK6VectorIcE7getSizeEv
	.def	_ZNK6VectorIcE7getSizeEv;	.scl	2;	.type	32;	.endef
	.seh_proc	_ZNK6VectorIcE7getSizeEv
_ZNK6VectorIcE7getSizeEv:
.LFB68:
	.loc 3 103 0
	.cfi_startproc
	pushq	%rbp
	.seh_pushreg	%rbp
	.cfi_def_cfa_offset 16
	.cfi_offset 6, -16
	movq	%rsp, %rbp
	.seh_setframe	%rbp, 0
	.cfi_def_cfa_register 6
	.seh_endprologue
	movq	%rcx, 16(%rbp)
	.loc 3 105 0
	movq	16(%rbp), %rax
	movq	16(%rax), %rax
	.loc 3 106 0
	popq	%rbp
	.cfi_restore 6
	.cfi_def_cfa 7, 8
	ret
	.cfi_endproc
.LFE68:
	.seh_endproc
	.section	.text$_ZNK9VectorRefIcE7getDataEv,"x"
	.linkonce discard
	.align 2
	.globl	_ZNK9VectorRefIcE7getDataEv
	.def	_ZNK9VectorRefIcE7getDataEv;	.scl	2;	.type	32;	.endef
	.seh_proc	_ZNK9VectorRefIcE7getDataEv
_ZNK9VectorRefIcE7getDataEv:
.LFB69:
	.loc 2 23 0
	.cfi_startproc
	pushq	%rbp
	.seh_pushreg	%rbp
	.cfi_def_cfa_offset 16
	.cfi_offset 6, -16
	movq	%rsp, %rbp
	.seh_setframe	%rbp, 0
	.cfi_def_cfa_register 6
	.seh_endprologue
	movq	%rcx, 16(%rbp)
	.loc 2 25 0
	movq	16(%rbp), %rax
	movq	(%rax), %rax
	.loc 2 26 0
	popq	%rbp
	.cfi_restore 6
	.cfi_def_cfa 7, 8
	ret
	.cfi_endproc
.LFE69:
	.seh_endproc
	.section	.text$_ZNK9VectorRefIcE7getSizeEv,"x"
	.linkonce discard
	.align 2
	.globl	_ZNK9VectorRefIcE7getSizeEv
	.def	_ZNK9VectorRefIcE7getSizeEv;	.scl	2;	.type	32;	.endef
	.seh_proc	_ZNK9VectorRefIcE7getSizeEv
_ZNK9VectorRefIcE7getSizeEv:
.LFB70:
	.loc 2 29 0
	.cfi_startproc
	pushq	%rbp
	.seh_pushreg	%rbp
	.cfi_def_cfa_offset 16
	.cfi_offset 6, -16
	movq	%rsp, %rbp
	.seh_setframe	%rbp, 0
	.cfi_def_cfa_register 6
	.seh_endprologue
	movq	%rcx, 16(%rbp)
	.loc 2 31 0
	movq	16(%rbp), %rax
	movq	8(%rax), %rax
	.loc 2 32 0
	popq	%rbp
	.cfi_restore 6
	.cfi_def_cfa 7, 8
	ret
	.cfi_endproc
.LFE70:
	.seh_endproc
	.text
.Letext0:
	.file 4 "/usr/lib/gcc/x86_64-pc-cygwin/6.4.0/include/stddef.h"
	.file 5 "/usr/lib/gcc/x86_64-pc-cygwin/6.4.0/include/c++/cstddef"
	.file 6 "/usr/lib/gcc/x86_64-pc-cygwin/6.4.0/include/c++/cstdint"
	.file 7 "/usr/lib/gcc/x86_64-pc-cygwin/6.4.0/include/c++/cstring"
	.file 8 "/usr/lib/gcc/x86_64-pc-cygwin/6.4.0/include/stdint-gcc.h"
	.file 9 "D:\\Pool\\eclipse-workspace_aarch64\\newspace\\raspiOS\\include/def.h"
	.file 10 "D:\\Pool\\eclipse-workspace_aarch64\\newspace\\raspiOS\\include/io/Output.h"
	.file 11 "D:\\Pool\\eclipse-workspace_aarch64\\newspace\\raspiOS\\include/generic_util.h"
	.file 12 "D:\\Pool\\eclipse-workspace_aarch64\\newspace\\raspiOS\\include/memory/MemoryChunk.h"
	.file 13 "D:\\Pool\\eclipse-workspace_aarch64\\newspace\\raspiOS\\include/memory/MemoryManager.h"
	.file 14 "D:\\Pool\\eclipse-workspace_aarch64\\newspace\\raspiOS\\include/data_structures/Vector.h"
	.file 15 "D:\\Pool\\eclipse-workspace_aarch64\\newspace\\raspiOS\\include/data_structures/String.h"
	.file 16 "D:\\Pool\\eclipse-workspace_aarch64\\newspace\\raspiOS\\include/data_structures/VectorRef.h"
	.file 17 "D:\\Pool\\eclipse-workspace_aarch64\\newspace\\raspiOS\\include/data_structures/StringRef.h"
	.file 18 "/usr/include/sys/lock.h"
	.file 19 "/usr/include/sys/_types.h"
	.file 20 "/usr/include/sys/reent.h"
	.file 21 "/usr/include/string.h"
	.file 22 "<built-in>"