	.file	"TestVector.cpp"
	.text
.Ltext0:
	.cfi_sections	.debug_frame
	.align 2
	.globl	_ZN10TestVector5setupEv
	.def	_ZN10TestVector5setupEv;	.scl	2;	.type	32;	.endef
	.seh_proc	_ZN10TestVector5setupEv
_ZN10TestVector5setupEv:
.LFB39:
	.file 1 "D:/Pool/eclipse-workspace_aarch64/newspace/raspiOS/src/test/TestVector.cpp"
	.loc 1 12 0
	.cfi_startproc
.LVL0:
	.seh_endprologue
	ret
	.cfi_endproc
.LFE39:
	.seh_endproc
	.align 2
	.globl	_ZN10TestVector8teardownEv
	.def	_ZN10TestVector8teardownEv;	.scl	2;	.type	32;	.endef
	.seh_proc	_ZN10TestVector8teardownEv
_ZN10TestVector8teardownEv:
.LFB40:
	.loc 1 16 0
	.cfi_startproc
.LVL1:
	.loc 1 16 0
	.seh_endprologue
	ret
	.cfi_endproc
.LFE40:
	.seh_endproc
	.align 2
	.globl	_ZN10TestVector19initializeCorrectlyEv
	.def	_ZN10TestVector19initializeCorrectlyEv;	.scl	2;	.type	32;	.endef
	.seh_proc	_ZN10TestVector19initializeCorrectlyEv
_ZN10TestVector19initializeCorrectlyEv:
.LFB41:
	.loc 1 21 0
	.cfi_startproc
.LVL2:
	.loc 1 21 0
	.seh_endprologue
	.loc 1 23 0
	movl	$1, %eax
	ret
	.cfi_endproc
.LFE41:
	.seh_endproc
	.align 2
	.globl	_ZN10TestVector26capacityDecreasedCorrectlyEv
	.def	_ZN10TestVector26capacityDecreasedCorrectlyEv;	.scl	2;	.type	32;	.endef
	.seh_proc	_ZN10TestVector26capacityDecreasedCorrectlyEv
_ZN10TestVector26capacityDecreasedCorrectlyEv:
.LFB44:
	.loc 1 43 0
	.cfi_startproc
.LVL3:
	.seh_endprologue
	.loc 1 45 0
	movl	$1, %eax
	ret
	.cfi_endproc
.LFE44:
	.seh_endproc
	.align 2
	.globl	_ZN10TestVector17pushBackCorrectlyEv
	.def	_ZN10TestVector17pushBackCorrectlyEv;	.scl	2;	.type	32;	.endef
	.seh_proc	_ZN10TestVector17pushBackCorrectlyEv
_ZN10TestVector17pushBackCorrectlyEv:
.LFB46:
	.loc 1 54 0
	.cfi_startproc
.LVL4:
	.seh_endprologue
	.loc 1 56 0
	movl	$1, %eax
	ret
	.cfi_endproc
.LFE46:
	.seh_endproc
	.align 2
	.globl	_ZN10TestVector15resizeCorrectlyEv
	.def	_ZN10TestVector15resizeCorrectlyEv;	.scl	2;	.type	32;	.endef
	.seh_proc	_ZN10TestVector15resizeCorrectlyEv
_ZN10TestVector15resizeCorrectlyEv:
.LFB49:
	.loc 1 82 0
	.cfi_startproc
.LVL5:
	.seh_endprologue
	.loc 1 84 0
	movl	$1, %eax
	ret
	.cfi_endproc
.LFE49:
	.seh_endproc
	.section	.text$_ZN6VectorIiED1Ev,"x"
	.linkonce discard
	.align 2
	.globl	_ZN6VectorIiED1Ev
	.def	_ZN6VectorIiED1Ev;	.scl	2;	.type	32;	.endef
	.seh_proc	_ZN6VectorIiED1Ev
_ZN6VectorIiED1Ev:
.LFB55:
	.file 2 "D:\\Pool\\eclipse-workspace_aarch64\\newspace\\raspiOS\\include/templates_implementation/data_structures/Vector.h"
	.loc 2 53 0
	.cfi_startproc
.LVL6:
	subq	$40, %rsp
	.seh_stackalloc	40
	.cfi_def_cfa_offset 48
	.seh_endprologue
.LBB16:
	.loc 2 55 0
	movq	(%rcx), %rdx
	testq	%rdx, %rdx
	je	.L7
	.loc 2 57 0
	movq	.refptr.mman(%rip), %rcx
.LVL7:
	call	_ZN13MemoryManager10deallocateEPv
	nop
.LVL8:
.L7:
.LBE16:
	.loc 2 60 0
	addq	$40, %rsp
	.cfi_def_cfa_offset 8
	ret
	.cfi_endproc
.LFE55:
	.seh_endproc
	.section	.text$_ZNK6VectorIiE11getCapacityEv,"x"
	.linkonce discard
	.align 2
	.globl	_ZNK6VectorIiE11getCapacityEv
	.def	_ZNK6VectorIiE11getCapacityEv;	.scl	2;	.type	32;	.endef
	.seh_proc	_ZNK6VectorIiE11getCapacityEv
_ZNK6VectorIiE11getCapacityEv:
.LFB56:
	.loc 2 109 0
	.cfi_startproc
.LVL9:
	.seh_endprologue
	.loc 2 111 0
	movq	8(%rcx), %rax
	.loc 2 112 0
	ret
	.cfi_endproc
.LFE56:
	.seh_endproc
	.section	.text$_ZNK6VectorIiE7getSizeEv,"x"
	.linkonce discard
	.align 2
	.globl	_ZNK6VectorIiE7getSizeEv
	.def	_ZNK6VectorIiE7getSizeEv;	.scl	2;	.type	32;	.endef
	.seh_proc	_ZNK6VectorIiE7getSizeEv
_ZNK6VectorIiE7getSizeEv:
.LFB66:
	.loc 2 103 0
	.cfi_startproc
.LVL10:
	.seh_endprologue
	.loc 2 105 0
	movq	16(%rcx), %rax
	.loc 2 106 0
	ret
	.cfi_endproc
.LFE66:
	.seh_endproc
	.section	.text$_ZN6VectorIiEixEm,"x"
	.linkonce discard
	.align 2
	.globl	_ZN6VectorIiEixEm
	.def	_ZN6VectorIiEixEm;	.scl	2;	.type	32;	.endef
	.seh_proc	_ZN6VectorIiEixEm
_ZN6VectorIiEixEm:
.LFB67:
	.loc 2 68 0
	.cfi_startproc
.LVL11:
	.seh_endprologue
	.loc 2 70 0
	leaq	0(,%rdx,4), %rax
	addq	(%rcx), %rax
	.loc 2 71 0
	ret
	.cfi_endproc
.LFE67:
	.seh_endproc
	.section	.text$_ZN13MemoryManager10allocateAsIPiEET_m,"x"
	.linkonce discard
	.align 2
	.globl	_ZN13MemoryManager10allocateAsIPiEET_m
	.def	_ZN13MemoryManager10allocateAsIPiEET_m;	.scl	2;	.type	32;	.endef
	.seh_proc	_ZN13MemoryManager10allocateAsIPiEET_m
_ZN13MemoryManager10allocateAsIPiEET_m:
.LFB72:
	.file 3 "D:\\Pool\\eclipse-workspace_aarch64\\newspace\\raspiOS\\include/templates_implementation/MemoryManager.h"
	.loc 3 15 0
	.cfi_startproc
.LVL12:
	subq	$40, %rsp
	.seh_stackalloc	40
	.cfi_def_cfa_offset 48
	.seh_endprologue
	.loc 3 17 0
	call	_ZN13MemoryManager8allocateEm
.LVL13:
	.loc 3 18 0
	addq	$40, %rsp
	.cfi_def_cfa_offset 8
	ret
	.cfi_endproc
.LFE72:
	.seh_endproc
	.section	.text$_ZN6VectorIiE14resizeCapacityEm,"x"
	.linkonce discard
	.align 2
	.globl	_ZN6VectorIiE14resizeCapacityEm
	.def	_ZN6VectorIiE14resizeCapacityEm;	.scl	2;	.type	32;	.endef
	.seh_proc	_ZN6VectorIiE14resizeCapacityEm
_ZN6VectorIiE14resizeCapacityEm:
.LFB69:
	.loc 2 167 0
	.cfi_startproc
.LVL14:
	pushq	%rdi
	.seh_pushreg	%rdi
	.cfi_def_cfa_offset 16
	.cfi_offset 5, -16
	pushq	%rsi
	.seh_pushreg	%rsi
	.cfi_def_cfa_offset 24
	.cfi_offset 4, -24
	pushq	%rbx
	.seh_pushreg	%rbx
	.cfi_def_cfa_offset 32
	.cfi_offset 3, -32
	subq	$32, %rsp
	.seh_stackalloc	32
	.cfi_def_cfa_offset 64
	.seh_endprologue
	movq	%rcx, %rbx
	movq	%rdx, %rdi
	.loc 2 169 0
	cmpq	%rdx, 8(%rcx)
	je	.L17
	.loc 2 171 0
	leaq	0(,%rdx,4), %rsi
	movq	(%rcx), %rdx
.LVL15:
	movq	$-1, %r9
	movq	%rsi, %r8
	movq	.refptr.mman(%rip), %rcx
.LVL16:
	call	_ZN13MemoryManager10reallocateEPvmm
.LVL17:
	.loc 2 172 0
	movq	%rsi, %rdx
	movq	.refptr.mman(%rip), %rcx
	call	_ZN13MemoryManager10allocateAsIPiEET_m
.LVL18:
	movq	%rax, %rsi
.LVL19:
	.loc 2 173 0
	testq	%rax, %rax
	je	.L18
	movl	$0, %eax
.LVL20:
.L16:
.LBB17:
	.loc 2 176 0 discriminator 3
	cmpq	16(%rbx), %rax
	je	.L15
	.loc 2 177 0 discriminator 2
	movq	(%rbx), %rdx
	movl	(%rdx,%rax,4), %edx
	movl	%edx, (%rsi,%rax,4)
	.loc 2 176 0 discriminator 2
	addq	$1, %rax
.LVL21:
	jmp	.L16
.L15:
.LBE17:
	.loc 2 178 0
	movq	(%rbx), %rdx
	movq	.refptr.mman(%rip), %rcx
	call	_ZN13MemoryManager10deallocateEPv
.LVL22:
	.loc 2 181 0
	movq	%rsi, (%rbx)
	.loc 2 182 0
	movq	%rdi, 8(%rbx)
	.loc 2 183 0
	movl	$1, %eax
.LVL23:
.L13:
	.loc 2 184 0
	addq	$32, %rsp
	.cfi_remember_state
	.cfi_def_cfa_offset 32
	popq	%rbx
	.cfi_restore 3
	.cfi_def_cfa_offset 24
.LVL24:
	popq	%rsi
	.cfi_restore 4
	.cfi_def_cfa_offset 16
	popq	%rdi
	.cfi_restore 5
	.cfi_def_cfa_offset 8
.LVL25:
	ret
.LVL26:
.L17:
	.cfi_restore_state
	.loc 2 170 0
	movl	$1, %eax
	jmp	.L13
.LVL27:
.L18:
	.loc 2 174 0
	movl	$0, %eax
.LVL28:
	jmp	.L13
	.cfi_endproc
.LFE69:
	.seh_endproc
	.section	.text$_ZN6VectorIiEC1Em,"x"
	.linkonce discard
	.align 2
	.globl	_ZN6VectorIiEC1Em
	.def	_ZN6VectorIiEC1Em;	.scl	2;	.type	32;	.endef
	.seh_proc	_ZN6VectorIiEC1Em
_ZN6VectorIiEC1Em:
.LFB52:
	.loc 2 15 0
	.cfi_startproc
.LVL29:
	pushq	%rsi
	.seh_pushreg	%rsi
	.cfi_def_cfa_offset 16
	.cfi_offset 4, -16
	pushq	%rbx
	.seh_pushreg	%rbx
	.cfi_def_cfa_offset 24
	.cfi_offset 3, -24
	subq	$40, %rsp
	.seh_stackalloc	40
	.cfi_def_cfa_offset 64
	.seh_endprologue
	movq	%rcx, %rbx
	movq	%rdx, %rsi
.LBB18:
	.loc 2 16 0
	movq	$0, (%rcx)
	movq	$0, 8(%rcx)
	movq	$0, 16(%rcx)
	.loc 2 18 0
	cmpq	$8, %rdx
	movl	$8, %edx
.LVL30:
	cmovnb	%rsi, %rdx
	call	_ZN6VectorIiE14resizeCapacityEm
.LVL31:
	testb	%al, %al
	je	.L19
	.loc 2 20 0
	movq	%rsi, 16(%rbx)
.L19:
.LBE18:
	.loc 2 22 0
	addq	$40, %rsp
	.cfi_def_cfa_offset 24
	popq	%rbx
	.cfi_restore 3
	.cfi_def_cfa_offset 16
.LVL32:
	popq	%rsi
	.cfi_restore 4
	.cfi_def_cfa_offset 8
.LVL33:
	ret
	.cfi_endproc
.LFE52:
	.seh_endproc
	.text
	.align 2
	.globl	_ZN10TestVector22minimalCapacityEnsuredEv
	.def	_ZN10TestVector22minimalCapacityEnsuredEv;	.scl	2;	.type	32;	.endef
	.seh_proc	_ZN10TestVector22minimalCapacityEnsuredEv
_ZN10TestVector22minimalCapacityEnsuredEv:
.LFB42:
	.loc 1 25 0
	.cfi_startproc
.LVL34:
	pushq	%r14
	.seh_pushreg	%r14
	.cfi_def_cfa_offset 16
	.cfi_offset 14, -16
	pushq	%r13
	.seh_pushreg	%r13
	.cfi_def_cfa_offset 24
	.cfi_offset 13, -24
	pushq	%r12
	.seh_pushreg	%r12
	.cfi_def_cfa_offset 32
	.cfi_offset 12, -32
	pushq	%rbp
	.seh_pushreg	%rbp
	.cfi_def_cfa_offset 40
	.cfi_offset 6, -40
	pushq	%rdi
	.seh_pushreg	%rdi
	.cfi_def_cfa_offset 48
	.cfi_offset 5, -48
	pushq	%rsi
	.seh_pushreg	%rsi
	.cfi_def_cfa_offset 56
	.cfi_offset 4, -56
	pushq	%rbx
	.seh_pushreg	%rbx
	.cfi_def_cfa_offset 64
	.cfi_offset 3, -64
	subq	$192, %rsp
	.seh_stackalloc	192
	.cfi_def_cfa_offset 256
	.seh_endprologue
	.loc 1 26 0
	leaq	160(%rsp), %rsi
	movl	$0, %edx
	movq	%rsi, %rcx
.LVL35:
	call	_ZN6VectorIiEC1Em
.LVL36:
	.loc 1 27 0
	leaq	128(%rsp), %rdi
	movl	$0, %edx
	movq	%rdi, %rcx
	call	_ZN6VectorIiEC1Em
.LVL37:
	.loc 1 28 0
	leaq	96(%rsp), %rbp
	movl	$7, %edx
	movq	%rbp, %rcx
	call	_ZN6VectorIiEC1Em
.LVL38:
	.loc 1 29 0
	leaq	64(%rsp), %r12
	movl	$8, %edx
	movq	%r12, %rcx
	call	_ZN6VectorIiEC1Em
.LVL39:
	.loc 1 30 0
	leaq	32(%rsp), %r13
	movl	$9, %edx
	movq	%r13, %rcx
	call	_ZN6VectorIiEC1Em
.LVL40:
	.loc 1 32 0
	movq	%rsi, %rcx
	call	_ZNK6VectorIiE11getCapacityEv
.LVL41:
	movq	%rax, %rbx
	movq	%rdi, %rcx
	call	_ZNK6VectorIiE11getCapacityEv
.LVL42:
	cmpq	$8, %rbx
	sete	%bl
	cmpq	$8, %rax
	sete	%r14b
	andl	%r14d, %ebx
	movq	%rbp, %rcx
	call	_ZNK6VectorIiE11getCapacityEv
.LVL43:
	cmpq	$8, %rax
	sete	%r14b
	andl	%ebx, %r14d
	movq	%r12, %rcx
	call	_ZNK6VectorIiE11getCapacityEv
.LVL44:
	cmpq	$8, %rax
	sete	%bl
	andl	%r14d, %ebx
	movq	%r13, %rcx
	call	_ZNK6VectorIiE11getCapacityEv
.LVL45:
	cmpq	$8, %rax
	seta	%al
	andl	%eax, %ebx
.LVL46:
	.loc 1 30 0
	movq	%r13, %rcx
	call	_ZN6VectorIiED1Ev
.LVL47:
	.loc 1 29 0
	movq	%r12, %rcx
	call	_ZN6VectorIiED1Ev
.LVL48:
	.loc 1 28 0
	movq	%rbp, %rcx
	call	_ZN6VectorIiED1Ev
.LVL49:
	.loc 1 27 0
	movq	%rdi, %rcx
	call	_ZN6VectorIiED1Ev
.LVL50:
	.loc 1 26 0
	movq	%rsi, %rcx
	call	_ZN6VectorIiED1Ev
.LVL51:
	.loc 1 35 0
	movl	%ebx, %eax
	addq	$192, %rsp
	.cfi_def_cfa_offset 64
	popq	%rbx
	.cfi_restore 3
	.cfi_def_cfa_offset 56
.LVL52:
	popq	%rsi
	.cfi_restore 4
	.cfi_def_cfa_offset 48
	popq	%rdi
	.cfi_restore 5
	.cfi_def_cfa_offset 40
	popq	%rbp
	.cfi_restore 6
	.cfi_def_cfa_offset 32
	popq	%r12
	.cfi_restore 12
	.cfi_def_cfa_offset 24
	popq	%r13
	.cfi_restore 13
	.cfi_def_cfa_offset 16
	popq	%r14
	.cfi_restore 14
	.cfi_def_cfa_offset 8
	ret
	.cfi_endproc
.LFE42:
	.seh_endproc
	.section	.text$_ZN6VectorIiE18getIncrementalSizeEm,"x"
	.linkonce discard
	.align 2
	.globl	_ZN6VectorIiE18getIncrementalSizeEm
	.def	_ZN6VectorIiE18getIncrementalSizeEm;	.scl	2;	.type	32;	.endef
	.seh_proc	_ZN6VectorIiE18getIncrementalSizeEm
_ZN6VectorIiE18getIncrementalSizeEm:
.LFB73:
	.loc 2 209 0
	.cfi_startproc
.LVL53:
	.seh_endprologue
	.loc 2 211 0
	leaq	(%rcx,%rcx,2), %rax
	shrq	%rax
	.loc 2 212 0
	ret
	.cfi_endproc
.LFE73:
	.seh_endproc
	.section	.text$_ZN6VectorIiE24adjustCapacityForOneMoreEv,"x"
	.linkonce discard
	.align 2
	.globl	_ZN6VectorIiE24adjustCapacityForOneMoreEv
	.def	_ZN6VectorIiE24adjustCapacityForOneMoreEv;	.scl	2;	.type	32;	.endef
	.seh_proc	_ZN6VectorIiE24adjustCapacityForOneMoreEv
_ZN6VectorIiE24adjustCapacityForOneMoreEv:
.LFB70:
	.loc 2 187 0
	.cfi_startproc
.LVL54:
	pushq	%rbx
	.seh_pushreg	%rbx
	.cfi_def_cfa_offset 16
	.cfi_offset 3, -16
	subq	$32, %rsp
	.seh_stackalloc	32
	.cfi_def_cfa_offset 48
	.seh_endprologue
	movq	%rcx, %rbx
	.loc 2 189 0
	movq	16(%rcx), %rax
	addq	$1, %rax
	movq	8(%rcx), %rcx
.LVL55:
	cmpq	%rcx, %rax
	ja	.L26
	.loc 2 191 0
	movl	$1, %eax
.L23:
	.loc 2 192 0
	addq	$32, %rsp
	.cfi_remember_state
	.cfi_def_cfa_offset 16
	popq	%rbx
	.cfi_restore 3
	.cfi_def_cfa_offset 8
.LVL56:
	ret
.LVL57:
.L26:
	.cfi_restore_state
	.loc 2 190 0
	call	_ZN6VectorIiE18getIncrementalSizeEm
.LVL58:
	movq	%rax, %rdx
	movq	%rbx, %rcx
	call	_ZN6VectorIiE14resizeCapacityEm
.LVL59:
	jmp	.L23
	.cfi_endproc
.LFE70:
	.seh_endproc
	.section	.text$_ZN6VectorIiE8pushBackEi,"x"
	.linkonce discard
	.align 2
	.globl	_ZN6VectorIiE8pushBackEi
	.def	_ZN6VectorIiE8pushBackEi;	.scl	2;	.type	32;	.endef
	.seh_proc	_ZN6VectorIiE8pushBackEi
_ZN6VectorIiE8pushBackEi:
.LFB57:
	.loc 2 81 0
	.cfi_startproc
.LVL60:
	pushq	%rsi
	.seh_pushreg	%rsi
	.cfi_def_cfa_offset 16
	.cfi_offset 4, -16
	pushq	%rbx
	.seh_pushreg	%rbx
	.cfi_def_cfa_offset 24
	.cfi_offset 3, -24
	subq	$40, %rsp
	.seh_stackalloc	40
	.cfi_def_cfa_offset 64
	.seh_endprologue
	movq	%rcx, %rbx
	movl	%edx, %esi
	.loc 2 83 0
	call	_ZN6VectorIiE24adjustCapacityForOneMoreEv
.LVL61:
	testb	%al, %al
	je	.L27
	.loc 2 85 0
	movq	16(%rbx), %rax
	addq	$1, %rax
	movq	%rax, 16(%rbx)
	.loc 2 86 0
	leaq	-4(,%rax,4), %rax
	addq	(%rbx), %rax
	movl	%esi, (%rax)
.L27:
	.loc 2 88 0
	addq	$40, %rsp
	.cfi_def_cfa_offset 24
	popq	%rbx
	.cfi_restore 3
	.cfi_def_cfa_offset 16
.LVL62:
	popq	%rsi
	.cfi_restore 4
	.cfi_def_cfa_offset 8
.LVL63:
	ret
	.cfi_endproc
.LFE57:
	.seh_endproc
	.text
	.align 2
	.globl	_ZN10TestVector26capacityIncreasedCorrectlyEv
	.def	_ZN10TestVector26capacityIncreasedCorrectlyEv;	.scl	2;	.type	32;	.endef
	.seh_proc	_ZN10TestVector26capacityIncreasedCorrectlyEv
_ZN10TestVector26capacityIncreasedCorrectlyEv:
.LFB43:
	.loc 1 37 0
	.cfi_startproc
.LVL64:
	pushq	%rsi
	.seh_pushreg	%rsi
	.cfi_def_cfa_offset 16
	.cfi_offset 4, -16
	pushq	%rbx
	.seh_pushreg	%rbx
	.cfi_def_cfa_offset 24
	.cfi_offset 3, -24
	subq	$72, %rsp
	.seh_stackalloc	72
	.cfi_def_cfa_offset 96
	.seh_endprologue
	.loc 1 38 0
	leaq	32(%rsp), %rbx
	movl	$8, %edx
	movq	%rbx, %rcx
.LVL65:
	call	_ZN6VectorIiEC1Em
.LVL66:
	.loc 1 39 0
	movl	$10, %edx
	movq	%rbx, %rcx
	call	_ZN6VectorIiE8pushBackEi
.LVL67:
	.loc 1 40 0
	movq	%rbx, %rcx
	call	_ZNK6VectorIiE11getCapacityEv
.LVL68:
	movq	%rax, %rsi
	.loc 1 38 0
	movq	%rbx, %rcx
	call	_ZN6VectorIiED1Ev
.LVL69:
	.loc 1 40 0
	cmpq	$12, %rsi
	sete	%al
	.loc 1 41 0
	addq	$72, %rsp
	.cfi_def_cfa_offset 24
	popq	%rbx
	.cfi_restore 3
	.cfi_def_cfa_offset 16
	popq	%rsi
	.cfi_restore 4
	.cfi_def_cfa_offset 8
	ret
	.cfi_endproc
.LFE43:
	.seh_endproc
	.section	.text$_ZN6VectorIiEC1ERKSt16initializer_listIiE,"x"
	.linkonce discard
	.align 2
	.globl	_ZN6VectorIiEC1ERKSt16initializer_listIiE
	.def	_ZN6VectorIiEC1ERKSt16initializer_listIiE;	.scl	2;	.type	32;	.endef
	.seh_proc	_ZN6VectorIiEC1ERKSt16initializer_listIiE
_ZN6VectorIiEC1ERKSt16initializer_listIiE:
.LFB64:
	.loc 2 24 0
	.cfi_startproc
.LVL70:
	pushq	%rdi
	.seh_pushreg	%rdi
	.cfi_def_cfa_offset 16
	.cfi_offset 5, -16
	pushq	%rsi
	.seh_pushreg	%rsi
	.cfi_def_cfa_offset 24
	.cfi_offset 4, -24
	pushq	%rbx
	.seh_pushreg	%rbx
	.cfi_def_cfa_offset 32
	.cfi_offset 3, -32
	subq	$32, %rsp
	.seh_stackalloc	32
	.cfi_def_cfa_offset 64
	.seh_endprologue
	movq	%rcx, %rdi
	movq	%rdx, %rsi
.LBB19:
	.loc 2 25 0
	movl	$0, %edx
.LVL71:
	call	_ZN6VectorIiEC1Em
.LVL72:
.LBB20:
.LBB21:
.LBB22:
	.file 4 "/usr/lib/gcc/x86_64-pc-cygwin/6.4.0/include/c++/initializer_list"
	.loc 4 75 0
	movq	(%rsi), %rbx
.LVL73:
.LBE22:
.LBE21:
.LBB23:
.LBB24:
.LBB25:
.LBB26:
	.loc 4 71 0
	movq	8(%rsi), %rax
.LVL74:
.LBE26:
.LBE25:
	.loc 4 79 0
	leaq	(%rbx,%rax,4), %rsi
.LVL75:
.L32:
.LBE24:
.LBE23:
	.loc 2 27 0 discriminator 3
	cmpq	%rsi, %rbx
	je	.L30
.LVL76:
	.loc 2 28 0 discriminator 2
	movl	(%rbx), %edx
	movq	%rdi, %rcx
	call	_ZN6VectorIiE8pushBackEi
.LVL77:
	.loc 2 27 0 discriminator 2
	addq	$4, %rbx
.LVL78:
	jmp	.L32
.LVL79:
.L30:
.LBE20:
.LBE19:
	.loc 2 29 0
	addq	$32, %rsp
	.cfi_def_cfa_offset 32
	popq	%rbx
	.cfi_restore 3
	.cfi_def_cfa_offset 24
.LVL80:
	popq	%rsi
	.cfi_restore 4
	.cfi_def_cfa_offset 16
	popq	%rdi
	.cfi_restore 5
	.cfi_def_cfa_offset 8
.LVL81:
	ret
	.cfi_endproc
.LFE64:
	.seh_endproc
	.section	.text$_ZN6VectorIiE24adjustCapacityForOneLessEv,"x"
	.linkonce discard
	.align 2
	.globl	_ZN6VectorIiE24adjustCapacityForOneLessEv
	.def	_ZN6VectorIiE24adjustCapacityForOneLessEv;	.scl	2;	.type	32;	.endef
	.seh_proc	_ZN6VectorIiE24adjustCapacityForOneLessEv
_ZN6VectorIiE24adjustCapacityForOneLessEv:
.LFB71:
	.loc 2 195 0
	.cfi_startproc
.LVL82:
	pushq	%rbx
	.seh_pushreg	%rbx
	.cfi_def_cfa_offset 16
	.cfi_offset 3, -16
	subq	$32, %rsp
	.seh_stackalloc	32
	.cfi_def_cfa_offset 48
	.seh_endprologue
	movq	%rcx, %rbx
	.loc 2 199 0
	movq	16(%rcx), %rcx
.LVL83:
	testq	%rcx, %rcx
	je	.L37
	.loc 2 199 0 is_stmt 0 discriminator 1
	subq	$1, %rcx
	call	_ZN6VectorIiE18getIncrementalSizeEm
.LVL84:
.L34:
	.loc 2 200 0 is_stmt 1 discriminator 4
	cmpq	$7, %rax
	ja	.L35
	.loc 2 201 0
	movl	$8, %eax
.LVL85:
.L35:
	.loc 2 202 0
	cmpq	8(%rbx), %rax
	jb	.L40
	.loc 2 204 0
	movl	$1, %eax
.LVL86:
.L33:
	.loc 2 206 0
	addq	$32, %rsp
	.cfi_remember_state
	.cfi_def_cfa_offset 16
	popq	%rbx
	.cfi_restore 3
	.cfi_def_cfa_offset 8
.LVL87:
	ret
.LVL88:
.L37:
	.cfi_restore_state
	.loc 2 199 0
	movl	$8, %eax
	jmp	.L34
.LVL89:
.L40:
	.loc 2 203 0
	movq	%rax, %rdx
	movq	%rbx, %rcx
	call	_ZN6VectorIiE14resizeCapacityEm
.LVL90:
	jmp	.L33
	.cfi_endproc
.LFE71:
	.seh_endproc
	.section	.text$_ZN6VectorIiE7popBackEv,"x"
	.linkonce discard
	.align 2
	.globl	_ZN6VectorIiE7popBackEv
	.def	_ZN6VectorIiE7popBackEv;	.scl	2;	.type	32;	.endef
	.seh_proc	_ZN6VectorIiE7popBackEv
_ZN6VectorIiE7popBackEv:
.LFB58:
	.loc 2 73 0
	.cfi_startproc
.LVL91:
	pushq	%rbx
	.seh_pushreg	%rbx
	.cfi_def_cfa_offset 16
	.cfi_offset 3, -16
	subq	$32, %rsp
	.seh_stackalloc	32
	.cfi_def_cfa_offset 48
	.seh_endprologue
	movq	%rcx, %rbx
	.loc 2 75 0
	call	_ZN6VectorIiE24adjustCapacityForOneLessEv
.LVL92:
	testb	%al, %al
	je	.L42
	.loc 2 76 0
	movq	16(%rbx), %rax
	testq	%rax, %rax
	jne	.L44
.L42:
	.loc 2 78 0
	movq	(%rbx), %rax
	movl	(%rax), %eax
.L41:
	.loc 2 79 0
	addq	$32, %rsp
	.cfi_remember_state
	.cfi_def_cfa_offset 16
	popq	%rbx
	.cfi_restore 3
	.cfi_def_cfa_offset 8
.LVL93:
	ret
.LVL94:
.L44:
	.cfi_restore_state
	.loc 2 77 0
	movq	(%rbx), %rdx
	subq	$1, %rax
	movq	%rax, 16(%rbx)
	movl	(%rdx,%rax,4), %eax
	jmp	.L41
	.cfi_endproc
.LFE58:
	.seh_endproc
	.text
	.align 2
	.globl	_ZN10TestVector27popBackWhenEmptyNoExceptionEv
	.def	_ZN10TestVector27popBackWhenEmptyNoExceptionEv;	.scl	2;	.type	32;	.endef
	.seh_proc	_ZN10TestVector27popBackWhenEmptyNoExceptionEv
_ZN10TestVector27popBackWhenEmptyNoExceptionEv:
.LFB45:
	.loc 1 47 0
	.cfi_startproc
.LVL95:
	pushq	%rbx
	.seh_pushreg	%rbx
	.cfi_def_cfa_offset 16
	.cfi_offset 3, -16
	subq	$64, %rsp
	.seh_stackalloc	64
	.cfi_def_cfa_offset 80
	.seh_endprologue
	.loc 1 48 0
	leaq	32(%rsp), %rbx
	movl	$0, %edx
	movq	%rbx, %rcx
.LVL96:
	call	_ZN6VectorIiEC1Em
.LVL97:
	.loc 1 49 0
	movq	%rbx, %rcx
	call	_ZN6VectorIiE7popBackEv
.LVL98:
	.loc 1 48 0
	movq	%rbx, %rcx
	call	_ZN6VectorIiED1Ev
.LVL99:
	.loc 1 52 0
	movl	$1, %eax
	addq	$64, %rsp
	.cfi_def_cfa_offset 16
	popq	%rbx
	.cfi_restore 3
	.cfi_def_cfa_offset 8
	ret
	.cfi_endproc
.LFE45:
	.seh_endproc
	.section	.text$_ZN6VectorIiE5eraseEm,"x"
	.linkonce discard
	.align 2
	.globl	_ZN6VectorIiE5eraseEm
	.def	_ZN6VectorIiE5eraseEm;	.scl	2;	.type	32;	.endef
	.seh_proc	_ZN6VectorIiE5eraseEm
_ZN6VectorIiE5eraseEm:
.LFB65:
	.loc 2 127 0
	.cfi_startproc
.LVL100:
	pushq	%rsi
	.seh_pushreg	%rsi
	.cfi_def_cfa_offset 16
	.cfi_offset 4, -16
	pushq	%rbx
	.seh_pushreg	%rbx
	.cfi_def_cfa_offset 24
	.cfi_offset 3, -24
	subq	$40, %rsp
	.seh_stackalloc	40
	.cfi_def_cfa_offset 64
	.seh_endprologue
	movq	%rcx, %rsi
	movq	%rdx, %rbx
.LBB27:
	.loc 2 129 0
	cmpq	%rdx, 16(%rcx)
	ja	.L51
	movl	$0, %eax
.LVL101:
.L47:
	.loc 2 129 0 is_stmt 0 discriminator 6
	testb	%al, %al
	je	.L46
.LBB28:
	.loc 2 131 0 is_stmt 1
	movq	16(%rsi), %rax
	subq	$1, %rax
	movq	%rax, 16(%rsi)
.LVL102:
.L49:
.LBB29:
	.loc 2 132 0 discriminator 3
	cmpq	16(%rsi), %rbx
	je	.L46
	.loc 2 133 0 discriminator 2
	movq	(%rsi), %rdx
	leaq	1(%rbx), %rax
	movl	(%rdx,%rax,4), %ecx
	movl	%ecx, (%rdx,%rbx,4)
.LVL103:
	.loc 2 132 0 discriminator 2
	movq	%rax, %rbx
	jmp	.L49
.LVL104:
.L51:
.LBE29:
.LBE28:
	.loc 2 129 0 discriminator 1
	call	_ZN6VectorIiE24adjustCapacityForOneLessEv
.LVL105:
	jmp	.L47
.LVL106:
.L46:
.LBE27:
	.loc 2 135 0
	addq	$40, %rsp
	.cfi_def_cfa_offset 24
	popq	%rbx
	.cfi_restore 3
	.cfi_def_cfa_offset 16
	popq	%rsi
	.cfi_restore 4
	.cfi_def_cfa_offset 8
.LVL107:
	ret
	.cfi_endproc
.LFE65:
	.seh_endproc
	.text
	.align 2
	.globl	_ZN10TestVector14eraseCorrectlyEv
	.def	_ZN10TestVector14eraseCorrectlyEv;	.scl	2;	.type	32;	.endef
	.seh_proc	_ZN10TestVector14eraseCorrectlyEv
_ZN10TestVector14eraseCorrectlyEv:
.LFB47:
	.loc 1 58 0
	.cfi_startproc
.LVL108:
	pushq	%rbx
	.seh_pushreg	%rbx
	.cfi_def_cfa_offset 16
	.cfi_offset 3, -16
	subq	$80, %rsp
	.seh_stackalloc	80
	.cfi_def_cfa_offset 96
	.seh_endprologue
	.loc 1 59 0
	leaq	._5(%rip), %rax
	movq	%rax, 64(%rsp)
	movq	$9, 72(%rsp)
	leaq	64(%rsp), %rdx
	leaq	32(%rsp), %rbx
	movq	%rbx, %rcx
.LVL109:
	call	_ZN6VectorIiEC1ERKSt16initializer_listIiE
.LVL110:
	.loc 1 60 0
	movl	$4, %edx
	movq	%rbx, %rcx
	call	_ZN6VectorIiE5eraseEm
.LVL111:
.LBB30:
	.loc 1 61 0
	movl	$0, %ebx
.LVL112:
.L54:
	.loc 1 61 0 is_stmt 0 discriminator 1
	leaq	32(%rsp), %rcx
	call	_ZNK6VectorIiE7getSizeEv
.LVL113:
	cmpq	%rax, %rbx
	je	.L55
	.loc 1 62 0 is_stmt 1
	leaq	32(%rsp), %rcx
	movq	%rbx, %rdx
	call	_ZN6VectorIiEixEm
.LVL114:
	movslq	(%rax), %rax
	cmpq	%rax, %rbx
	jne	.L56
	.loc 1 61 0 discriminator 2
	addq	$1, %rbx
.LVL115:
	jmp	.L54
.L55:
.LBE30:
	.loc 1 64 0
	movl	$1, %ebx
.LVL116:
.L53:
	.loc 1 59 0
	leaq	32(%rsp), %rcx
	call	_ZN6VectorIiED1Ev
.LVL117:
	.loc 1 66 0
	movl	%ebx, %eax
	addq	$80, %rsp
	.cfi_remember_state
	.cfi_def_cfa_offset 16
	popq	%rbx
	.cfi_restore 3
	.cfi_def_cfa_offset 8
	ret
.LVL118:
.L56:
	.cfi_restore_state
.LBB31:
	.loc 1 63 0
	movl	$0, %ebx
.LVL119:
	jmp	.L53
.LBE31:
	.cfi_endproc
.LFE47:
	.seh_endproc
	.section	.text$_ZN6VectorIiE6insertEmRKi,"x"
	.linkonce discard
	.align 2
	.globl	_ZN6VectorIiE6insertEmRKi
	.def	_ZN6VectorIiE6insertEmRKi;	.scl	2;	.type	32;	.endef
	.seh_proc	_ZN6VectorIiE6insertEmRKi
_ZN6VectorIiE6insertEmRKi:
.LFB68:
	.loc 2 146 0
	.cfi_startproc
.LVL120:
	pushq	%rdi
	.seh_pushreg	%rdi
	.cfi_def_cfa_offset 16
	.cfi_offset 5, -16
	pushq	%rsi
	.seh_pushreg	%rsi
	.cfi_def_cfa_offset 24
	.cfi_offset 4, -24
	pushq	%rbx
	.seh_pushreg	%rbx
	.cfi_def_cfa_offset 32
	.cfi_offset 3, -32
	subq	$32, %rsp
	.seh_stackalloc	32
	.cfi_def_cfa_offset 64
	.seh_endprologue
	movq	%rcx, %rsi
	movq	%rdx, %rbx
	movq	%r8, %rdi
	.loc 2 148 0
	cmpq	%rdx, 16(%rcx)
	jnb	.L65
	movl	$1, %eax
.LVL121:
.L58:
	.loc 2 148 0 is_stmt 0 discriminator 6
	testb	%al, %al
	je	.L66
	.loc 2 149 0 is_stmt 1
	movq	$-1, %rax
.L57:
	.loc 2 155 0
	addq	$32, %rsp
	.cfi_remember_state
	.cfi_def_cfa_offset 32
	popq	%rbx
	.cfi_restore 3
	.cfi_def_cfa_offset 24
.LVL122:
	popq	%rsi
	.cfi_restore 4
	.cfi_def_cfa_offset 16
.LVL123:
	popq	%rdi
	.cfi_restore 5
	.cfi_def_cfa_offset 8
.LVL124:
	ret
.LVL125:
.L65:
	.cfi_restore_state
	.loc 2 148 0 discriminator 2
	call	_ZN6VectorIiE24adjustCapacityForOneLessEv
.LVL126:
	testb	%al, %al
	je	.L63
	.loc 2 148 0 is_stmt 0
	movl	$0, %eax
	jmp	.L58
.L63:
	movl	$1, %eax
	jmp	.L58
.L66:
	.loc 2 150 0 is_stmt 1
	movq	16(%rsi), %rdx
	leaq	1(%rdx), %rax
	movq	%rax, 16(%rsi)
.LVL127:
.L61:
.LBB32:
	.loc 2 151 0 discriminator 3
	cmpq	%rbx, %rdx
	je	.L60
	.loc 2 152 0 discriminator 2
	movq	(%rsi), %r8
	leaq	0(,%rdx,4), %rcx
	movl	-4(%r8,%rcx), %eax
	movl	%eax, (%r8,%rcx)
	.loc 2 151 0 discriminator 2
	subq	$1, %rdx
.LVL128:
	jmp	.L61
.L60:
.LBE32:
	.loc 2 153 0
	leaq	0(,%rbx,4), %rax
	addq	(%rsi), %rax
	movl	(%rdi), %edx
.LVL129:
	movl	%edx, (%rax)
	.loc 2 154 0
	movq	%rbx, %rax
	jmp	.L57
	.cfi_endproc
.LFE68:
	.seh_endproc
	.text
	.align 2
	.globl	_ZN10TestVector15insertCorrectlyEv
	.def	_ZN10TestVector15insertCorrectlyEv;	.scl	2;	.type	32;	.endef
	.seh_proc	_ZN10TestVector15insertCorrectlyEv
_ZN10TestVector15insertCorrectlyEv:
.LFB48:
	.loc 1 68 0
	.cfi_startproc
.LVL130:
	pushq	%rsi
	.seh_pushreg	%rsi
	.cfi_def_cfa_offset 16
	.cfi_offset 4, -16
	pushq	%rbx
	.seh_pushreg	%rbx
	.cfi_def_cfa_offset 24
	.cfi_offset 3, -24
	subq	$104, %rsp
	.seh_stackalloc	104
	.cfi_def_cfa_offset 128
	.seh_endprologue
	.loc 1 69 0
	leaq	._6(%rip), %rax
	movq	%rax, 64(%rsp)
	movq	$7, 72(%rsp)
	leaq	64(%rsp), %rdx
	leaq	32(%rsp), %rbx
	movq	%rbx, %rcx
.LVL131:
	call	_ZN6VectorIiEC1ERKSt16initializer_listIiE
.LVL132:
	.loc 1 70 0
	movq	%rbx, %rcx
	call	_ZNK6VectorIiE7getSizeEv
.LVL133:
	movq	%rax, %rsi
.LVL134:
	.loc 1 71 0
	movl	$0, 88(%rsp)
	leaq	1(%rax), %rdx
	leaq	88(%rsp), %r8
	movq	%rbx, %rcx
	call	_ZN6VectorIiE6insertEmRKi
.LVL135:
	.loc 1 72 0
	movq	%rbx, %rcx
	call	_ZNK6VectorIiE7getSizeEv
.LVL136:
	cmpq	%rax, %rsi
	je	.L73
	.loc 1 73 0
	movl	$0, %ebx
.L68:
	.loc 1 69 0
	leaq	32(%rsp), %rcx
	call	_ZN6VectorIiED1Ev
.LVL137:
	.loc 1 80 0
	movl	%ebx, %eax
	addq	$104, %rsp
	.cfi_remember_state
	.cfi_def_cfa_offset 24
	popq	%rbx
	.cfi_restore 3
	.cfi_def_cfa_offset 16
	popq	%rsi
	.cfi_restore 4
	.cfi_def_cfa_offset 8
.LVL138:
	ret
.LVL139:
.L73:
	.cfi_restore_state
	.loc 1 75 0
	movl	$4, 92(%rsp)
	leaq	32(%rsp), %rcx
	leaq	92(%rsp), %r8
	movl	$4, %edx
	call	_ZN6VectorIiE6insertEmRKi
.LVL140:
.LBB33:
	.loc 1 76 0
	movl	$0, %ebx
.LVL141:
.L69:
	.loc 1 76 0 is_stmt 0 discriminator 1
	leaq	32(%rsp), %rcx
	call	_ZNK6VectorIiE7getSizeEv
.LVL142:
	cmpq	%rax, %rbx
	je	.L71
	.loc 1 77 0 is_stmt 1
	leaq	32(%rsp), %rcx
	movq	%rbx, %rdx
	call	_ZN6VectorIiEixEm
.LVL143:
	movslq	(%rax), %rax
	cmpq	%rax, %rbx
	jne	.L72
	.loc 1 76 0 discriminator 2
	addq	$1, %rbx
.LVL144:
	jmp	.L69
.L71:
.LBE33:
	.loc 1 79 0
	movl	$1, %ebx
.LVL145:
	jmp	.L68
.LVL146:
.L72:
.LBB34:
	.loc 1 78 0
	movl	$0, %ebx
.LVL147:
	jmp	.L68
.LBE34:
	.cfi_endproc
.LFE48:
	.seh_endproc
	.section .rdata,"dr"
	.align 16
._6:
	.long	0
	.long	1
	.long	2
	.long	3
	.long	5
	.long	6
	.long	7
	.align 32
._5:
	.long	0
	.long	1
	.long	2
	.long	3
	.long	4
	.long	4
	.long	5
	.long	6
	.long	7
	.text
.Letext0:
	.file 5 "/usr/lib/gcc/x86_64-pc-cygwin/6.4.0/include/stddef.h"
	.file 6 "/usr/lib/gcc/x86_64-pc-cygwin/6.4.0/include/c++/cstddef"
	.file 7 "/usr/lib/gcc/x86_64-pc-cygwin/6.4.0/include/c++/cstdint"
	.file 8 "/usr/lib/gcc/x86_64-pc-cygwin/6.4.0/include/c++/x86_64-pc-cygwin/bits/c++config.h"
	.file 9 "/usr/lib/gcc/x86_64-pc-cygwin/6.4.0/include/stdint-gcc.h"
	.file 10 "D:\\Pool\\eclipse-workspace_aarch64\\newspace\\raspiOS\\include/def.h"
	.file 11 "D:\\Pool\\eclipse-workspace_aarch64\\newspace\\raspiOS\\include/printk.h"
	.file 12 "D:\\Pool\\eclipse-workspace_aarch64\\newspace\\raspiOS\\include/generic_util.h"
	.file 13 "D:\\Pool\\eclipse-workspace_aarch64\\newspace\\raspiOS\\include/memory/MemoryChunk.h"
	.file 14 "D:\\Pool\\eclipse-workspace_aarch64\\newspace\\raspiOS\\include/memory/MemoryManager.h"
	.file 15 "D:\\Pool\\eclipse-workspace_aarch64\\newspace\\raspiOS\\include/kernel.h"
	.file 16 "D:\\Pool\\eclipse-workspace_aarch64\\newspace\\raspiOS\\include/data_structures/Vector.h"
	.file 17 "D:\\Pool\\eclipse-workspace_aarch64\\newspace\\raspiOS\\include/test/TestVector.h"
	.file 18 "<built-in>"
	.section	.rdata$.refptr.mman, "dr"
	.globl	.refptr.mman
	.linkonce	discard
.refptr.mman:
	.quad	mman
