make[1]: 进入目录“/cygdrive/d/Pool/eclipse-workspace_aarch64/chap003/Debug-qemu_virt”
aarch64-elf-objdump -D -b binary -m aarch64 kernel.chap003-qemu_virt.img | less

kernel.chap003-qemu_virt.img:     file format binary


Disassembly of section .data:

0000000000000000 <.data>:
           0:	14000003 	b	0xc
           4:	a9bf7bfd 	stp	x29, x30, [sp, #-16]!
           8:	910003fd 	mov	x29, sp
           c:	d53800a0 	mrs	x0, mpidr_el1
          10:	92400400 	and	x0, x0, #0x3
          14:	b4000060 	cbz	x0, 0x20
          18:	d503205f 	wfe
          1c:	17ffffff 	b	0x18
          20:	58000244 	ldr	x4, 0x68
          24:	52800205 	mov	w5, #0x10                  	// #16
          28:	b9002485 	str	w5, [x4, #36]
          2c:	52986005 	mov	w5, #0xc300                	// #49920
          30:	320000a5 	orr	w5, w5, #0x1
          34:	b9003085 	str	w5, [x4, #48]
          38:	580001c0 	ldr	x0, 0x70
          3c:	9100001f 	mov	sp, x0
          40:	580001c0 	ldr	x0, 0x78
          44:	18000101 	ldr	w1, 0x64
          48:	34000081 	cbz	w1, 0x58
          4c:	f800841f 	str	xzr, [x0], #8
          50:	51000421 	sub	w1, w1, #0x1
          54:	35ffffa1 	cbnz	w1, 0x48
          58:	9400000a 	bl	0x80
          5c:	d503205f 	wfe
          60:	17ffffff 	b	0x5c
          64:	0000000c 	.inst	0x0000000c ; undefined
          68:	09000000 	.inst	0x09000000 ; undefined
          6c:	00000000 	.inst	0x00000000 ; undefined
          70:	40001000 	.inst	0x40001000 ; undefined
          74:	00000000 	.inst	0x00000000 ; undefined
          78:	40001800 	.inst	0x40001800 ; undefined
          7c:	00000000 	.inst	0x00000000 ; undefined
          80:	a9b77bfd 	stp	x29, x30, [sp, #-144]!
          84:	910003fd 	mov	x29, sp
          88:	d5384240 	mrs	x0, currentel
          8c:	121e0400 	and	w0, w0, #0xc
          90:	7100101f 	cmp	w0, #0x4
          94:	54000180 	b.eq	0xc4  // b.none
          98:	d0000021 	adrp	x1, 0x6000
          9c:	91278021 	add	x1, x1, #0x9e0
          a0:	b0200000 	adrp	x0, 0x40001000
          a4:	91206000 	add	x0, x0, #0x818
          a8:	94001154 	bl	0x45f8
          ac:	d0000021 	adrp	x1, 0x6000
          b0:	9127c021 	add	x1, x1, #0x9f0
          b4:	94001151 	bl	0x45f8
          b8:	52800020 	mov	w0, #0x1                   	// #1
          bc:	a8c97bfd 	ldp	x29, x30, [sp], #144
          c0:	d65f03c0 	ret
          c4:	a90153b3 	stp	x19, x20, [x29, #16]
          c8:	a9025bb5 	stp	x21, x22, [x29, #32]
          cc:	58002460 	ldr	x0, 0x558
          d0:	d518c000 	msr	vbar_el1, x0
          d4:	d5380713 	mrs	x19, id_aa64mmfr0_el1
          d8:	d0000021 	adrp	x1, 0x6000
          dc:	91280021 	add	x1, x1, #0xa00
          e0:	b0200000 	adrp	x0, 0x40001000
          e4:	91206000 	add	x0, x0, #0x818
          e8:	94001144 	bl	0x45f8
          ec:	d0000021 	adrp	x1, 0x6000
          f0:	91286021 	add	x1, x1, #0xa18
          f4:	94001141 	bl	0x45f8
          f8:	d3400e61 	ubfx	x1, x19, #0, #4
          fc:	12001c35 	and	w21, w1, #0xff
         100:	92400c21 	and	x1, x1, #0xf
         104:	94001147 	bl	0x4620
         108:	d0000034 	adrp	x20, 0x6000
         10c:	911a0294 	add	x20, x20, #0x680
         110:	aa1403e1 	mov	x1, x20
         114:	94001139 	bl	0x45f8
         118:	d0000021 	adrp	x1, 0x6000
         11c:	9128a021 	add	x1, x1, #0xa28
         120:	94001136 	bl	0x45f8
         124:	d3441e61 	ubfx	x1, x19, #4, #4
         128:	9400113e 	bl	0x4620
         12c:	aa1403e1 	mov	x1, x20
         130:	94001132 	bl	0x45f8
         134:	d0000021 	adrp	x1, 0x6000
         138:	9128e021 	add	x1, x1, #0xa38
         13c:	9400112f 	bl	0x45f8
         140:	d3482e61 	ubfx	x1, x19, #8, #4
         144:	94001137 	bl	0x4620
         148:	aa1403e1 	mov	x1, x20
         14c:	9400112b 	bl	0x45f8
         150:	d0000021 	adrp	x1, 0x6000
         154:	91292021 	add	x1, x1, #0xa48
         158:	94001128 	bl	0x45f8
         15c:	d34c3e61 	ubfx	x1, x19, #12, #4
         160:	94001130 	bl	0x4620
         164:	aa1403e1 	mov	x1, x20
         168:	94001124 	bl	0x45f8
         16c:	d0000021 	adrp	x1, 0x6000
         170:	91296021 	add	x1, x1, #0xa58
         174:	94001121 	bl	0x45f8
         178:	d3504e61 	ubfx	x1, x19, #16, #4
         17c:	94001129 	bl	0x4620
         180:	aa1403e1 	mov	x1, x20
         184:	9400111d 	bl	0x45f8
         188:	d0000021 	adrp	x1, 0x6000
         18c:	9129a021 	add	x1, x1, #0xa68
         190:	9400111a 	bl	0x45f8
         194:	aa0003f6 	mov	x22, x0
         198:	d3545e61 	ubfx	x1, x19, #20, #4
         19c:	910223a0 	add	x0, x29, #0x88
         1a0:	940013a1 	bl	0x5024
         1a4:	910223a1 	add	x1, x29, #0x88
         1a8:	aa1603e0 	mov	x0, x22
         1ac:	94001289 	bl	0x4bd0
         1b0:	aa1403e1 	mov	x1, x20
         1b4:	94001111 	bl	0x45f8
         1b8:	d0000021 	adrp	x1, 0x6000
         1bc:	9129e021 	add	x1, x1, #0xa78
         1c0:	9400110e 	bl	0x45f8
         1c4:	aa0003f6 	mov	x22, x0
         1c8:	d3586e61 	ubfx	x1, x19, #24, #4
         1cc:	910203a0 	add	x0, x29, #0x80
         1d0:	94001395 	bl	0x5024
         1d4:	910203a1 	add	x1, x29, #0x80
         1d8:	aa1603e0 	mov	x0, x22
         1dc:	9400127d 	bl	0x4bd0
         1e0:	aa1403e1 	mov	x1, x20
         1e4:	94001105 	bl	0x45f8
         1e8:	d0000021 	adrp	x1, 0x6000
         1ec:	912a2021 	add	x1, x1, #0xa88
         1f0:	94001102 	bl	0x45f8
         1f4:	aa0003f6 	mov	x22, x0
         1f8:	531c7e61 	lsr	w1, w19, #28
         1fc:	9101e3a0 	add	x0, x29, #0x78
         200:	94001389 	bl	0x5024
         204:	9101e3a1 	add	x1, x29, #0x78
         208:	aa1603e0 	mov	x0, x22
         20c:	94001271 	bl	0x4bd0
         210:	aa1403e1 	mov	x1, x20
         214:	940010f9 	bl	0x45f8
         218:	d0000021 	adrp	x1, 0x6000
         21c:	911ae021 	add	x1, x1, #0x6b8
         220:	940010f6 	bl	0x45f8
         224:	d360fe61 	lsr	x1, x19, #32
         228:	940010fe 	bl	0x4620
         22c:	d0000021 	adrp	x1, 0x6000
         230:	912de021 	add	x1, x1, #0xb78
         234:	940010f1 	bl	0x45f8
         238:	53187e73 	lsr	w19, w19, #24
         23c:	721c0e7f 	tst	w19, #0xf0
         240:	540012e1 	b.ne	0x49c  // b.any
         244:	b0000020 	adrp	x0, 0x5000
         248:	91368000 	add	x0, x0, #0xda0
         24c:	a9400c02 	ldp	x2, x3, [x0]
         250:	a9058fa2 	stp	x2, x3, [x29, #88]
         254:	f9400801 	ldr	x1, [x0, #16]
         258:	f90037a1 	str	x1, [x29, #104]
         25c:	b9401801 	ldr	w1, [x0, #24]
         260:	b90073a1 	str	w1, [x29, #112]
         264:	91008001 	add	x1, x0, #0x20
         268:	a9420c02 	ldp	x2, x3, [x0, #32]
         26c:	a9038fa2 	stp	x2, x3, [x29, #56]
         270:	f9401800 	ldr	x0, [x0, #48]
         274:	f90027a0 	str	x0, [x29, #72]
         278:	b9401820 	ldr	w0, [x1, #24]
         27c:	b90053a0 	str	w0, [x29, #80]
         280:	71001abf 	cmp	w21, #0x6
         284:	54001248 	b.hi	0x4cc  // b.pmore
         288:	2a1503e4 	mov	w4, w21
         28c:	910163a0 	add	x0, x29, #0x58
         290:	b875d800 	ldr	w0, [x0, w21, sxtw #2]
         294:	7100d01f 	cmp	w0, #0x34
         298:	54001320 	b.eq	0x4fc  // b.none
         29c:	d5382053 	mrs	x19, tcr_el1
         2a0:	9259f673 	and	x19, x19, #0xffffff9fffffffff
         2a4:	12000880 	and	w0, w4, #0x7
         2a8:	b3600813 	bfi	x19, x0, #32, #3
         2ac:	910163a0 	add	x0, x29, #0x58
         2b0:	b864d801 	ldr	w1, [x0, w4, sxtw #2]
         2b4:	52800800 	mov	w0, #0x40                  	// #64
         2b8:	4b010000 	sub	w0, w0, w1
         2bc:	12001400 	and	w0, w0, #0x3f
         2c0:	b3701413 	bfi	x19, x0, #16, #6
         2c4:	b3401413 	bfxil	x19, x0, #0, #6
         2c8:	9269fa73 	and	x19, x19, #0xffffffffffbfffff
         2cc:	d2800040 	mov	x0, #0x2                   	// #2
         2d0:	b3620413 	bfi	x19, x0, #30, #2
         2d4:	b3720413 	bfi	x19, x0, #14, #2
         2d8:	b3640413 	bfi	x19, x0, #28, #2
         2dc:	b3740413 	bfi	x19, x0, #12, #2
         2e0:	d2800020 	mov	x0, #0x1                   	// #1
         2e4:	b3680413 	bfi	x19, x0, #24, #2
         2e8:	b3780413 	bfi	x19, x0, #8, #2
         2ec:	b3660413 	bfi	x19, x0, #26, #2
         2f0:	b3760413 	bfi	x19, x0, #10, #2
         2f4:	9268fa73 	and	x19, x19, #0xffffffffff7fffff
         2f8:	9278fa73 	and	x19, x19, #0xffffffffffffff7f
         2fc:	d5182053 	msr	tcr_el1, x19
         300:	d29fe000 	mov	x0, #0xff00                	// #65280
         304:	d2800881 	mov	x1, #0x44                  	// #68
         308:	b3681c20 	bfi	x0, x1, #24, #8
         30c:	d518a200 	msr	mair_el1, x0
         310:	90000000 	adrp	x0, 0x0
         314:	91123000 	add	x0, x0, #0x48c
         318:	f10ff81f 	cmp	x0, #0x3fe
         31c:	54001048 	b.hi	0x524  // b.pmore
         320:	b0200001 	adrp	x1, 0x40001000
         324:	91000020 	add	x0, x1, #0x0
         328:	39400022 	ldrb	w2, [x1]
         32c:	32000442 	orr	w2, w2, #0x3
         330:	39000022 	strb	w2, [x1]
         334:	39401801 	ldrb	w1, [x0, #6]
         338:	121c6c21 	and	w1, w1, #0xfffffff0
         33c:	39001801 	strb	w1, [x0, #6]
         340:	39401c01 	ldrb	w1, [x0, #7]
         344:	12001821 	and	w1, w1, #0x7f
         348:	39001c01 	strb	w1, [x0, #7]
         34c:	b0200006 	adrp	x6, 0x40001000
         350:	911000c1 	add	x1, x6, #0x400
         354:	d34cbc23 	ubfx	x3, x1, #12, #36
         358:	f9400002 	ldr	x2, [x0]
         35c:	b3748c62 	bfi	x2, x3, #12, #36
         360:	f9000002 	str	x2, [x0]
         364:	d378fc42 	lsr	x2, x2, #56
         368:	12196c42 	and	w2, w2, #0xffffff87
         36c:	39001c02 	strb	w2, [x0, #7]
         370:	395000c2 	ldrb	w2, [x6, #1024]
         374:	121e7842 	and	w2, w2, #0xfffffffd
         378:	39400c23 	ldrb	w3, [x1, #3]
         37c:	12001463 	and	w3, w3, #0x3f
         380:	39000c23 	strb	w3, [x1, #3]
         384:	3900103f 	strb	wzr, [x1, #4]
         388:	3900143f 	strb	wzr, [x1, #5]
         38c:	39400423 	ldrb	w3, [x1, #1]
         390:	321e0063 	orr	w3, w3, #0x4
         394:	321b0042 	orr	w2, w2, #0x20
         398:	52800027 	mov	w7, #0x1                   	// #1
         39c:	331e08e2 	bfi	w2, w7, #2, #3
         3a0:	39401825 	ldrb	w5, [x1, #6]
         3a4:	121974a5 	and	w5, w5, #0xffffff9f
         3a8:	321c00a5 	orr	w5, w5, #0x10
         3ac:	39001825 	strb	w5, [x1, #6]
         3b0:	2a070042 	orr	w2, w2, w7
         3b4:	331a04e2 	bfi	w2, w7, #6, #2
         3b8:	391000c2 	strb	w2, [x6, #1024]
         3bc:	121c7862 	and	w2, w3, #0xfffffff7
         3c0:	52800043 	mov	w3, #0x2                   	// #2
         3c4:	33000462 	bfxil	w2, w3, #0, #2
         3c8:	39000422 	strb	w2, [x1, #1]
         3cc:	d2800001 	mov	x1, #0x0                   	// #0
         3d0:	9100e3a2 	add	x2, x29, #0x38
         3d4:	b864d842 	ldr	w2, [x2, w4, sxtw #2]
         3d8:	11000c42 	add	w2, w2, #0x3
         3dc:	9ac22400 	lsr	x0, x0, x2
         3e0:	b37fb801 	bfi	x1, x0, #1, #47
         3e4:	d5382000 	mrs	x0, ttbr0_el1
         3e8:	d5182001 	msr	ttbr0_el1, x1
         3ec:	d5182001 	msr	ttbr0_el1, x1
         3f0:	d5033fdf 	isb
         3f4:	d5381000 	mrs	x0, sctlr_el1
         3f8:	2a070000 	orr	w0, w0, w7
         3fc:	d5181000 	msr	sctlr_el1, x0
         400:	d5033fdf 	isb
         404:	d0000035 	adrp	x21, 0x6000
         408:	911902b5 	add	x21, x21, #0x640
         40c:	b0200014 	adrp	x20, 0x40001000
         410:	91206294 	add	x20, x20, #0x818
         414:	aa1503e1 	mov	x1, x21
         418:	aa1403e0 	mov	x0, x20
         41c:	94001077 	bl	0x45f8
         420:	d0000021 	adrp	x1, 0x6000
         424:	912d2021 	add	x1, x1, #0xb48
         428:	94001074 	bl	0x45f8
         42c:	53105673 	ubfx	w19, w19, #16, #6
         430:	52800800 	mov	w0, #0x40                  	// #64
         434:	4b130013 	sub	w19, w0, w19
         438:	92800000 	mov	x0, #0xffffffffffffffff    	// #-1
         43c:	9ad32400 	lsr	x0, x0, x19
         440:	9ad32013 	lsl	x19, x0, x19
         444:	90000000 	adrp	x0, 0x0
         448:	91117000 	add	x0, x0, #0x45c
         44c:	aa130000 	orr	x0, x0, x19
         450:	d2800001 	mov	x1, #0x0                   	// #0
         454:	b340fc01 	bfxil	x1, x0, #0, #64
         458:	d61f0020 	br	x1
         45c:	aa1503e1 	mov	x1, x21
         460:	aa1403e0 	mov	x0, x20
         464:	94001065 	bl	0x45f8
         468:	d0000021 	adrp	x1, 0x6000
         46c:	912d8021 	add	x1, x1, #0xb60
         470:	94001062 	bl	0x45f8
         474:	aa1503e1 	mov	x1, x21
         478:	aa1403e0 	mov	x0, x20
         47c:	9400105f 	bl	0x45f8
         480:	d0000021 	adrp	x1, 0x6000
         484:	912e0021 	add	x1, x1, #0xb80
         488:	9400105c 	bl	0x45f8
         48c:	52800000 	mov	w0, #0x0                   	// #0
         490:	a94153b3 	ldp	x19, x20, [x29, #16]
         494:	a9425bb5 	ldp	x21, x22, [x29, #32]
         498:	17ffff09 	b	0xbc
         49c:	d0000021 	adrp	x1, 0x6000
         4a0:	91278021 	add	x1, x1, #0x9e0
         4a4:	b0200000 	adrp	x0, 0x40001000
         4a8:	91206000 	add	x0, x0, #0x818
         4ac:	94001053 	bl	0x45f8
         4b0:	d0000021 	adrp	x1, 0x6000
         4b4:	912a6021 	add	x1, x1, #0xa98
         4b8:	94001050 	bl	0x45f8
         4bc:	52800020 	mov	w0, #0x1                   	// #1
         4c0:	a94153b3 	ldp	x19, x20, [x29, #16]
         4c4:	a9425bb5 	ldp	x21, x22, [x29, #32]
         4c8:	17fffefd 	b	0xbc
         4cc:	d0000021 	adrp	x1, 0x6000
         4d0:	91278021 	add	x1, x1, #0x9e0
         4d4:	b0200000 	adrp	x0, 0x40001000
         4d8:	91206000 	add	x0, x0, #0x818
         4dc:	94001047 	bl	0x45f8
         4e0:	d0000021 	adrp	x1, 0x6000
         4e4:	912ae021 	add	x1, x1, #0xab8
         4e8:	94001044 	bl	0x45f8
         4ec:	52800020 	mov	w0, #0x1                   	// #1
         4f0:	a94153b3 	ldp	x19, x20, [x29, #16]
         4f4:	a9425bb5 	ldp	x21, x22, [x29, #32]
         4f8:	17fffef1 	b	0xbc
         4fc:	d0000021 	adrp	x1, 0x6000
         500:	91190021 	add	x1, x1, #0x640
         504:	b0200000 	adrp	x0, 0x40001000
         508:	91206000 	add	x0, x0, #0x818
         50c:	9400103b 	bl	0x45f8
         510:	d0000021 	adrp	x1, 0x6000
         514:	912b4021 	add	x1, x1, #0xad0
         518:	94001038 	bl	0x45f8
         51c:	510006a4 	sub	w4, w21, #0x1
         520:	17ffff5f 	b	0x29c
         524:	d0000021 	adrp	x1, 0x6000
         528:	91278021 	add	x1, x1, #0x9e0
         52c:	b0200000 	adrp	x0, 0x40001000
         530:	91206000 	add	x0, x0, #0x818
         534:	94001031 	bl	0x45f8
         538:	d0000021 	adrp	x1, 0x6000
         53c:	912c0021 	add	x1, x1, #0xb00
         540:	9400102e 	bl	0x45f8
         544:	52800020 	mov	w0, #0x1                   	// #1
         548:	a94153b3 	ldp	x19, x20, [x29, #16]
         54c:	a9425bb5 	ldp	x21, x22, [x29, #32]
         550:	17fffedb 	b	0xbc
         554:	00000000 	.inst	0x00000000 ; undefined
         558:	00004800 	.inst	0x00004800 ; undefined
         55c:	00000000 	.inst	0x00000000 ; undefined
         560:	a9bc7bfd 	stp	x29, x30, [sp, #-64]!
         564:	910003fd 	mov	x29, sp
         568:	a90153f3 	stp	x19, x20, [sp, #16]
         56c:	d2a80002 	mov	x2, #0x40000000            	// #1073741824
         570:	aa0203e1 	mov	x1, x2
         574:	910083a0 	add	x0, x29, #0x20
         578:	94000ed6 	bl	0x40d0
         57c:	d2808001 	mov	x1, #0x400                 	// #1024
         580:	910083a0 	add	x0, x29, #0x20
         584:	94000ee6 	bl	0x411c
         588:	aa0003f4 	mov	x20, x0
         58c:	b0000021 	adrp	x1, 0x5000
         590:	9137e021 	add	x1, x1, #0xdf8
         594:	b0200000 	adrp	x0, 0x40001000
         598:	91206000 	add	x0, x0, #0x818
         59c:	94001017 	bl	0x45f8
         5a0:	aa0003f3 	mov	x19, x0
         5a4:	aa1403e1 	mov	x1, x20
         5a8:	9100e3a0 	add	x0, x29, #0x38
         5ac:	94001179 	bl	0x4b90
         5b0:	9100e3a1 	add	x1, x29, #0x38
         5b4:	aa1303e0 	mov	x0, x19
         5b8:	94001186 	bl	0x4bd0
         5bc:	d0000021 	adrp	x1, 0x6000
         5c0:	912de021 	add	x1, x1, #0xb78
         5c4:	9400100d 	bl	0x45f8
         5c8:	52800020 	mov	w0, #0x1                   	// #1
         5cc:	a94153f3 	ldp	x19, x20, [sp, #16]
         5d0:	a8c47bfd 	ldp	x29, x30, [sp], #64
         5d4:	d65f03c0 	ret
         5d8:	d65f03c0 	ret
         5dc:	d65f03c0 	ret
         5e0:	52800020 	mov	w0, #0x1                   	// #1
         5e4:	d65f03c0 	ret
         5e8:	52800020 	mov	w0, #0x1                   	// #1
         5ec:	d65f03c0 	ret
         5f0:	52800020 	mov	w0, #0x1                   	// #1
         5f4:	d65f03c0 	ret
         5f8:	52800020 	mov	w0, #0x1                   	// #1
         5fc:	d65f03c0 	ret
         600:	a9b67bfd 	stp	x29, x30, [sp, #-160]!
         604:	910003fd 	mov	x29, sp
         608:	f9000bf3 	str	x19, [sp, #16]
         60c:	d2800001 	mov	x1, #0x0                   	// #0
         610:	910223a0 	add	x0, x29, #0x88
         614:	940011bf 	bl	0x4d10
         618:	d2800001 	mov	x1, #0x0                   	// #0
         61c:	9101c3a0 	add	x0, x29, #0x70
         620:	940011bc 	bl	0x4d10
         624:	d28000e1 	mov	x1, #0x7                   	// #7
         628:	910163a0 	add	x0, x29, #0x58
         62c:	940011b9 	bl	0x4d10
         630:	d2800101 	mov	x1, #0x8                   	// #8
         634:	910103a0 	add	x0, x29, #0x40
         638:	940011b6 	bl	0x4d10
         63c:	d2800121 	mov	x1, #0x9                   	// #9
         640:	9100a3a0 	add	x0, x29, #0x28
         644:	940011b3 	bl	0x4d10
         648:	910223a0 	add	x0, x29, #0x88
         64c:	94001178 	bl	0x4c2c
         650:	aa0003f3 	mov	x19, x0
         654:	9101c3a0 	add	x0, x29, #0x70
         658:	94001175 	bl	0x4c2c
         65c:	f100227f 	cmp	x19, #0x8
         660:	1a9f17f3 	cset	w19, eq  // eq = none
         664:	f100201f 	cmp	x0, #0x8
         668:	1a9f0273 	csel	w19, w19, wzr, eq  // eq = none
         66c:	910163a0 	add	x0, x29, #0x58
         670:	9400116f 	bl	0x4c2c
         674:	f100201f 	cmp	x0, #0x8
         678:	1a9f0273 	csel	w19, w19, wzr, eq  // eq = none
         67c:	910103a0 	add	x0, x29, #0x40
         680:	9400116b 	bl	0x4c2c
         684:	f100201f 	cmp	x0, #0x8
         688:	1a9f0273 	csel	w19, w19, wzr, eq  // eq = none
         68c:	9100a3a0 	add	x0, x29, #0x28
         690:	94001167 	bl	0x4c2c
         694:	f100201f 	cmp	x0, #0x8
         698:	1a9f97e0 	cset	w0, hi  // hi = pmore
         69c:	0a130013 	and	w19, w0, w19
         6a0:	9100a3a0 	add	x0, x29, #0x28
         6a4:	94001158 	bl	0x4c04
         6a8:	910103a0 	add	x0, x29, #0x40
         6ac:	94001156 	bl	0x4c04
         6b0:	910163a0 	add	x0, x29, #0x58
         6b4:	94001154 	bl	0x4c04
         6b8:	9101c3a0 	add	x0, x29, #0x70
         6bc:	94001152 	bl	0x4c04
         6c0:	910223a0 	add	x0, x29, #0x88
         6c4:	94001150 	bl	0x4c04
         6c8:	2a1303e0 	mov	w0, w19
         6cc:	f9400bf3 	ldr	x19, [sp, #16]
         6d0:	a8ca7bfd 	ldp	x29, x30, [sp], #160
         6d4:	d65f03c0 	ret
         6d8:	a9bc7bfd 	stp	x29, x30, [sp, #-64]!
         6dc:	910003fd 	mov	x29, sp
         6e0:	f9000bf3 	str	x19, [sp, #16]
         6e4:	d2800101 	mov	x1, #0x8                   	// #8
         6e8:	9100a3a0 	add	x0, x29, #0x28
         6ec:	94001189 	bl	0x4d10
         6f0:	52800141 	mov	w1, #0xa                   	// #10
         6f4:	9100a3a0 	add	x0, x29, #0x28
         6f8:	940011af 	bl	0x4db4
         6fc:	9100a3a0 	add	x0, x29, #0x28
         700:	9400114b 	bl	0x4c2c
         704:	aa0003f3 	mov	x19, x0
         708:	9100a3a0 	add	x0, x29, #0x28
         70c:	9400113e 	bl	0x4c04
         710:	f100327f 	cmp	x19, #0xc
         714:	1a9f17e0 	cset	w0, eq  // eq = none
         718:	f9400bf3 	ldr	x19, [sp, #16]
         71c:	a8c47bfd 	ldp	x29, x30, [sp], #64
         720:	d65f03c0 	ret
         724:	a9bd7bfd 	stp	x29, x30, [sp, #-48]!
         728:	910003fd 	mov	x29, sp
         72c:	d2800001 	mov	x1, #0x0                   	// #0
         730:	910063a0 	add	x0, x29, #0x18
         734:	94001177 	bl	0x4d10
         738:	910063a0 	add	x0, x29, #0x18
         73c:	940011de 	bl	0x4eb4
         740:	910063a0 	add	x0, x29, #0x18
         744:	94001130 	bl	0x4c04
         748:	52800020 	mov	w0, #0x1                   	// #1
         74c:	a8c37bfd 	ldp	x29, x30, [sp], #48
         750:	d65f03c0 	ret
         754:	a9bb7bfd 	stp	x29, x30, [sp, #-80]!
         758:	910003fd 	mov	x29, sp
         75c:	f9000bf3 	str	x19, [sp, #16]
         760:	b0000020 	adrp	x0, 0x5000
         764:	91356000 	add	x0, x0, #0xd58
         768:	f90023a0 	str	x0, [x29, #64]
         76c:	d2800120 	mov	x0, #0x9                   	// #9
         770:	f90027a0 	str	x0, [x29, #72]
         774:	910103a1 	add	x1, x29, #0x40
         778:	9100a3a0 	add	x0, x29, #0x28
         77c:	940011a0 	bl	0x4dfc
         780:	d2800081 	mov	x1, #0x4                   	// #4
         784:	9100a3a0 	add	x0, x29, #0x28
         788:	940011de 	bl	0x4f00
         78c:	d2800013 	mov	x19, #0x0                   	// #0
         790:	9100a3a0 	add	x0, x29, #0x28
         794:	94001128 	bl	0x4c34
         798:	eb13001f 	cmp	x0, x19
         79c:	54000120 	b.eq	0x7c0  // b.none
         7a0:	aa1303e1 	mov	x1, x19
         7a4:	9100a3a0 	add	x0, x29, #0x28
         7a8:	94001125 	bl	0x4c3c
         7ac:	b9800000 	ldrsw	x0, [x0]
         7b0:	eb13001f 	cmp	x0, x19
         7b4:	54000141 	b.ne	0x7dc  // b.any
         7b8:	91000673 	add	x19, x19, #0x1
         7bc:	17fffff5 	b	0x790
         7c0:	52800033 	mov	w19, #0x1                   	// #1
         7c4:	9100a3a0 	add	x0, x29, #0x28
         7c8:	9400110f 	bl	0x4c04
         7cc:	2a1303e0 	mov	w0, w19
         7d0:	f9400bf3 	ldr	x19, [sp, #16]
         7d4:	a8c57bfd 	ldp	x29, x30, [sp], #80
         7d8:	d65f03c0 	ret
         7dc:	52800013 	mov	w19, #0x0                   	// #0
         7e0:	17fffff9 	b	0x7c4
         7e4:	a9bb7bfd 	stp	x29, x30, [sp, #-80]!
         7e8:	910003fd 	mov	x29, sp
         7ec:	f9000bf3 	str	x19, [sp, #16]
         7f0:	b0000020 	adrp	x0, 0x5000
         7f4:	91356000 	add	x0, x0, #0xd58
         7f8:	9100a000 	add	x0, x0, #0x28
         7fc:	f9001fa0 	str	x0, [x29, #56]
         800:	d28000e0 	mov	x0, #0x7                   	// #7
         804:	f90023a0 	str	x0, [x29, #64]
         808:	9100e3a1 	add	x1, x29, #0x38
         80c:	910083a0 	add	x0, x29, #0x20
         810:	9400117b 	bl	0x4dfc
         814:	910083a0 	add	x0, x29, #0x20
         818:	94001107 	bl	0x4c34
         81c:	aa0003f3 	mov	x19, x0
         820:	910143a2 	add	x2, x29, #0x50
         824:	b81f8c5f 	str	wzr, [x2, #-8]!
         828:	91000401 	add	x1, x0, #0x1
         82c:	910083a0 	add	x0, x29, #0x20
         830:	940011d4 	bl	0x4f80
         834:	910083a0 	add	x0, x29, #0x20
         838:	940010ff 	bl	0x4c34
         83c:	eb13001f 	cmp	x0, x19
         840:	54000100 	b.eq	0x860  // b.none
         844:	52800013 	mov	w19, #0x0                   	// #0
         848:	910083a0 	add	x0, x29, #0x20
         84c:	940010ee 	bl	0x4c04
         850:	2a1303e0 	mov	w0, w19
         854:	f9400bf3 	ldr	x19, [sp, #16]
         858:	a8c57bfd 	ldp	x29, x30, [sp], #80
         85c:	d65f03c0 	ret
         860:	910143a2 	add	x2, x29, #0x50
         864:	52800080 	mov	w0, #0x4                   	// #4
         868:	b81fcc40 	str	w0, [x2, #-4]!
         86c:	d2800081 	mov	x1, #0x4                   	// #4
         870:	910083a0 	add	x0, x29, #0x20
         874:	940011c3 	bl	0x4f80
         878:	d2800013 	mov	x19, #0x0                   	// #0
         87c:	910083a0 	add	x0, x29, #0x20
         880:	940010ed 	bl	0x4c34
         884:	eb13001f 	cmp	x0, x19
         888:	54000120 	b.eq	0x8ac  // b.none
         88c:	aa1303e1 	mov	x1, x19
         890:	910083a0 	add	x0, x29, #0x20
         894:	940010ea 	bl	0x4c3c
         898:	b9800000 	ldrsw	x0, [x0]
         89c:	eb13001f 	cmp	x0, x19
         8a0:	540000a1 	b.ne	0x8b4  // b.any
         8a4:	91000673 	add	x19, x19, #0x1
         8a8:	17fffff5 	b	0x87c
         8ac:	52800033 	mov	w19, #0x1                   	// #1
         8b0:	17ffffe6 	b	0x848
         8b4:	52800013 	mov	w19, #0x0                   	// #0
         8b8:	17ffffe4 	b	0x848
         8bc:	d10883ff 	sub	sp, sp, #0x220
         8c0:	a9007bfd 	stp	x29, x30, [sp]
         8c4:	910003fd 	mov	x29, sp
         8c8:	a90153f3 	stp	x19, x20, [sp, #16]
         8cc:	b0200014 	adrp	x20, 0x40001000
         8d0:	91206294 	add	x20, x20, #0x818
         8d4:	b0000021 	adrp	x1, 0x5000
         8d8:	91384021 	add	x1, x1, #0xe10
         8dc:	aa1403e0 	mov	x0, x20
         8e0:	94000f46 	bl	0x45f8
         8e4:	d2800481 	mov	x1, #0x24                  	// #36
         8e8:	94000f4e 	bl	0x4620
         8ec:	b0000021 	adrp	x1, 0x5000
         8f0:	91388021 	add	x1, x1, #0xe20
         8f4:	94000f41 	bl	0x45f8
         8f8:	d2804001 	mov	x1, #0x200                 	// #512
         8fc:	94000f49 	bl	0x4620
         900:	d0000033 	adrp	x19, 0x6000
         904:	912de273 	add	x19, x19, #0xb78
         908:	aa1303e1 	mov	x1, x19
         90c:	94000f3b 	bl	0x45f8
         910:	b0000021 	adrp	x1, 0x5000
         914:	9138e021 	add	x1, x1, #0xe38
         918:	aa1403e0 	mov	x0, x20
         91c:	94000f37 	bl	0x45f8
         920:	910083a1 	add	x1, x29, #0x20
         924:	94000f70 	bl	0x46e4
         928:	aa1303e1 	mov	x1, x19
         92c:	94000f33 	bl	0x45f8
         930:	52800020 	mov	w0, #0x1                   	// #1
         934:	a94153f3 	ldp	x19, x20, [sp, #16]
         938:	a9407bfd 	ldp	x29, x30, [sp]
         93c:	910883ff 	add	sp, sp, #0x220
         940:	d65f03c0 	ret
         944:	14000003 	b	0x950
         948:	aa0503e1 	mov	x1, x5
         94c:	aa0603e0 	mov	x0, x6
         950:	d1000443 	sub	x3, x2, #0x1
         954:	b40001c2 	cbz	x2, 0x98c
         958:	91000406 	add	x6, x0, #0x1
         95c:	39400004 	ldrb	w4, [x0]
         960:	91000425 	add	x5, x1, #0x1
         964:	39400020 	ldrb	w0, [x1]
         968:	aa0303e2 	mov	x2, x3
         96c:	6b00009f 	cmp	w4, w0
         970:	54fffec0 	b.eq	0x948  // b.none
         974:	6b00009f 	cmp	w4, w0
         978:	54000063 	b.cc	0x984  // b.lo, b.ul, b.last
         97c:	52800020 	mov	w0, #0x1                   	// #1
         980:	14000004 	b	0x990
         984:	12800000 	mov	w0, #0xffffffff            	// #-1
         988:	14000002 	b	0x990
         98c:	52800000 	mov	w0, #0x0                   	// #0
         990:	d65f03c0 	ret
         994:	aa0003e3 	mov	x3, x0
         998:	d1000444 	sub	x4, x2, #0x1
         99c:	b40000e2 	cbz	x2, 0x9b8
         9a0:	39c00022 	ldrsb	w2, [x1]
         9a4:	39000062 	strb	w2, [x3]
         9a8:	aa0403e2 	mov	x2, x4
         9ac:	91000421 	add	x1, x1, #0x1
         9b0:	91000463 	add	x3, x3, #0x1
         9b4:	17fffff9 	b	0x998
         9b8:	d65f03c0 	ret
         9bc:	eb01001f 	cmp	x0, x1
         9c0:	54000142 	b.cs	0x9e8  // b.hs, b.nlast
         9c4:	aa0003e3 	mov	x3, x0
         9c8:	d1000444 	sub	x4, x2, #0x1
         9cc:	b4000242 	cbz	x2, 0xa14
         9d0:	39c00022 	ldrsb	w2, [x1]
         9d4:	39000062 	strb	w2, [x3]
         9d8:	aa0403e2 	mov	x2, x4
         9dc:	91000421 	add	x1, x1, #0x1
         9e0:	91000463 	add	x3, x3, #0x1
         9e4:	17fffff9 	b	0x9c8
         9e8:	d1000443 	sub	x3, x2, #0x1
         9ec:	8b030021 	add	x1, x1, x3
         9f0:	8b030003 	add	x3, x0, x3
         9f4:	d1000444 	sub	x4, x2, #0x1
         9f8:	b40000e2 	cbz	x2, 0xa14
         9fc:	39c00022 	ldrsb	w2, [x1]
         a00:	39000062 	strb	w2, [x3]
         a04:	aa0403e2 	mov	x2, x4
         a08:	d1000463 	sub	x3, x3, #0x1
         a0c:	d1000421 	sub	x1, x1, #0x1
         a10:	17fffff9 	b	0x9f4
         a14:	d65f03c0 	ret
         a18:	aa0003e3 	mov	x3, x0
         a1c:	d1000444 	sub	x4, x2, #0x1
         a20:	b40000a2 	cbz	x2, 0xa34
         a24:	39000061 	strb	w1, [x3]
         a28:	aa0403e2 	mov	x2, x4
         a2c:	91000463 	add	x3, x3, #0x1
         a30:	17fffffb 	b	0xa1c
         a34:	d65f03c0 	ret
         a38:	aa0003e1 	mov	x1, x0
         a3c:	91000422 	add	x2, x1, #0x1
         a40:	39c00023 	ldrsb	w3, [x1]
         a44:	aa0203e1 	mov	x1, x2
         a48:	35ffffa3 	cbnz	w3, 0xa3c
         a4c:	cb000040 	sub	x0, x2, x0
         a50:	d65f03c0 	ret
         a54:	d65f03c0 	ret
         a58:	a9bf7bfd 	stp	x29, x30, [sp, #-16]!
         a5c:	910003fd 	mov	x29, sp
         a60:	aa0003e1 	mov	x1, x0
         a64:	b0200000 	adrp	x0, 0x40001000
         a68:	91200000 	add	x0, x0, #0x800
         a6c:	94000de4 	bl	0x41fc
         a70:	a8c17bfd 	ldp	x29, x30, [sp], #16
         a74:	d65f03c0 	ret
         a78:	a9bf7bfd 	stp	x29, x30, [sp, #-16]!
         a7c:	910003fd 	mov	x29, sp
         a80:	aa0003e1 	mov	x1, x0
         a84:	b0200000 	adrp	x0, 0x40001000
         a88:	91200000 	add	x0, x0, #0x800
         a8c:	94000da4 	bl	0x411c
         a90:	a8c17bfd 	ldp	x29, x30, [sp], #16
         a94:	d65f03c0 	ret
         a98:	f9000001 	str	x1, [x0]
         a9c:	f900041f 	str	xzr, [x0, #8]
         aa0:	d65f03c0 	ret
         aa4:	f9400401 	ldr	x1, [x0, #8]
         aa8:	b4000101 	cbz	x1, 0xac8
         aac:	a9bf7bfd 	stp	x29, x30, [sp, #-16]!
         ab0:	910003fd 	mov	x29, sp
         ab4:	b0200000 	adrp	x0, 0x40001000
         ab8:	91200000 	add	x0, x0, #0x800
         abc:	94000dd0 	bl	0x41fc
         ac0:	a8c17bfd 	ldp	x29, x30, [sp], #16
         ac4:	d65f03c0 	ret
         ac8:	d65f03c0 	ret
         acc:	d2804000 	mov	x0, #0x200                 	// #512
         ad0:	d65f03c0 	ret
         ad4:	f9400401 	ldr	x1, [x0, #8]
         ad8:	b4000041 	cbz	x1, 0xae0
         adc:	d65f03c0 	ret
         ae0:	a9be7bfd 	stp	x29, x30, [sp, #-32]!
         ae4:	910003fd 	mov	x29, sp
         ae8:	f9000bf3 	str	x19, [sp, #16]
         aec:	aa0003f3 	mov	x19, x0
         af0:	97fffff7 	bl	0xacc
         af4:	aa0003e1 	mov	x1, x0
         af8:	b0200000 	adrp	x0, 0x40001000
         afc:	91200000 	add	x0, x0, #0x800
         b00:	94001144 	bl	0x5010
         b04:	f9000660 	str	x0, [x19, #8]
         b08:	f9400bf3 	ldr	x19, [sp, #16]
         b0c:	a8c27bfd 	ldp	x29, x30, [sp], #32
         b10:	d65f03c0 	ret
         b14:	a9be7bfd 	stp	x29, x30, [sp, #-32]!
         b18:	910003fd 	mov	x29, sp
         b1c:	a90153f3 	stp	x19, x20, [sp, #16]
         b20:	aa0003f3 	mov	x19, x0
         b24:	aa0103f4 	mov	x20, x1
         b28:	97ffffeb 	bl	0xad4
         b2c:	d2800023 	mov	x3, #0x1                   	// #1
         b30:	f9400662 	ldr	x2, [x19, #8]
         b34:	aa1403e1 	mov	x1, x20
         b38:	f9400260 	ldr	x0, [x19]
         b3c:	9400004a 	bl	0xc64
         b40:	f100041f 	cmp	x0, #0x1
         b44:	1a9f17e0 	cset	w0, eq  // eq = none
         b48:	a94153f3 	ldp	x19, x20, [sp, #16]
         b4c:	a8c27bfd 	ldp	x29, x30, [sp], #32
         b50:	d65f03c0 	ret
         b54:	a9be7bfd 	stp	x29, x30, [sp, #-32]!
         b58:	910003fd 	mov	x29, sp
         b5c:	a90153f3 	stp	x19, x20, [sp, #16]
         b60:	aa0003f3 	mov	x19, x0
         b64:	aa0103f4 	mov	x20, x1
         b68:	97ffffdb 	bl	0xad4
         b6c:	d2800023 	mov	x3, #0x1                   	// #1
         b70:	f9400662 	ldr	x2, [x19, #8]
         b74:	aa1403e1 	mov	x1, x20
         b78:	f9400260 	ldr	x0, [x19]
         b7c:	9400003c 	bl	0xc6c
         b80:	f100041f 	cmp	x0, #0x1
         b84:	1a9f17e0 	cset	w0, eq  // eq = none
         b88:	a94153f3 	ldp	x19, x20, [sp, #16]
         b8c:	a8c27bfd 	ldp	x29, x30, [sp], #32
         b90:	d65f03c0 	ret
         b94:	a9bb7bfd 	stp	x29, x30, [sp, #-80]!
         b98:	910003fd 	mov	x29, sp
         b9c:	a90153f3 	stp	x19, x20, [sp, #16]
         ba0:	a902dff6 	stp	x22, x23, [sp, #40]
         ba4:	a903e7f8 	stp	x24, x25, [sp, #56]
         ba8:	aa0003f6 	mov	x22, x0
         bac:	aa0103f4 	mov	x20, x1
         bb0:	12001c58 	and	w24, w2, #0xff
         bb4:	aa0303f7 	mov	x23, x3
         bb8:	aa0403f9 	mov	x25, x4
         bbc:	97ffffc4 	bl	0xacc
         bc0:	9ac00a93 	udiv	x19, x20, x0
         bc4:	9b00d273 	msub	x19, x19, x0, x20
         bc8:	b50000f3 	cbnz	x19, 0xbe4
         bcc:	aa1303e0 	mov	x0, x19
         bd0:	a94153f3 	ldp	x19, x20, [sp, #16]
         bd4:	a942dff6 	ldp	x22, x23, [sp, #40]
         bd8:	a943e7f8 	ldp	x24, x25, [sp, #56]
         bdc:	a8c57bfd 	ldp	x29, x30, [sp], #80
         be0:	d65f03c0 	ret
         be4:	f90013b5 	str	x21, [x29, #32]
         be8:	aa0003f5 	mov	x21, x0
         bec:	9ac00a94 	udiv	x20, x20, x0
         bf0:	aa1403e1 	mov	x1, x20
         bf4:	aa1603e0 	mov	x0, x22
         bf8:	97ffffc7 	bl	0xb14
         bfc:	34000198 	cbz	w24, 0xc2c
         c00:	aa1303e0 	mov	x0, x19
         c04:	cb1302b3 	sub	x19, x21, x19
         c08:	b5000177 	cbnz	x23, 0xc34
         c0c:	b4000299 	cbz	x25, 0xc5c
         c10:	f94006c1 	ldr	x1, [x22, #8]
         c14:	aa1303e2 	mov	x2, x19
         c18:	8b000021 	add	x1, x1, x0
         c1c:	aa1903e0 	mov	x0, x25
         c20:	97ffff5d 	bl	0x994
         c24:	f94013b5 	ldr	x21, [x29, #32]
         c28:	17ffffe9 	b	0xbcc
         c2c:	d2800000 	mov	x0, #0x0                   	// #0
         c30:	17fffff6 	b	0xc08
         c34:	f94006c3 	ldr	x3, [x22, #8]
         c38:	aa1303e2 	mov	x2, x19
         c3c:	aa1703e1 	mov	x1, x23
         c40:	8b000060 	add	x0, x3, x0
         c44:	97ffff54 	bl	0x994
         c48:	aa1403e1 	mov	x1, x20
         c4c:	aa1603e0 	mov	x0, x22
         c50:	97ffffc1 	bl	0xb54
         c54:	f94013b5 	ldr	x21, [x29, #32]
         c58:	17ffffdd 	b	0xbcc
         c5c:	f94013b5 	ldr	x21, [x29, #32]
         c60:	17ffffdb 	b	0xbcc
         c64:	d2800000 	mov	x0, #0x0                   	// #0
         c68:	d65f03c0 	ret
         c6c:	d2800000 	mov	x0, #0x0                   	// #0
         c70:	d65f03c0 	ret
         c74:	79401c02 	ldrh	w2, [x0, #14]
         c78:	7840b000 	ldurh	w0, [x0, #11]
         c7c:	1b007c40 	mul	w0, w2, w0
         c80:	d37ff821 	lsl	x1, x1, #1
         c84:	8b20c020 	add	x0, x1, w0, sxtw
         c88:	d65f03c0 	ret
         c8c:	79401c02 	ldrh	w2, [x0, #14]
         c90:	39404001 	ldrb	w1, [x0, #16]
         c94:	79402c00 	ldrh	w0, [x0, #22]
         c98:	1b000820 	madd	w0, w1, w0, w2
         c9c:	93407c00 	sxtw	x0, w0
         ca0:	d65f03c0 	ret
         ca4:	52800020 	mov	w0, #0x1                   	// #1
         ca8:	d65f03c0 	ret
         cac:	a9bd7bfd 	stp	x29, x30, [sp, #-48]!
         cb0:	910003fd 	mov	x29, sp
         cb4:	a90153f3 	stp	x19, x20, [sp, #16]
         cb8:	f90013f5 	str	x21, [sp, #32]
         cbc:	aa0003f4 	mov	x20, x0
         cc0:	aa0103f3 	mov	x19, x1
         cc4:	79401c15 	ldrh	w21, [x0, #14]
         cc8:	97fffff1 	bl	0xc8c
         ccc:	8b0002a0 	add	x0, x21, x0
         cd0:	cb000273 	sub	x19, x19, x0
         cd4:	39403680 	ldrb	w0, [x20, #13]
         cd8:	39404281 	ldrb	w1, [x20, #16]
         cdc:	0b002020 	add	w0, w1, w0, lsl #8
         ce0:	93407c00 	sxtw	x0, w0
         ce4:	8b000273 	add	x19, x19, x0
         ce8:	d1000673 	sub	x19, x19, #0x1
         cec:	9ac00a60 	udiv	x0, x19, x0
         cf0:	a94153f3 	ldp	x19, x20, [sp, #16]
         cf4:	f94013f5 	ldr	x21, [sp, #32]
         cf8:	a8c37bfd 	ldp	x29, x30, [sp], #48
         cfc:	d65f03c0 	ret
         d00:	52800020 	mov	w0, #0x1                   	// #1
         d04:	d65f03c0 	ret
         d08:	a9be7bfd 	stp	x29, x30, [sp, #-32]!
         d0c:	910003fd 	mov	x29, sp
         d10:	a90153f3 	stp	x19, x20, [sp, #16]
         d14:	b0200014 	adrp	x20, 0x40001000
         d18:	91206294 	add	x20, x20, #0x818
         d1c:	b0000021 	adrp	x1, 0x5000
         d20:	91384021 	add	x1, x1, #0xe10
         d24:	aa1403e0 	mov	x0, x20
         d28:	94000e34 	bl	0x45f8
         d2c:	d2800481 	mov	x1, #0x24                  	// #36
         d30:	94000e3c 	bl	0x4620
         d34:	d0000033 	adrp	x19, 0x6000
         d38:	912de273 	add	x19, x19, #0xb78
         d3c:	aa1303e1 	mov	x1, x19
         d40:	94000e2e 	bl	0x45f8
         d44:	b0000021 	adrp	x1, 0x5000
         d48:	91390021 	add	x1, x1, #0xe40
         d4c:	aa1403e0 	mov	x0, x20
         d50:	94000e2a 	bl	0x45f8
         d54:	d2804001 	mov	x1, #0x200                 	// #512
         d58:	94000e32 	bl	0x4620
         d5c:	aa1303e1 	mov	x1, x19
         d60:	94000e26 	bl	0x45f8
         d64:	b0000021 	adrp	x1, 0x5000
         d68:	91396021 	add	x1, x1, #0xe58
         d6c:	aa1403e0 	mov	x0, x20
         d70:	94000e22 	bl	0x45f8
         d74:	d2800001 	mov	x1, #0x0                   	// #0
         d78:	94000e2a 	bl	0x4620
         d7c:	aa1303e1 	mov	x1, x19
         d80:	94000e1e 	bl	0x45f8
         d84:	b0000021 	adrp	x1, 0x5000
         d88:	913a0021 	add	x1, x1, #0xe80
         d8c:	aa1403e0 	mov	x0, x20
         d90:	94000e1a 	bl	0x45f8
         d94:	d2800061 	mov	x1, #0x3                   	// #3
         d98:	94000e22 	bl	0x4620
         d9c:	aa1303e1 	mov	x1, x19
         da0:	94000e16 	bl	0x45f8
         da4:	b0000021 	adrp	x1, 0x5000
         da8:	913aa021 	add	x1, x1, #0xea8
         dac:	aa1403e0 	mov	x0, x20
         db0:	94000e12 	bl	0x45f8
         db4:	d2800161 	mov	x1, #0xb                   	// #11
         db8:	94000e1a 	bl	0x4620
         dbc:	aa1303e1 	mov	x1, x19
         dc0:	94000e0e 	bl	0x45f8
         dc4:	b0000021 	adrp	x1, 0x5000
         dc8:	913b4021 	add	x1, x1, #0xed0
         dcc:	aa1403e0 	mov	x0, x20
         dd0:	94000e0a 	bl	0x45f8
         dd4:	d28001a1 	mov	x1, #0xd                   	// #13
         dd8:	94000e12 	bl	0x4620
         ddc:	aa1303e1 	mov	x1, x19
         de0:	94000e06 	bl	0x45f8
         de4:	b0000021 	adrp	x1, 0x5000
         de8:	913be021 	add	x1, x1, #0xef8
         dec:	aa1403e0 	mov	x0, x20
         df0:	94000e02 	bl	0x45f8
         df4:	d28001c1 	mov	x1, #0xe                   	// #14
         df8:	94000e0a 	bl	0x4620
         dfc:	aa1303e1 	mov	x1, x19
         e00:	94000dfe 	bl	0x45f8
         e04:	b0000021 	adrp	x1, 0x5000
         e08:	913c8021 	add	x1, x1, #0xf20
         e0c:	aa1403e0 	mov	x0, x20
         e10:	94000dfa 	bl	0x45f8
         e14:	d2800201 	mov	x1, #0x10                  	// #16
         e18:	94000e02 	bl	0x4620
         e1c:	aa1303e1 	mov	x1, x19
         e20:	94000df6 	bl	0x45f8
         e24:	b0000021 	adrp	x1, 0x5000
         e28:	913d0021 	add	x1, x1, #0xf40
         e2c:	aa1403e0 	mov	x0, x20
         e30:	94000df2 	bl	0x45f8
         e34:	d2800221 	mov	x1, #0x11                  	// #17
         e38:	94000dfa 	bl	0x4620
         e3c:	aa1303e1 	mov	x1, x19
         e40:	94000dee 	bl	0x45f8
         e44:	b0000021 	adrp	x1, 0x5000
         e48:	913da021 	add	x1, x1, #0xf68
         e4c:	aa1403e0 	mov	x0, x20
         e50:	94000dea 	bl	0x45f8
         e54:	d2800261 	mov	x1, #0x13                  	// #19
         e58:	94000df2 	bl	0x4620
         e5c:	aa1303e1 	mov	x1, x19
         e60:	94000de6 	bl	0x45f8
         e64:	b0000021 	adrp	x1, 0x5000
         e68:	913e2021 	add	x1, x1, #0xf88
         e6c:	aa1403e0 	mov	x0, x20
         e70:	94000de2 	bl	0x45f8
         e74:	d28002a1 	mov	x1, #0x15                  	// #21
         e78:	94000dea 	bl	0x4620
         e7c:	aa1303e1 	mov	x1, x19
         e80:	94000dde 	bl	0x45f8
         e84:	b0000021 	adrp	x1, 0x5000
         e88:	913ea021 	add	x1, x1, #0xfa8
         e8c:	aa1403e0 	mov	x0, x20
         e90:	94000dda 	bl	0x45f8
         e94:	d28002c1 	mov	x1, #0x16                  	// #22
         e98:	94000de2 	bl	0x4620
         e9c:	aa1303e1 	mov	x1, x19
         ea0:	94000dd6 	bl	0x45f8
         ea4:	b0000021 	adrp	x1, 0x5000
         ea8:	913f2021 	add	x1, x1, #0xfc8
         eac:	aa1403e0 	mov	x0, x20
         eb0:	94000dd2 	bl	0x45f8
         eb4:	d2800301 	mov	x1, #0x18                  	// #24
         eb8:	94000dda 	bl	0x4620
         ebc:	aa1303e1 	mov	x1, x19
         ec0:	94000dce 	bl	0x45f8
         ec4:	b0000021 	adrp	x1, 0x5000
         ec8:	913fa021 	add	x1, x1, #0xfe8
         ecc:	aa1403e0 	mov	x0, x20
         ed0:	94000dca 	bl	0x45f8
         ed4:	d2800341 	mov	x1, #0x1a                  	// #26
         ed8:	94000dd2 	bl	0x4620
         edc:	aa1303e1 	mov	x1, x19
         ee0:	94000dc6 	bl	0x45f8
         ee4:	d0000021 	adrp	x1, 0x6000
         ee8:	91002021 	add	x1, x1, #0x8
         eec:	aa1403e0 	mov	x0, x20
         ef0:	94000dc2 	bl	0x45f8
         ef4:	d2800381 	mov	x1, #0x1c                  	// #28
         ef8:	94000dca 	bl	0x4620
         efc:	aa1303e1 	mov	x1, x19
         f00:	94000dbe 	bl	0x45f8
         f04:	d0000021 	adrp	x1, 0x6000
         f08:	9100a021 	add	x1, x1, #0x28
         f0c:	aa1403e0 	mov	x0, x20
         f10:	94000dba 	bl	0x45f8
         f14:	d2800401 	mov	x1, #0x20                  	// #32
         f18:	94000dc2 	bl	0x4620
         f1c:	aa1303e1 	mov	x1, x19
         f20:	94000db6 	bl	0x45f8
         f24:	d0000021 	adrp	x1, 0x6000
         f28:	91012021 	add	x1, x1, #0x48
         f2c:	aa1403e0 	mov	x0, x20
         f30:	94000db2 	bl	0x45f8
         f34:	d2800481 	mov	x1, #0x24                  	// #36
         f38:	94000dba 	bl	0x4620
         f3c:	aa1303e1 	mov	x1, x19
         f40:	94000dae 	bl	0x45f8
         f44:	d0000021 	adrp	x1, 0x6000
         f48:	9101a021 	add	x1, x1, #0x68
         f4c:	aa1403e0 	mov	x0, x20
         f50:	94000daa 	bl	0x45f8
         f54:	d2800501 	mov	x1, #0x28                  	// #40
         f58:	94000db2 	bl	0x4620
         f5c:	aa1303e1 	mov	x1, x19
         f60:	94000da6 	bl	0x45f8
         f64:	d0000021 	adrp	x1, 0x6000
         f68:	91022021 	add	x1, x1, #0x88
         f6c:	aa1403e0 	mov	x0, x20
         f70:	94000da2 	bl	0x45f8
         f74:	d2800541 	mov	x1, #0x2a                  	// #42
         f78:	94000daa 	bl	0x4620
         f7c:	aa1303e1 	mov	x1, x19
         f80:	94000d9e 	bl	0x45f8
         f84:	d0000021 	adrp	x1, 0x6000
         f88:	9102a021 	add	x1, x1, #0xa8
         f8c:	aa1403e0 	mov	x0, x20
         f90:	94000d9a 	bl	0x45f8
         f94:	d2800581 	mov	x1, #0x2c                  	// #44
         f98:	94000da2 	bl	0x4620
         f9c:	aa1303e1 	mov	x1, x19
         fa0:	94000d96 	bl	0x45f8
         fa4:	d0000021 	adrp	x1, 0x6000
         fa8:	91032021 	add	x1, x1, #0xc8
         fac:	aa1403e0 	mov	x0, x20
         fb0:	94000d92 	bl	0x45f8
         fb4:	d2800601 	mov	x1, #0x30                  	// #48
         fb8:	94000d9a 	bl	0x4620
         fbc:	aa1303e1 	mov	x1, x19
         fc0:	94000d8e 	bl	0x45f8
         fc4:	d0000021 	adrp	x1, 0x6000
         fc8:	9103a021 	add	x1, x1, #0xe8
         fcc:	aa1403e0 	mov	x0, x20
         fd0:	94000d8a 	bl	0x45f8
         fd4:	d2800641 	mov	x1, #0x32                  	// #50
         fd8:	94000d92 	bl	0x4620
         fdc:	aa1303e1 	mov	x1, x19
         fe0:	94000d86 	bl	0x45f8
         fe4:	d0000021 	adrp	x1, 0x6000
         fe8:	91042021 	add	x1, x1, #0x108
         fec:	aa1403e0 	mov	x0, x20
         ff0:	94000d82 	bl	0x45f8
         ff4:	d2800681 	mov	x1, #0x34                  	// #52
         ff8:	94000d8a 	bl	0x4620
         ffc:	aa1303e1 	mov	x1, x19
        1000:	94000d7e 	bl	0x45f8
        1004:	b0000021 	adrp	x1, 0x6000
        1008:	9104a021 	add	x1, x1, #0x128
        100c:	aa1403e0 	mov	x0, x20
        1010:	94000d7a 	bl	0x45f8
        1014:	d2800801 	mov	x1, #0x40                  	// #64
        1018:	94000d82 	bl	0x4620
        101c:	aa1303e1 	mov	x1, x19
        1020:	94000d76 	bl	0x45f8
        1024:	b0000021 	adrp	x1, 0x6000
        1028:	91052021 	add	x1, x1, #0x148
        102c:	aa1403e0 	mov	x0, x20
        1030:	94000d72 	bl	0x45f8
        1034:	d2800821 	mov	x1, #0x41                  	// #65
        1038:	94000d7a 	bl	0x4620
        103c:	aa1303e1 	mov	x1, x19
        1040:	94000d6e 	bl	0x45f8
        1044:	b0000021 	adrp	x1, 0x6000
        1048:	9105c021 	add	x1, x1, #0x170
        104c:	aa1403e0 	mov	x0, x20
        1050:	94000d6a 	bl	0x45f8
        1054:	d2800841 	mov	x1, #0x42                  	// #66
        1058:	94000d72 	bl	0x4620
        105c:	aa1303e1 	mov	x1, x19
        1060:	94000d66 	bl	0x45f8
        1064:	b0000021 	adrp	x1, 0x6000
        1068:	91066021 	add	x1, x1, #0x198
        106c:	aa1403e0 	mov	x0, x20
        1070:	94000d62 	bl	0x45f8
        1074:	d2800861 	mov	x1, #0x43                  	// #67
        1078:	94000d6a 	bl	0x4620
        107c:	aa1303e1 	mov	x1, x19
        1080:	94000d5e 	bl	0x45f8
        1084:	b0000021 	adrp	x1, 0x6000
        1088:	9106e021 	add	x1, x1, #0x1b8
        108c:	aa1403e0 	mov	x0, x20
        1090:	94000d5a 	bl	0x45f8
        1094:	d28008e1 	mov	x1, #0x47                  	// #71
        1098:	94000d62 	bl	0x4620
        109c:	aa1303e1 	mov	x1, x19
        10a0:	94000d56 	bl	0x45f8
        10a4:	b0000021 	adrp	x1, 0x6000
        10a8:	91076021 	add	x1, x1, #0x1d8
        10ac:	aa1403e0 	mov	x0, x20
        10b0:	94000d52 	bl	0x45f8
        10b4:	d2800a41 	mov	x1, #0x52                  	// #82
        10b8:	94000d5a 	bl	0x4620
        10bc:	aa1303e1 	mov	x1, x19
        10c0:	94000d4e 	bl	0x45f8
        10c4:	b0000021 	adrp	x1, 0x6000
        10c8:	91080021 	add	x1, x1, #0x200
        10cc:	aa1403e0 	mov	x0, x20
        10d0:	94000d4a 	bl	0x45f8
        10d4:	d2800b41 	mov	x1, #0x5a                  	// #90
        10d8:	94000d52 	bl	0x4620
        10dc:	aa1303e1 	mov	x1, x19
        10e0:	94000d46 	bl	0x45f8
        10e4:	b0000021 	adrp	x1, 0x6000
        10e8:	91088021 	add	x1, x1, #0x220
        10ec:	aa1403e0 	mov	x0, x20
        10f0:	94000d42 	bl	0x45f8
        10f4:	d2803fc1 	mov	x1, #0x1fe                 	// #510
        10f8:	94000d4a 	bl	0x4620
        10fc:	aa1303e1 	mov	x1, x19
        1100:	94000d3e 	bl	0x45f8
        1104:	a94153f3 	ldp	x19, x20, [sp, #16]
        1108:	a8c27bfd 	ldp	x29, x30, [sp], #32
        110c:	d65f03c0 	ret
        1110:	a9bd7bfd 	stp	x29, x30, [sp, #-48]!
        1114:	910003fd 	mov	x29, sp
        1118:	a90153f3 	stp	x19, x20, [sp, #16]
        111c:	f90013f5 	str	x21, [sp, #32]
        1120:	aa0003f5 	mov	x21, x0
        1124:	90200014 	adrp	x20, 0x40001000
        1128:	91206294 	add	x20, x20, #0x818
        112c:	b0000021 	adrp	x1, 0x6000
        1130:	91092021 	add	x1, x1, #0x248
        1134:	aa1403e0 	mov	x0, x20
        1138:	94000d30 	bl	0x45f8
        113c:	7840b2a1 	ldurh	w1, [x21, #11]
        1140:	94000d4b 	bl	0x466c
        1144:	b0000033 	adrp	x19, 0x6000
        1148:	912de273 	add	x19, x19, #0xb78
        114c:	aa1303e1 	mov	x1, x19
        1150:	94000d2a 	bl	0x45f8
        1154:	b0000021 	adrp	x1, 0x6000
        1158:	91098021 	add	x1, x1, #0x260
        115c:	aa1403e0 	mov	x0, x20
        1160:	94000d26 	bl	0x45f8
        1164:	394036a1 	ldrb	w1, [x21, #13]
        1168:	94000d3b 	bl	0x4654
        116c:	aa1303e1 	mov	x1, x19
        1170:	94000d22 	bl	0x45f8
        1174:	b0000021 	adrp	x1, 0x6000
        1178:	9109e021 	add	x1, x1, #0x278
        117c:	aa1403e0 	mov	x0, x20
        1180:	94000d1e 	bl	0x45f8
        1184:	79401ea1 	ldrh	w1, [x21, #14]
        1188:	94000d39 	bl	0x466c
        118c:	aa1303e1 	mov	x1, x19
        1190:	94000d1a 	bl	0x45f8
        1194:	b0000021 	adrp	x1, 0x6000
        1198:	910a4021 	add	x1, x1, #0x290
        119c:	aa1403e0 	mov	x0, x20
        11a0:	94000d16 	bl	0x45f8
        11a4:	394042a1 	ldrb	w1, [x21, #16]
        11a8:	94000d2b 	bl	0x4654
        11ac:	aa1303e1 	mov	x1, x19
        11b0:	94000d12 	bl	0x45f8
        11b4:	b0000021 	adrp	x1, 0x6000
        11b8:	910a8021 	add	x1, x1, #0x2a0
        11bc:	aa1403e0 	mov	x0, x20
        11c0:	94000d0e 	bl	0x45f8
        11c4:	784112a1 	ldurh	w1, [x21, #17]
        11c8:	94000d29 	bl	0x466c
        11cc:	aa1303e1 	mov	x1, x19
        11d0:	94000d0a 	bl	0x45f8
        11d4:	b0000021 	adrp	x1, 0x6000
        11d8:	910ae021 	add	x1, x1, #0x2b8
        11dc:	aa1403e0 	mov	x0, x20
        11e0:	94000d06 	bl	0x45f8
        11e4:	784132a1 	ldurh	w1, [x21, #19]
        11e8:	94000d21 	bl	0x466c
        11ec:	aa1303e1 	mov	x1, x19
        11f0:	94000d02 	bl	0x45f8
        11f4:	b0000021 	adrp	x1, 0x6000
        11f8:	910b4021 	add	x1, x1, #0x2d0
        11fc:	aa1403e0 	mov	x0, x20
        1200:	94000cfe 	bl	0x45f8
        1204:	394056a1 	ldrb	w1, [x21, #21]
        1208:	94000d13 	bl	0x4654
        120c:	aa1303e1 	mov	x1, x19
        1210:	94000cfa 	bl	0x45f8
        1214:	b0000021 	adrp	x1, 0x6000
        1218:	910b8021 	add	x1, x1, #0x2e0
        121c:	aa1403e0 	mov	x0, x20
        1220:	94000cf6 	bl	0x45f8
        1224:	79402ea1 	ldrh	w1, [x21, #22]
        1228:	94000d11 	bl	0x466c
        122c:	aa1303e1 	mov	x1, x19
        1230:	94000cf2 	bl	0x45f8
        1234:	b0000021 	adrp	x1, 0x6000
        1238:	910bc021 	add	x1, x1, #0x2f0
        123c:	aa1403e0 	mov	x0, x20
        1240:	94000cee 	bl	0x45f8
        1244:	794032a1 	ldrh	w1, [x21, #24]
        1248:	94000d09 	bl	0x466c
        124c:	aa1303e1 	mov	x1, x19
        1250:	94000cea 	bl	0x45f8
        1254:	b0000021 	adrp	x1, 0x6000
        1258:	910c2021 	add	x1, x1, #0x308
        125c:	aa1403e0 	mov	x0, x20
        1260:	94000ce6 	bl	0x45f8
        1264:	794036a1 	ldrh	w1, [x21, #26]
        1268:	94000d01 	bl	0x466c
        126c:	aa1303e1 	mov	x1, x19
        1270:	94000ce2 	bl	0x45f8
        1274:	b0000021 	adrp	x1, 0x6000
        1278:	910c8021 	add	x1, x1, #0x320
        127c:	aa1403e0 	mov	x0, x20
        1280:	94000cde 	bl	0x45f8
        1284:	b9401ea1 	ldr	w1, [x21, #28]
        1288:	94000cff 	bl	0x4684
        128c:	aa1303e1 	mov	x1, x19
        1290:	94000cda 	bl	0x45f8
        1294:	b0000021 	adrp	x1, 0x6000
        1298:	910cc021 	add	x1, x1, #0x330
        129c:	aa1403e0 	mov	x0, x20
        12a0:	94000cd6 	bl	0x45f8
        12a4:	b94022a1 	ldr	w1, [x21, #32]
        12a8:	94000cf7 	bl	0x4684
        12ac:	aa1303e1 	mov	x1, x19
        12b0:	94000cd2 	bl	0x45f8
        12b4:	a94153f3 	ldp	x19, x20, [sp, #16]
        12b8:	f94013f5 	ldr	x21, [sp, #32]
        12bc:	a8c37bfd 	ldp	x29, x30, [sp], #48
        12c0:	d65f03c0 	ret
        12c4:	a9bd7bfd 	stp	x29, x30, [sp, #-48]!
        12c8:	910003fd 	mov	x29, sp
        12cc:	a90153f3 	stp	x19, x20, [sp, #16]
        12d0:	f90013f5 	str	x21, [sp, #32]
        12d4:	aa0003f5 	mov	x21, x0
        12d8:	97ffff8e 	bl	0x1110
        12dc:	90200014 	adrp	x20, 0x40001000
        12e0:	91206294 	add	x20, x20, #0x818
        12e4:	b0000021 	adrp	x1, 0x6000
        12e8:	910d2021 	add	x1, x1, #0x348
        12ec:	aa1403e0 	mov	x0, x20
        12f0:	94000cc2 	bl	0x45f8
        12f4:	b94026a1 	ldr	w1, [x21, #36]
        12f8:	94000ce3 	bl	0x4684
        12fc:	b0000033 	adrp	x19, 0x6000
        1300:	912de273 	add	x19, x19, #0xb78
        1304:	aa1303e1 	mov	x1, x19
        1308:	94000cbc 	bl	0x45f8
        130c:	b0000021 	adrp	x1, 0x6000
        1310:	910d6021 	add	x1, x1, #0x358
        1314:	aa1403e0 	mov	x0, x20
        1318:	94000cb8 	bl	0x45f8
        131c:	794052a1 	ldrh	w1, [x21, #40]
        1320:	94000cd3 	bl	0x466c
        1324:	aa1303e1 	mov	x1, x19
        1328:	94000cb4 	bl	0x45f8
        132c:	b0000021 	adrp	x1, 0x6000
        1330:	910dc021 	add	x1, x1, #0x370
        1334:	aa1403e0 	mov	x0, x20
        1338:	94000cb0 	bl	0x45f8
        133c:	794056a1 	ldrh	w1, [x21, #42]
        1340:	94000ccb 	bl	0x466c
        1344:	aa1303e1 	mov	x1, x19
        1348:	94000cac 	bl	0x45f8
        134c:	b0000021 	adrp	x1, 0x6000
        1350:	910e0021 	add	x1, x1, #0x380
        1354:	aa1403e0 	mov	x0, x20
        1358:	94000ca8 	bl	0x45f8
        135c:	b9402ea1 	ldr	w1, [x21, #44]
        1360:	94000cc9 	bl	0x4684
        1364:	aa1303e1 	mov	x1, x19
        1368:	94000ca4 	bl	0x45f8
        136c:	b0000021 	adrp	x1, 0x6000
        1370:	910e6021 	add	x1, x1, #0x398
        1374:	aa1403e0 	mov	x0, x20
        1378:	94000ca0 	bl	0x45f8
        137c:	794062a1 	ldrh	w1, [x21, #48]
        1380:	94000cbb 	bl	0x466c
        1384:	aa1303e1 	mov	x1, x19
        1388:	94000c9c 	bl	0x45f8
        138c:	b0000021 	adrp	x1, 0x6000
        1390:	910ea021 	add	x1, x1, #0x3a8
        1394:	aa1403e0 	mov	x0, x20
        1398:	94000c98 	bl	0x45f8
        139c:	794066a1 	ldrh	w1, [x21, #50]
        13a0:	94000cb3 	bl	0x466c
        13a4:	aa1303e1 	mov	x1, x19
        13a8:	94000c94 	bl	0x45f8
        13ac:	b0000021 	adrp	x1, 0x6000
        13b0:	910f0021 	add	x1, x1, #0x3c0
        13b4:	aa1403e0 	mov	x0, x20
        13b8:	94000c90 	bl	0x45f8
        13bc:	9100d2a1 	add	x1, x21, #0x34
        13c0:	94000cc9 	bl	0x46e4
        13c4:	aa1303e1 	mov	x1, x19
        13c8:	94000c8c 	bl	0x45f8
        13cc:	b0000021 	adrp	x1, 0x6000
        13d0:	910f6021 	add	x1, x1, #0x3d8
        13d4:	aa1403e0 	mov	x0, x20
        13d8:	94000c88 	bl	0x45f8
        13dc:	394102a1 	ldrb	w1, [x21, #64]
        13e0:	94000c9d 	bl	0x4654
        13e4:	aa1303e1 	mov	x1, x19
        13e8:	94000c84 	bl	0x45f8
        13ec:	b0000021 	adrp	x1, 0x6000
        13f0:	910fc021 	add	x1, x1, #0x3f0
        13f4:	aa1403e0 	mov	x0, x20
        13f8:	94000c80 	bl	0x45f8
        13fc:	394106a1 	ldrb	w1, [x21, #65]
        1400:	94000c95 	bl	0x4654
        1404:	aa1303e1 	mov	x1, x19
        1408:	94000c7c 	bl	0x45f8
        140c:	b0000021 	adrp	x1, 0x6000
        1410:	91102021 	add	x1, x1, #0x408
        1414:	aa1403e0 	mov	x0, x20
        1418:	94000c78 	bl	0x45f8
        141c:	39410aa1 	ldrb	w1, [x21, #66]
        1420:	94000c8d 	bl	0x4654
        1424:	aa1303e1 	mov	x1, x19
        1428:	94000c74 	bl	0x45f8
        142c:	b0000021 	adrp	x1, 0x6000
        1430:	91108021 	add	x1, x1, #0x420
        1434:	aa1403e0 	mov	x0, x20
        1438:	94000c70 	bl	0x45f8
        143c:	b84432a1 	ldur	w1, [x21, #67]
        1440:	94000c91 	bl	0x4684
        1444:	aa1303e1 	mov	x1, x19
        1448:	94000c6c 	bl	0x45f8
        144c:	b0000021 	adrp	x1, 0x6000
        1450:	9110e021 	add	x1, x1, #0x438
        1454:	aa1403e0 	mov	x0, x20
        1458:	94000c68 	bl	0x45f8
        145c:	91011ea1 	add	x1, x21, #0x47
        1460:	94000c66 	bl	0x45f8
        1464:	aa1303e1 	mov	x1, x19
        1468:	94000c64 	bl	0x45f8
        146c:	b0000021 	adrp	x1, 0x6000
        1470:	91114021 	add	x1, x1, #0x450
        1474:	aa1403e0 	mov	x0, x20
        1478:	94000c60 	bl	0x45f8
        147c:	91014aa1 	add	x1, x21, #0x52
        1480:	94000c5e 	bl	0x45f8
        1484:	aa1303e1 	mov	x1, x19
        1488:	94000c5c 	bl	0x45f8
        148c:	b0000021 	adrp	x1, 0x6000
        1490:	9111a021 	add	x1, x1, #0x468
        1494:	aa1403e0 	mov	x0, x20
        1498:	94000c58 	bl	0x45f8
        149c:	91016aa1 	add	x1, x21, #0x5a
        14a0:	94000c91 	bl	0x46e4
        14a4:	aa1303e1 	mov	x1, x19
        14a8:	94000c54 	bl	0x45f8
        14ac:	b0000021 	adrp	x1, 0x6000
        14b0:	91120021 	add	x1, x1, #0x480
        14b4:	aa1403e0 	mov	x0, x20
        14b8:	94000c50 	bl	0x45f8
        14bc:	7943fea1 	ldrh	w1, [x21, #510]
        14c0:	94000c6b 	bl	0x466c
        14c4:	aa1303e1 	mov	x1, x19
        14c8:	94000c4c 	bl	0x45f8
        14cc:	a94153f3 	ldp	x19, x20, [sp, #16]
        14d0:	f94013f5 	ldr	x21, [sp, #32]
        14d4:	a8c37bfd 	ldp	x29, x30, [sp], #48
        14d8:	d65f03c0 	ret
        14dc:	a9b27bfd 	stp	x29, x30, [sp, #-224]!
        14e0:	910003fd 	mov	x29, sp
        14e4:	a90153f3 	stp	x19, x20, [sp, #16]
        14e8:	f90013f5 	str	x21, [sp, #32]
        14ec:	aa0003f3 	mov	x19, x0
        14f0:	94000363 	bl	0x227c
        14f4:	72001c1f 	tst	w0, #0xff
        14f8:	54001141 	b.ne	0x1720  // b.any
        14fc:	f90017b6 	str	x22, [x29, #40]
        1500:	90200015 	adrp	x21, 0x40001000
        1504:	912062b5 	add	x21, x21, #0x818
        1508:	b0000021 	adrp	x1, 0x6000
        150c:	9114a021 	add	x1, x1, #0x528
        1510:	aa1503e0 	mov	x0, x21
        1514:	94000c39 	bl	0x45f8
        1518:	aa0003f4 	mov	x20, x0
        151c:	d2800162 	mov	x2, #0xb                   	// #11
        1520:	aa1303e1 	mov	x1, x19
        1524:	9102a3a0 	add	x0, x29, #0xa8
        1528:	940007c2 	bl	0x3430
        152c:	a94a8ba1 	ldp	x1, x2, [x29, #168]
        1530:	aa1403e0 	mov	x0, x20
        1534:	940007d7 	bl	0x3490
        1538:	b0000034 	adrp	x20, 0x6000
        153c:	912de294 	add	x20, x20, #0xb78
        1540:	aa1403e1 	mov	x1, x20
        1544:	94000c2d 	bl	0x45f8
        1548:	b0000021 	adrp	x1, 0x6000
        154c:	9114e021 	add	x1, x1, #0x538
        1550:	aa1503e0 	mov	x0, x21
        1554:	94000c29 	bl	0x45f8
        1558:	aa0003f6 	mov	x22, x0
        155c:	39402e61 	ldrb	w1, [x19, #11]
        1560:	9102e3a0 	add	x0, x29, #0xb8
        1564:	94000eb0 	bl	0x5024
        1568:	9102e3a1 	add	x1, x29, #0xb8
        156c:	aa1603e0 	mov	x0, x22
        1570:	94000d98 	bl	0x4bd0
        1574:	aa1403e1 	mov	x1, x20
        1578:	94000c20 	bl	0x45f8
        157c:	b0000021 	adrp	x1, 0x6000
        1580:	91152021 	add	x1, x1, #0x548
        1584:	aa1503e0 	mov	x0, x21
        1588:	94000c1c 	bl	0x45f8
        158c:	aa0003f6 	mov	x22, x0
        1590:	39403261 	ldrb	w1, [x19, #12]
        1594:	910303a0 	add	x0, x29, #0xc0
        1598:	94000ea3 	bl	0x5024
        159c:	910303a1 	add	x1, x29, #0xc0
        15a0:	aa1603e0 	mov	x0, x22
        15a4:	94000d8b 	bl	0x4bd0
        15a8:	aa1403e1 	mov	x1, x20
        15ac:	94000c13 	bl	0x45f8
        15b0:	b0000021 	adrp	x1, 0x6000
        15b4:	91156021 	add	x1, x1, #0x558
        15b8:	aa1503e0 	mov	x0, x21
        15bc:	94000c0f 	bl	0x45f8
        15c0:	39403661 	ldrb	w1, [x19, #13]
        15c4:	94000c24 	bl	0x4654
        15c8:	aa1403e1 	mov	x1, x20
        15cc:	94000c0b 	bl	0x45f8
        15d0:	b0000021 	adrp	x1, 0x6000
        15d4:	9115c021 	add	x1, x1, #0x570
        15d8:	aa1503e0 	mov	x0, x21
        15dc:	94000c07 	bl	0x45f8
        15e0:	79401e61 	ldrh	w1, [x19, #14]
        15e4:	94000c22 	bl	0x466c
        15e8:	aa1403e1 	mov	x1, x20
        15ec:	94000c03 	bl	0x45f8
        15f0:	b0000021 	adrp	x1, 0x6000
        15f4:	91162021 	add	x1, x1, #0x588
        15f8:	aa1503e0 	mov	x0, x21
        15fc:	94000bff 	bl	0x45f8
        1600:	79402261 	ldrh	w1, [x19, #16]
        1604:	94000c1a 	bl	0x466c
        1608:	aa1403e1 	mov	x1, x20
        160c:	94000bfb 	bl	0x45f8
        1610:	b0000021 	adrp	x1, 0x6000
        1614:	91168021 	add	x1, x1, #0x5a0
        1618:	aa1503e0 	mov	x0, x21
        161c:	94000bf7 	bl	0x45f8
        1620:	79402661 	ldrh	w1, [x19, #18]
        1624:	94000c12 	bl	0x466c
        1628:	aa1403e1 	mov	x1, x20
        162c:	94000bf3 	bl	0x45f8
        1630:	b0000021 	adrp	x1, 0x6000
        1634:	9116e021 	add	x1, x1, #0x5b8
        1638:	aa1503e0 	mov	x0, x21
        163c:	94000bef 	bl	0x45f8
        1640:	aa0003f6 	mov	x22, x0
        1644:	79402a61 	ldrh	w1, [x19, #20]
        1648:	910323a0 	add	x0, x29, #0xc8
        164c:	94000e76 	bl	0x5024
        1650:	910323a1 	add	x1, x29, #0xc8
        1654:	aa1603e0 	mov	x0, x22
        1658:	94000d5e 	bl	0x4bd0
        165c:	aa1403e1 	mov	x1, x20
        1660:	94000be6 	bl	0x45f8
        1664:	b0000021 	adrp	x1, 0x6000
        1668:	91174021 	add	x1, x1, #0x5d0
        166c:	aa1503e0 	mov	x0, x21
        1670:	94000be2 	bl	0x45f8
        1674:	79402e61 	ldrh	w1, [x19, #22]
        1678:	94000bfd 	bl	0x466c
        167c:	aa1403e1 	mov	x1, x20
        1680:	94000bde 	bl	0x45f8
        1684:	b0000021 	adrp	x1, 0x6000
        1688:	9117a021 	add	x1, x1, #0x5e8
        168c:	aa1503e0 	mov	x0, x21
        1690:	94000bda 	bl	0x45f8
        1694:	79403261 	ldrh	w1, [x19, #24]
        1698:	94000bf5 	bl	0x466c
        169c:	aa1403e1 	mov	x1, x20
        16a0:	94000bd6 	bl	0x45f8
        16a4:	b0000021 	adrp	x1, 0x6000
        16a8:	91180021 	add	x1, x1, #0x600
        16ac:	aa1503e0 	mov	x0, x21
        16b0:	94000bd2 	bl	0x45f8
        16b4:	aa0003f6 	mov	x22, x0
        16b8:	79403661 	ldrh	w1, [x19, #26]
        16bc:	910343a0 	add	x0, x29, #0xd0
        16c0:	94000e59 	bl	0x5024
        16c4:	910343a1 	add	x1, x29, #0xd0
        16c8:	aa1603e0 	mov	x0, x22
        16cc:	94000d41 	bl	0x4bd0
        16d0:	aa1403e1 	mov	x1, x20
        16d4:	94000bc9 	bl	0x45f8
        16d8:	b0000021 	adrp	x1, 0x6000
        16dc:	91186021 	add	x1, x1, #0x618
        16e0:	aa1503e0 	mov	x0, x21
        16e4:	94000bc5 	bl	0x45f8
        16e8:	aa0003f5 	mov	x21, x0
        16ec:	b9401e61 	ldr	w1, [x19, #28]
        16f0:	910363a0 	add	x0, x29, #0xd8
        16f4:	94000e4c 	bl	0x5024
        16f8:	910363a1 	add	x1, x29, #0xd8
        16fc:	aa1503e0 	mov	x0, x21
        1700:	94000d34 	bl	0x4bd0
        1704:	aa1403e1 	mov	x1, x20
        1708:	94000bbc 	bl	0x45f8
        170c:	f94017b6 	ldr	x22, [x29, #40]
        1710:	a94153f3 	ldp	x19, x20, [sp, #16]
        1714:	f94013f5 	ldr	x21, [sp, #32]
        1718:	a8ce7bfd 	ldp	x29, x30, [sp], #224
        171c:	d65f03c0 	ret
        1720:	a9400660 	ldp	x0, x1, [x19]
        1724:	a90307a0 	stp	x0, x1, [x29, #48]
        1728:	a9410660 	ldp	x0, x1, [x19, #16]
        172c:	a90407a0 	stp	x0, x1, [x29, #64]
        1730:	90200014 	adrp	x20, 0x40001000
        1734:	91206294 	add	x20, x20, #0x818
        1738:	b0000021 	adrp	x1, 0x6000
        173c:	91126021 	add	x1, x1, #0x498
        1740:	aa1403e0 	mov	x0, x20
        1744:	94000bad 	bl	0x45f8
        1748:	aa0003f3 	mov	x19, x0
        174c:	3940c3a1 	ldrb	w1, [x29, #48]
        1750:	910143a0 	add	x0, x29, #0x50
        1754:	94000e34 	bl	0x5024
        1758:	910143a1 	add	x1, x29, #0x50
        175c:	aa1303e0 	mov	x0, x19
        1760:	94000d1c 	bl	0x4bd0
        1764:	b0000033 	adrp	x19, 0x6000
        1768:	912de273 	add	x19, x19, #0xb78
        176c:	aa1303e1 	mov	x1, x19
        1770:	94000ba2 	bl	0x45f8
        1774:	b0000021 	adrp	x1, 0x6000
        1778:	9112a021 	add	x1, x1, #0x4a8
        177c:	aa1403e0 	mov	x0, x20
        1780:	94000b9e 	bl	0x45f8
        1784:	aa0003f5 	mov	x21, x0
        1788:	d2800142 	mov	x2, #0xa                   	// #10
        178c:	9100c7a1 	add	x1, x29, #0x31
        1790:	910163a0 	add	x0, x29, #0x58
        1794:	94000727 	bl	0x3430
        1798:	a9458ba1 	ldp	x1, x2, [x29, #88]
        179c:	aa1503e0 	mov	x0, x21
        17a0:	9400073c 	bl	0x3490
        17a4:	aa1303e1 	mov	x1, x19
        17a8:	94000b94 	bl	0x45f8
        17ac:	b0000021 	adrp	x1, 0x6000
        17b0:	9112e021 	add	x1, x1, #0x4b8
        17b4:	aa1403e0 	mov	x0, x20
        17b8:	94000b90 	bl	0x45f8
        17bc:	aa0003f5 	mov	x21, x0
        17c0:	3940efa1 	ldrb	w1, [x29, #59]
        17c4:	9101a3a0 	add	x0, x29, #0x68
        17c8:	94000e17 	bl	0x5024
        17cc:	9101a3a1 	add	x1, x29, #0x68
        17d0:	aa1503e0 	mov	x0, x21
        17d4:	94000cff 	bl	0x4bd0
        17d8:	aa1303e1 	mov	x1, x19
        17dc:	94000b87 	bl	0x45f8
        17e0:	b0000021 	adrp	x1, 0x6000
        17e4:	91132021 	add	x1, x1, #0x4c8
        17e8:	aa1403e0 	mov	x0, x20
        17ec:	94000b83 	bl	0x45f8
        17f0:	aa0003f5 	mov	x21, x0
        17f4:	3940f3a1 	ldrb	w1, [x29, #60]
        17f8:	9101c3a0 	add	x0, x29, #0x70
        17fc:	94000e0a 	bl	0x5024
        1800:	9101c3a1 	add	x1, x29, #0x70
        1804:	aa1503e0 	mov	x0, x21
        1808:	94000cf2 	bl	0x4bd0
        180c:	aa1303e1 	mov	x1, x19
        1810:	94000b7a 	bl	0x45f8
        1814:	b0000021 	adrp	x1, 0x6000
        1818:	91136021 	add	x1, x1, #0x4d8
        181c:	aa1403e0 	mov	x0, x20
        1820:	94000b76 	bl	0x45f8
        1824:	aa0003f5 	mov	x21, x0
        1828:	3940f7a1 	ldrb	w1, [x29, #61]
        182c:	9101e3a0 	add	x0, x29, #0x78
        1830:	94000dfd 	bl	0x5024
        1834:	9101e3a1 	add	x1, x29, #0x78
        1838:	aa1503e0 	mov	x0, x21
        183c:	94000ce5 	bl	0x4bd0
        1840:	aa1303e1 	mov	x1, x19
        1844:	94000b6d 	bl	0x45f8
        1848:	b0000021 	adrp	x1, 0x6000
        184c:	9113c021 	add	x1, x1, #0x4f0
        1850:	aa1403e0 	mov	x0, x20
        1854:	94000b69 	bl	0x45f8
        1858:	aa0003f5 	mov	x21, x0
        185c:	d2800182 	mov	x2, #0xc                   	// #12
        1860:	9100fba1 	add	x1, x29, #0x3e
        1864:	910203a0 	add	x0, x29, #0x80
        1868:	940006f2 	bl	0x3430
        186c:	a9480ba1 	ldp	x1, x2, [x29, #128]
        1870:	aa1503e0 	mov	x0, x21
        1874:	94000707 	bl	0x3490
        1878:	aa1303e1 	mov	x1, x19
        187c:	94000b5f 	bl	0x45f8
        1880:	b0000021 	adrp	x1, 0x6000
        1884:	91140021 	add	x1, x1, #0x500
        1888:	aa1403e0 	mov	x0, x20
        188c:	94000b5b 	bl	0x45f8
        1890:	aa0003f5 	mov	x21, x0
        1894:	794097a1 	ldrh	w1, [x29, #74]
        1898:	910243a0 	add	x0, x29, #0x90
        189c:	94000de2 	bl	0x5024
        18a0:	910243a1 	add	x1, x29, #0x90
        18a4:	aa1503e0 	mov	x0, x21
        18a8:	94000cca 	bl	0x4bd0
        18ac:	aa1303e1 	mov	x1, x19
        18b0:	94000b52 	bl	0x45f8
        18b4:	b0000021 	adrp	x1, 0x6000
        18b8:	91146021 	add	x1, x1, #0x518
        18bc:	aa1403e0 	mov	x0, x20
        18c0:	94000b4e 	bl	0x45f8
        18c4:	aa0003f4 	mov	x20, x0
        18c8:	d2800082 	mov	x2, #0x4                   	// #4
        18cc:	910133a1 	add	x1, x29, #0x4c
        18d0:	910263a0 	add	x0, x29, #0x98
        18d4:	940006d7 	bl	0x3430
        18d8:	a9498ba1 	ldp	x1, x2, [x29, #152]
        18dc:	aa1403e0 	mov	x0, x20
        18e0:	940006ec 	bl	0x3490
        18e4:	aa1303e1 	mov	x1, x19
        18e8:	94000b44 	bl	0x45f8
        18ec:	17ffff89 	b	0x1710
        18f0:	a9b97bfd 	stp	x29, x30, [sp, #-112]!
        18f4:	910003fd 	mov	x29, sp
        18f8:	f9000bf3 	str	x19, [sp, #16]
        18fc:	aa0003f3 	mov	x19, x0
        1900:	9400025f 	bl	0x227c
        1904:	72001c1f 	tst	w0, #0xff
        1908:	540002c1 	b.ne	0x1960  // b.any
        190c:	f9000fb4 	str	x20, [x29, #24]
        1910:	b0000021 	adrp	x1, 0x6000
        1914:	9114a021 	add	x1, x1, #0x528
        1918:	90200000 	adrp	x0, 0x40001000
        191c:	91206000 	add	x0, x0, #0x818
        1920:	94000b36 	bl	0x45f8
        1924:	aa0003f4 	mov	x20, x0
        1928:	d2800162 	mov	x2, #0xb                   	// #11
        192c:	aa1303e1 	mov	x1, x19
        1930:	910183a0 	add	x0, x29, #0x60
        1934:	940006bf 	bl	0x3430
        1938:	a9460ba1 	ldp	x1, x2, [x29, #96]
        193c:	aa1403e0 	mov	x0, x20
        1940:	940006d4 	bl	0x3490
        1944:	b0000021 	adrp	x1, 0x6000
        1948:	912de021 	add	x1, x1, #0xb78
        194c:	94000b2b 	bl	0x45f8
        1950:	f9400fb4 	ldr	x20, [x29, #24]
        1954:	f9400bf3 	ldr	x19, [sp, #16]
        1958:	a8c77bfd 	ldp	x29, x30, [sp], #112
        195c:	d65f03c0 	ret
        1960:	a9400660 	ldp	x0, x1, [x19]
        1964:	a90287a0 	stp	x0, x1, [x29, #40]
        1968:	a9410660 	ldp	x0, x1, [x19, #16]
        196c:	a90387a0 	stp	x0, x1, [x29, #56]
        1970:	b0000021 	adrp	x1, 0x6000
        1974:	9118c021 	add	x1, x1, #0x630
        1978:	90200000 	adrp	x0, 0x40001000
        197c:	91206000 	add	x0, x0, #0x818
        1980:	94000b1e 	bl	0x45f8
        1984:	aa0003f3 	mov	x19, x0
        1988:	910123a8 	add	x8, x29, #0x48
        198c:	52800021 	mov	w1, #0x1                   	// #1
        1990:	9100a3a0 	add	x0, x29, #0x28
        1994:	940005d2 	bl	0x30dc
        1998:	910123a1 	add	x1, x29, #0x48
        199c:	aa1303e0 	mov	x0, x19
        19a0:	94000db2 	bl	0x5068
        19a4:	b0000021 	adrp	x1, 0x6000
        19a8:	912de021 	add	x1, x1, #0xb78
        19ac:	94000b13 	bl	0x45f8
        19b0:	910123a0 	add	x0, x29, #0x48
        19b4:	94000d9e 	bl	0x502c
        19b8:	17ffffe7 	b	0x1954
        19bc:	a9bb7bfd 	stp	x29, x30, [sp, #-80]!
        19c0:	910003fd 	mov	x29, sp
        19c4:	a90153f3 	stp	x19, x20, [sp, #16]
        19c8:	f90013f5 	str	x21, [sp, #32]
        19cc:	aa0003f5 	mov	x21, x0
        19d0:	aa0103f4 	mov	x20, x1
        19d4:	d2800013 	mov	x19, #0x0                   	// #0
        19d8:	eb14027f 	cmp	x19, x20
        19dc:	54000140 	b.eq	0x1a04  // b.none
        19e0:	8b1316a0 	add	x0, x21, x19, lsl #5
        19e4:	a9400c02 	ldp	x2, x3, [x0]
        19e8:	a9030fa2 	stp	x2, x3, [x29, #48]
        19ec:	a9410400 	ldp	x0, x1, [x0, #16]
        19f0:	a90407a0 	stp	x0, x1, [x29, #64]
        19f4:	9100c3a0 	add	x0, x29, #0x30
        19f8:	97ffffbe 	bl	0x18f0
        19fc:	91000673 	add	x19, x19, #0x1
        1a00:	17fffff6 	b	0x19d8
        1a04:	a94153f3 	ldp	x19, x20, [sp, #16]
        1a08:	f94013f5 	ldr	x21, [sp, #32]
        1a0c:	a8c57bfd 	ldp	x29, x30, [sp], #80
        1a10:	d65f03c0 	ret
        1a14:	b9400002 	ldr	w2, [x0]
        1a18:	33006c22 	bfxil	w2, w1, #0, #28
        1a1c:	b9000002 	str	w2, [x0]
        1a20:	d3586c42 	ubfx	x2, x2, #24, #4
        1a24:	39000c02 	strb	w2, [x0, #3]
        1a28:	d65f03c0 	ret
        1a2c:	b9400001 	ldr	w1, [x0]
        1a30:	d3406c21 	ubfx	x1, x1, #0, #28
        1a34:	321f6be0 	mov	w0, #0xffffffe             	// #268435454
        1a38:	0b000020 	add	w0, w1, w0
        1a3c:	12006c00 	and	w0, w0, #0xfffffff
        1a40:	529ffe62 	mov	w2, #0xfff3                	// #65523
        1a44:	72a1ffe2 	movk	w2, #0xfff, lsl #16
        1a48:	6b02001f 	cmp	w0, w2
        1a4c:	1a9f87e2 	cset	w2, ls  // ls = plast
        1a50:	7100003f 	cmp	w1, #0x0
        1a54:	1a9f17e0 	cset	w0, eq  // eq = none
        1a58:	7100005f 	cmp	w2, #0x0
        1a5c:	7a400800 	ccmp	w0, #0x0, #0x0, eq  // eq = none
        1a60:	1a9f07e0 	cset	w0, ne  // ne = any
        1a64:	d65f03c0 	ret
        1a68:	b9400000 	ldr	w0, [x0]
        1a6c:	d3406c00 	ubfx	x0, x0, #0, #28
        1a70:	529ffee1 	mov	w1, #0xfff7                	// #65527
        1a74:	72a1ffe1 	movk	w1, #0xfff, lsl #16
        1a78:	6b01001f 	cmp	w0, w1
        1a7c:	1a9f17e0 	cset	w0, eq  // eq = none
        1a80:	d65f03c0 	ret
        1a84:	b9400000 	ldr	w0, [x0]
        1a88:	d3406c00 	ubfx	x0, x0, #0, #28
        1a8c:	12be0001 	mov	w1, #0xfffffff             	// #268435455
        1a90:	6b01001f 	cmp	w0, w1
        1a94:	1a9f17e0 	cset	w0, eq  // eq = none
        1a98:	d65f03c0 	ret
        1a9c:	b9400000 	ldr	w0, [x0]
        1aa0:	f2406c1f 	tst	x0, #0xfffffff
        1aa4:	1a9f17e0 	cset	w0, eq  // eq = none
        1aa8:	d65f03c0 	ret
        1aac:	b9400000 	ldr	w0, [x0]
        1ab0:	12006c00 	and	w0, w0, #0xfffffff
        1ab4:	d65f03c0 	ret
        1ab8:	a9bd7bfd 	stp	x29, x30, [sp, #-48]!
        1abc:	910003fd 	mov	x29, sp
        1ac0:	a90153f3 	stp	x19, x20, [sp, #16]
        1ac4:	f90013f5 	str	x21, [sp, #32]
        1ac8:	aa0003f3 	mov	x19, x0
        1acc:	aa0203f5 	mov	x21, x2
        1ad0:	aa0303f4 	mov	x20, x3
        1ad4:	94000d87 	bl	0x50f0
        1ad8:	f9000e75 	str	x21, [x19, #24]
        1adc:	f9001274 	str	x20, [x19, #32]
        1ae0:	a94153f3 	ldp	x19, x20, [sp, #16]
        1ae4:	f94013f5 	ldr	x21, [sp, #32]
        1ae8:	a8c37bfd 	ldp	x29, x30, [sp], #48
        1aec:	d65f03c0 	ret
        1af0:	a9bd7bfd 	stp	x29, x30, [sp, #-48]!
        1af4:	910003fd 	mov	x29, sp
        1af8:	f9000bf3 	str	x19, [sp, #16]
        1afc:	aa0003f3 	mov	x19, x0
        1b00:	9100c3a0 	add	x0, x29, #0x30
        1b04:	b81f8c01 	str	w1, [x0, #-8]!
        1b08:	97ffffe9 	bl	0x1aac
        1b0c:	2a0003e1 	mov	w1, w0
        1b10:	aa1303e0 	mov	x0, x19
        1b14:	94000d8e 	bl	0x514c
        1b18:	b9400000 	ldr	w0, [x0]
        1b1c:	f9400bf3 	ldr	x19, [sp, #16]
        1b20:	a8c37bfd 	ldp	x29, x30, [sp], #48
        1b24:	d65f03c0 	ret
        1b28:	a9bc7bfd 	stp	x29, x30, [sp, #-64]!
        1b2c:	910003fd 	mov	x29, sp
        1b30:	a90153f3 	stp	x19, x20, [sp, #16]
        1b34:	a9025bf5 	stp	x21, x22, [sp, #32]
        1b38:	aa0003f6 	mov	x22, x0
        1b3c:	aa0103f5 	mov	x21, x1
        1b40:	b9003ba2 	str	w2, [x29, #56]
        1b44:	d2800013 	mov	x19, #0x0                   	// #0
        1b48:	9100e3a0 	add	x0, x29, #0x38
        1b4c:	97ffffce 	bl	0x1a84
        1b50:	72001c1f 	tst	w0, #0xff
        1b54:	54000181 	b.ne	0x1b84  // b.any
        1b58:	91000674 	add	x20, x19, #0x1
        1b5c:	aa1303e2 	mov	x2, x19
        1b60:	b9403ba1 	ldr	w1, [x29, #56]
        1b64:	aa1503e0 	mov	x0, x21
        1b68:	94000d6c 	bl	0x5118
        1b6c:	b9403ba1 	ldr	w1, [x29, #56]
        1b70:	aa1603e0 	mov	x0, x22
        1b74:	97ffffdf 	bl	0x1af0
        1b78:	b9003ba0 	str	w0, [x29, #56]
        1b7c:	aa1403f3 	mov	x19, x20
        1b80:	17fffff2 	b	0x1b48
        1b84:	a94153f3 	ldp	x19, x20, [sp, #16]
        1b88:	a9425bf5 	ldp	x21, x22, [sp, #32]
        1b8c:	a8c47bfd 	ldp	x29, x30, [sp], #64
        1b90:	d65f03c0 	ret
        1b94:	a9bc7bfd 	stp	x29, x30, [sp, #-64]!
        1b98:	910003fd 	mov	x29, sp
        1b9c:	a90153f3 	stp	x19, x20, [sp, #16]
        1ba0:	f90013f5 	str	x21, [sp, #32]
        1ba4:	aa0003f5 	mov	x21, x0
        1ba8:	b9003ba1 	str	w1, [x29, #56]
        1bac:	aa0203f4 	mov	x20, x2
        1bb0:	f9401000 	ldr	x0, [x0, #32]
        1bb4:	94000093 	bl	0x1e00
        1bb8:	9ac00a94 	udiv	x20, x20, x0
        1bbc:	d2800013 	mov	x19, #0x0                   	// #0
        1bc0:	eb14027f 	cmp	x19, x20
        1bc4:	54000160 	b.eq	0x1bf0  // b.none
        1bc8:	9100e3a0 	add	x0, x29, #0x38
        1bcc:	97ffffae 	bl	0x1a84
        1bd0:	72001c1f 	tst	w0, #0xff
        1bd4:	540000e1 	b.ne	0x1bf0  // b.any
        1bd8:	b9403ba1 	ldr	w1, [x29, #56]
        1bdc:	aa1503e0 	mov	x0, x21
        1be0:	97ffffc4 	bl	0x1af0
        1be4:	b9003ba0 	str	w0, [x29, #56]
        1be8:	91000673 	add	x19, x19, #0x1
        1bec:	17fffff5 	b	0x1bc0
        1bf0:	b9403ba0 	ldr	w0, [x29, #56]
        1bf4:	a94153f3 	ldp	x19, x20, [sp, #16]
        1bf8:	f94013f5 	ldr	x21, [sp, #32]
        1bfc:	a8c47bfd 	ldp	x29, x30, [sp], #64
        1c00:	d65f03c0 	ret
        1c04:	a9bb7bfd 	stp	x29, x30, [sp, #-80]!
        1c08:	910003fd 	mov	x29, sp
        1c0c:	a90153f3 	stp	x19, x20, [sp, #16]
        1c10:	a9025bf5 	stp	x21, x22, [sp, #32]
        1c14:	aa0003f4 	mov	x20, x0
        1c18:	aa0103f6 	mov	x22, x1
        1c1c:	aa0203f3 	mov	x19, x2
        1c20:	79401c55 	ldrh	w21, [x2, #14]
        1c24:	7840b040 	ldurh	w0, [x2, #11]
        1c28:	1b007eb5 	mul	w21, w21, w0
        1c2c:	aa0203e0 	mov	x0, x2
        1c30:	94000013 	bl	0x1c7c
        1c34:	7840b262 	ldurh	w2, [x19, #11]
        1c38:	9b027c02 	mul	x2, x0, x2
        1c3c:	9100e3a8 	add	x8, x29, #0x38
        1c40:	d342fc42 	lsr	x2, x2, #2
        1c44:	93407ea1 	sxtw	x1, w21
        1c48:	aa1603e0 	mov	x0, x22
        1c4c:	94000d89 	bl	0x5270
        1c50:	9100e3a1 	add	x1, x29, #0x38
        1c54:	aa1403e0 	mov	x0, x20
        1c58:	94000d26 	bl	0x50f0
        1c5c:	9100e3a0 	add	x0, x29, #0x38
        1c60:	94000d1a 	bl	0x50c8
        1c64:	f9000e96 	str	x22, [x20, #24]
        1c68:	f9001293 	str	x19, [x20, #32]
        1c6c:	a94153f3 	ldp	x19, x20, [sp, #16]
        1c70:	a9425bf5 	ldp	x21, x22, [sp, #32]
        1c74:	a8c57bfd 	ldp	x29, x30, [sp], #80
        1c78:	d65f03c0 	ret
        1c7c:	79402c01 	ldrh	w1, [x0, #22]
        1c80:	34000061 	cbz	w1, 0x1c8c
        1c84:	92403c20 	and	x0, x1, #0xffff
        1c88:	d65f03c0 	ret
        1c8c:	b9402400 	ldr	w0, [x0, #36]
        1c90:	17fffffe 	b	0x1c88
        1c94:	78413001 	ldurh	w1, [x0, #19]
        1c98:	34000061 	cbz	w1, 0x1ca4
        1c9c:	92403c20 	and	x0, x1, #0xffff
        1ca0:	d65f03c0 	ret
        1ca4:	b9402000 	ldr	w0, [x0, #32]
        1ca8:	17fffffe 	b	0x1ca0
        1cac:	a9bd7bfd 	stp	x29, x30, [sp, #-48]!
        1cb0:	910003fd 	mov	x29, sp
        1cb4:	a90153f3 	stp	x19, x20, [sp, #16]
        1cb8:	a9025bf5 	stp	x21, x22, [sp, #32]
        1cbc:	aa0003f4 	mov	x20, x0
        1cc0:	97fffff5 	bl	0x1c94
        1cc4:	aa0003f5 	mov	x21, x0
        1cc8:	79401e96 	ldrh	w22, [x20, #14]
        1ccc:	39404293 	ldrb	w19, [x20, #16]
        1cd0:	aa1403e0 	mov	x0, x20
        1cd4:	97ffffea 	bl	0x1c7c
        1cd8:	9b005a73 	madd	x19, x19, x0, x22
        1cdc:	aa1403e0 	mov	x0, x20
        1ce0:	94000549 	bl	0x3204
        1ce4:	8b000260 	add	x0, x19, x0
        1ce8:	cb0002a0 	sub	x0, x21, x0
        1cec:	a94153f3 	ldp	x19, x20, [sp, #16]
        1cf0:	a9425bf5 	ldp	x21, x22, [sp, #32]
        1cf4:	a8c37bfd 	ldp	x29, x30, [sp], #48
        1cf8:	d65f03c0 	ret
        1cfc:	a9be7bfd 	stp	x29, x30, [sp, #-32]!
        1d00:	910003fd 	mov	x29, sp
        1d04:	f9000bf3 	str	x19, [sp, #16]
        1d08:	aa0003f3 	mov	x19, x0
        1d0c:	97ffffe8 	bl	0x1cac
        1d10:	39403661 	ldrb	w1, [x19, #13]
        1d14:	9ac10800 	udiv	x0, x0, x1
        1d18:	f9400bf3 	ldr	x19, [sp, #16]
        1d1c:	a8c27bfd 	ldp	x29, x30, [sp], #32
        1d20:	d65f03c0 	ret
        1d24:	79401c05 	ldrh	w5, [x0, #14]
        1d28:	7840b004 	ldurh	w4, [x0, #11]
        1d2c:	1b047ca5 	mul	w5, w5, w4
        1d30:	b9402403 	ldr	w3, [x0, #36]
        1d34:	9b017c61 	mul	x1, x3, x1
        1d38:	92403c84 	and	x4, x4, #0xffff
        1d3c:	9b047c21 	mul	x1, x1, x4
        1d40:	8b020821 	add	x1, x1, x2, lsl #2
        1d44:	8b25c020 	add	x0, x1, w5, sxtw
        1d48:	d65f03c0 	ret
        1d4c:	f100043f 	cmp	x1, #0x1
        1d50:	54000129 	b.ls	0x1d74  // b.plast
        1d54:	79401c03 	ldrh	w3, [x0, #14]
        1d58:	39404002 	ldrb	w2, [x0, #16]
        1d5c:	b9402404 	ldr	w4, [x0, #36]
        1d60:	1b040c42 	madd	w2, w2, w4, w3
        1d64:	d1000821 	sub	x1, x1, #0x2
        1d68:	39403400 	ldrb	w0, [x0, #13]
        1d6c:	9b000820 	madd	x0, x1, x0, x2
        1d70:	d65f03c0 	ret
        1d74:	d2800000 	mov	x0, #0x0                   	// #0
        1d78:	17fffffe 	b	0x1d70
        1d7c:	a9bf7bfd 	stp	x29, x30, [sp, #-16]!
        1d80:	910003fd 	mov	x29, sp
        1d84:	b9402c01 	ldr	w1, [x0, #44]
        1d88:	97fffff1 	bl	0x1d4c
        1d8c:	a8c17bfd 	ldp	x29, x30, [sp], #16
        1d90:	d65f03c0 	ret
        1d94:	a9bf7bfd 	stp	x29, x30, [sp, #-16]!
        1d98:	910003fd 	mov	x29, sp
        1d9c:	97ffffd8 	bl	0x1cfc
        1da0:	f13fd01f 	cmp	x0, #0xff4
        1da4:	540000c9 	b.ls	0x1dbc  // b.plast
        1da8:	d29ffe81 	mov	x1, #0xfff4                	// #65524
        1dac:	eb01001f 	cmp	x0, x1
        1db0:	540000c8 	b.hi	0x1dc8  // b.pmore
        1db4:	52800020 	mov	w0, #0x1                   	// #1
        1db8:	14000002 	b	0x1dc0
        1dbc:	52800000 	mov	w0, #0x0                   	// #0
        1dc0:	a8c17bfd 	ldp	x29, x30, [sp], #16
        1dc4:	d65f03c0 	ret
        1dc8:	52800040 	mov	w0, #0x2                   	// #2
        1dcc:	17fffffd 	b	0x1dc0
        1dd0:	52800040 	mov	w0, #0x2                   	// #2
        1dd4:	d65f03c0 	ret
        1dd8:	79401c02 	ldrh	w2, [x0, #14]
        1ddc:	cb020021 	sub	x1, x1, x2
        1de0:	39403402 	ldrb	w2, [x0, #13]
        1de4:	39404000 	ldrb	w0, [x0, #16]
        1de8:	0b022000 	add	w0, w0, w2, lsl #8
        1dec:	d3414000 	ubfx	x0, x0, #1, #16
        1df0:	8b000021 	add	x1, x1, x0
        1df4:	d1000421 	sub	x1, x1, #0x1
        1df8:	9ac00820 	udiv	x0, x1, x0
        1dfc:	d65f03c0 	ret
        1e00:	7840b001 	ldurh	w1, [x0, #11]
        1e04:	39403400 	ldrb	w0, [x0, #13]
        1e08:	1b007c20 	mul	w0, w1, w0
        1e0c:	93407c00 	sxtw	x0, w0
        1e10:	d65f03c0 	ret
        1e14:	a9ba7bfd 	stp	x29, x30, [sp, #-96]!
        1e18:	910003fd 	mov	x29, sp
        1e1c:	a90153f3 	stp	x19, x20, [sp, #16]
        1e20:	a9025bf5 	stp	x21, x22, [sp, #32]
        1e24:	a90363f7 	stp	x23, x24, [sp, #48]
        1e28:	aa0003f6 	mov	x22, x0
        1e2c:	aa0103f5 	mov	x21, x1
        1e30:	aa0203f8 	mov	x24, x2
        1e34:	aa0303f7 	mov	x23, x3
        1e38:	d2800013 	mov	x19, #0x0                   	// #0
        1e3c:	14000002 	b	0x1e44
        1e40:	91000673 	add	x19, x19, #0x1
        1e44:	eb15027f 	cmp	x19, x21
        1e48:	54000260 	b.eq	0x1e94  // b.none
        1e4c:	8b1316d4 	add	x20, x22, x19, lsl #5
        1e50:	aa1403e0 	mov	x0, x20
        1e54:	9400010a 	bl	0x227c
        1e58:	72001c1f 	tst	w0, #0xff
        1e5c:	54ffff21 	b.ne	0x1e40  // b.any
        1e60:	aa1803e1 	mov	x1, x24
        1e64:	910103a0 	add	x0, x29, #0x40
        1e68:	94000564 	bl	0x33f8
        1e6c:	aa1703e1 	mov	x1, x23
        1e70:	910143a0 	add	x0, x29, #0x50
        1e74:	94000561 	bl	0x33f8
        1e78:	910143a2 	add	x2, x29, #0x50
        1e7c:	910103a1 	add	x1, x29, #0x40
        1e80:	aa1403e0 	mov	x0, x20
        1e84:	94000153 	bl	0x23d0
        1e88:	72001c1f 	tst	w0, #0xff
        1e8c:	54fffda0 	b.eq	0x1e40  // b.none
        1e90:	14000002 	b	0x1e98
        1e94:	92800013 	mov	x19, #0xffffffffffffffff    	// #-1
        1e98:	aa1303e0 	mov	x0, x19
        1e9c:	a94153f3 	ldp	x19, x20, [sp, #16]
        1ea0:	a9425bf5 	ldp	x21, x22, [sp, #32]
        1ea4:	a94363f7 	ldp	x23, x24, [sp, #48]
        1ea8:	a8c67bfd 	ldp	x29, x30, [sp], #96
        1eac:	d65f03c0 	ret
        1eb0:	a9bb7bfd 	stp	x29, x30, [sp, #-80]!
        1eb4:	910003fd 	mov	x29, sp
        1eb8:	a90153f3 	stp	x19, x20, [sp, #16]
        1ebc:	a9025bf5 	stp	x21, x22, [sp, #32]
        1ec0:	a90363f7 	stp	x23, x24, [sp, #48]
        1ec4:	aa0003f7 	mov	x23, x0
        1ec8:	aa0103f6 	mov	x22, x1
        1ecc:	aa0203f8 	mov	x24, x2
        1ed0:	d2800013 	mov	x19, #0x0                   	// #0
        1ed4:	14000014 	b	0x1f24
        1ed8:	eb16027f 	cmp	x19, x22
        1edc:	54000340 	b.eq	0x1f44  // b.none
        1ee0:	8b1316f5 	add	x21, x23, x19, lsl #5
        1ee4:	aa1503e0 	mov	x0, x21
        1ee8:	9400037c 	bl	0x2cd8
        1eec:	aa0003f4 	mov	x20, x0
        1ef0:	aa1803e1 	mov	x1, x24
        1ef4:	910103a0 	add	x0, x29, #0x40
        1ef8:	94000540 	bl	0x33f8
        1efc:	52800003 	mov	w3, #0x0                   	// #0
        1f00:	910103a2 	add	x2, x29, #0x40
        1f04:	aa1503e1 	mov	x1, x21
        1f08:	aa1403e0 	mov	x0, x20
        1f0c:	94000442 	bl	0x3014
        1f10:	72001c1f 	tst	w0, #0xff
        1f14:	540001a1 	b.ne	0x1f48  // b.any
        1f18:	cb150294 	sub	x20, x20, x21
        1f1c:	8b941673 	add	x19, x19, x20, asr #5
        1f20:	91000673 	add	x19, x19, #0x1
        1f24:	eb16027f 	cmp	x19, x22
        1f28:	54fffd80 	b.eq	0x1ed8  // b.none
        1f2c:	8b1316e0 	add	x0, x23, x19, lsl #5
        1f30:	940000d3 	bl	0x227c
        1f34:	72001c1f 	tst	w0, #0xff
        1f38:	54fffd01 	b.ne	0x1ed8  // b.any
        1f3c:	91000673 	add	x19, x19, #0x1
        1f40:	17fffff9 	b	0x1f24
        1f44:	92800013 	mov	x19, #0xffffffffffffffff    	// #-1
        1f48:	aa1303e0 	mov	x0, x19
        1f4c:	a94153f3 	ldp	x19, x20, [sp, #16]
        1f50:	a9425bf5 	ldp	x21, x22, [sp, #32]
        1f54:	a94363f7 	ldp	x23, x24, [sp, #48]
        1f58:	a8c57bfd 	ldp	x29, x30, [sp], #80
        1f5c:	d65f03c0 	ret
        1f60:	a9bf7bfd 	stp	x29, x30, [sp, #-16]!
        1f64:	910003fd 	mov	x29, sp
        1f68:	8b010800 	add	x0, x0, x1, lsl #2
        1f6c:	97fffed0 	bl	0x1aac
        1f70:	2a0003e0 	mov	w0, w0
        1f74:	a8c17bfd 	ldp	x29, x30, [sp], #16
        1f78:	d65f03c0 	ret
        1f7c:	a9be7bfd 	stp	x29, x30, [sp, #-32]!
        1f80:	910003fd 	mov	x29, sp
        1f84:	a90153f3 	stp	x19, x20, [sp, #16]
        1f88:	aa0003f4 	mov	x20, x0
        1f8c:	aa0103f3 	mov	x19, x1
        1f90:	f100043f 	cmp	x1, #0x1
        1f94:	540000e9 	b.ls	0x1fb0  // b.plast
        1f98:	8b130a80 	add	x0, x20, x19, lsl #2
        1f9c:	97fffeba 	bl	0x1a84
        1fa0:	72001c1f 	tst	w0, #0xff
        1fa4:	54000080 	b.eq	0x1fb4  // b.none
        1fa8:	91000673 	add	x19, x19, #0x1
        1fac:	17fffffb 	b	0x1f98
        1fb0:	92800013 	mov	x19, #0xffffffffffffffff    	// #-1
        1fb4:	aa1303e0 	mov	x0, x19
        1fb8:	a94153f3 	ldp	x19, x20, [sp, #16]
        1fbc:	a8c27bfd 	ldp	x29, x30, [sp], #32
        1fc0:	d65f03c0 	ret
        1fc4:	a9bd7bfd 	stp	x29, x30, [sp, #-48]!
        1fc8:	910003fd 	mov	x29, sp
        1fcc:	a90153f3 	stp	x19, x20, [sp, #16]
        1fd0:	f90013f5 	str	x21, [sp, #32]
        1fd4:	aa0003f5 	mov	x21, x0
        1fd8:	aa0103f4 	mov	x20, x1
        1fdc:	f100045f 	cmp	x2, #0x1
        1fe0:	54000149 	b.ls	0x2008  // b.plast
        1fe4:	aa0203f3 	mov	x19, x2
        1fe8:	eb14027f 	cmp	x19, x20
        1fec:	54000120 	b.eq	0x2010  // b.none
        1ff0:	8b130aa0 	add	x0, x21, x19, lsl #2
        1ff4:	97fffeaa 	bl	0x1a9c
        1ff8:	72001c1f 	tst	w0, #0xff
        1ffc:	540000a1 	b.ne	0x2010  // b.any
        2000:	91000673 	add	x19, x19, #0x1
        2004:	17fffff9 	b	0x1fe8
        2008:	d2800053 	mov	x19, #0x2                   	// #2
        200c:	17fffff7 	b	0x1fe8
        2010:	eb14027f 	cmp	x19, x20
        2014:	540000c0 	b.eq	0x202c  // b.none
        2018:	aa1303e0 	mov	x0, x19
        201c:	a94153f3 	ldp	x19, x20, [sp, #16]
        2020:	f94013f5 	ldr	x21, [sp, #32]
        2024:	a8c37bfd 	ldp	x29, x30, [sp], #48
        2028:	d65f03c0 	ret
        202c:	92800013 	mov	x19, #0xffffffffffffffff    	// #-1
        2030:	17fffffa 	b	0x2018
        2034:	a9bd7bfd 	stp	x29, x30, [sp, #-48]!
        2038:	910003fd 	mov	x29, sp
        203c:	f9000ff4 	str	x20, [sp, #24]
        2040:	f100043f 	cmp	x1, #0x1
        2044:	540002e9 	b.ls	0x20a0  // b.plast
        2048:	f9000bb3 	str	x19, [x29, #16]
        204c:	f90013b5 	str	x21, [x29, #32]
        2050:	aa0003f5 	mov	x21, x0
        2054:	aa0103f3 	mov	x19, x1
        2058:	94000c3d 	bl	0x514c
        205c:	97fffe74 	bl	0x1a2c
        2060:	72001c1f 	tst	w0, #0xff
        2064:	54000280 	b.eq	0x20b4  // b.none
        2068:	d2800014 	mov	x20, #0x0                   	// #0
        206c:	91000694 	add	x20, x20, #0x1
        2070:	aa1303e1 	mov	x1, x19
        2074:	aa1503e0 	mov	x0, x21
        2078:	94000c35 	bl	0x514c
        207c:	97fffe82 	bl	0x1a84
        2080:	72001c1f 	tst	w0, #0xff
        2084:	54000201 	b.ne	0x20c4  // b.any
        2088:	aa1303e1 	mov	x1, x19
        208c:	aa1503e0 	mov	x0, x21
        2090:	94000c2f 	bl	0x514c
        2094:	97fffe86 	bl	0x1aac
        2098:	2a0003f3 	mov	w19, w0
        209c:	17fffff4 	b	0x206c
        20a0:	d2800014 	mov	x20, #0x0                   	// #0
        20a4:	aa1403e0 	mov	x0, x20
        20a8:	f9400ff4 	ldr	x20, [sp, #24]
        20ac:	a8c37bfd 	ldp	x29, x30, [sp], #48
        20b0:	d65f03c0 	ret
        20b4:	d2800014 	mov	x20, #0x0                   	// #0
        20b8:	f9400bb3 	ldr	x19, [x29, #16]
        20bc:	f94013b5 	ldr	x21, [x29, #32]
        20c0:	17fffff9 	b	0x20a4
        20c4:	f9400bb3 	ldr	x19, [x29, #16]
        20c8:	f94013b5 	ldr	x21, [x29, #32]
        20cc:	17fffff6 	b	0x20a4
        20d0:	a9b87bfd 	stp	x29, x30, [sp, #-128]!
        20d4:	910003fd 	mov	x29, sp
        20d8:	a90153f3 	stp	x19, x20, [sp, #16]
        20dc:	a9025bf5 	stp	x21, x22, [sp, #32]
        20e0:	a90363f7 	stp	x23, x24, [sp, #48]
        20e4:	a9046bf9 	stp	x25, x26, [sp, #64]
        20e8:	f9002bfb 	str	x27, [sp, #80]
        20ec:	aa0803fa 	mov	x26, x8
        20f0:	aa0003f9 	mov	x25, x0
        20f4:	aa0103f4 	mov	x20, x1
        20f8:	aa0203f5 	mov	x21, x2
        20fc:	aa0303f8 	mov	x24, x3
        2100:	97ffffcd 	bl	0x2034
        2104:	aa0003f7 	mov	x23, x0
        2108:	394036b6 	ldrb	w22, [x21, #13]
        210c:	7840b2a0 	ldurh	w0, [x21, #11]
        2110:	1b007ed6 	mul	w22, w22, w0
        2114:	93407ed6 	sxtw	x22, w22
        2118:	d345fed6 	lsr	x22, x22, #5
        211c:	9b167ee1 	mul	x1, x23, x22
        2120:	9101a3a0 	add	x0, x29, #0x68
        2124:	94000cfc 	bl	0x5514
        2128:	d2800013 	mov	x19, #0x0                   	// #0
        212c:	eb17027f 	cmp	x19, x23
        2130:	54000280 	b.eq	0x2180  // b.none
        2134:	aa1403e1 	mov	x1, x20
        2138:	aa1503e0 	mov	x0, x21
        213c:	97ffff04 	bl	0x1d4c
        2140:	aa0003fb 	mov	x27, x0
        2144:	9101a3a0 	add	x0, x29, #0x68
        2148:	94000c95 	bl	0x539c
        214c:	9b167e62 	mul	x2, x19, x22
        2150:	394036a3 	ldrb	w3, [x21, #13]
        2154:	8b021402 	add	x2, x0, x2, lsl #5
        2158:	aa1b03e1 	mov	x1, x27
        215c:	aa1803e0 	mov	x0, x24
        2160:	97fffac1 	bl	0xc64
        2164:	aa1403e1 	mov	x1, x20
        2168:	aa1903e0 	mov	x0, x25
        216c:	94000bf8 	bl	0x514c
        2170:	97fffe4f 	bl	0x1aac
        2174:	2a0003f4 	mov	w20, w0
        2178:	91000673 	add	x19, x19, #0x1
        217c:	17ffffec 	b	0x212c
        2180:	9101a3a1 	add	x1, x29, #0x68
        2184:	aa1a03e0 	mov	x0, x26
        2188:	94000c87 	bl	0x53a4
        218c:	9101a3a0 	add	x0, x29, #0x68
        2190:	94000c79 	bl	0x5374
        2194:	aa1a03e0 	mov	x0, x26
        2198:	a94153f3 	ldp	x19, x20, [sp, #16]
        219c:	a9425bf5 	ldp	x21, x22, [sp, #32]
        21a0:	a94363f7 	ldp	x23, x24, [sp, #48]
        21a4:	a9446bf9 	ldp	x25, x26, [sp, #64]
        21a8:	f9402bfb 	ldr	x27, [sp, #80]
        21ac:	a8c87bfd 	ldp	x29, x30, [sp], #128
        21b0:	d65f03c0 	ret
        21b4:	a9bb7bfd 	stp	x29, x30, [sp, #-80]!
        21b8:	910003fd 	mov	x29, sp
        21bc:	a90153f3 	stp	x19, x20, [sp, #16]
        21c0:	f90013f5 	str	x21, [sp, #32]
        21c4:	aa0803f5 	mov	x21, x8
        21c8:	aa0003f4 	mov	x20, x0
        21cc:	d2800001 	mov	x1, #0x0                   	// #0
        21d0:	9100e3a0 	add	x0, x29, #0x38
        21d4:	94000d14 	bl	0x5624
        21d8:	d2800013 	mov	x19, #0x0                   	// #0
        21dc:	14000002 	b	0x21e4
        21e0:	91000673 	add	x19, x19, #0x1
        21e4:	aa1403e0 	mov	x0, x20
        21e8:	94000c83 	bl	0x53f4
        21ec:	eb13001f 	cmp	x0, x19
        21f0:	54000260 	b.eq	0x223c  // b.none
        21f4:	aa1303e1 	mov	x1, x19
        21f8:	aa1403e0 	mov	x0, x20
        21fc:	94000c80 	bl	0x53fc
        2200:	9400001f 	bl	0x227c
        2204:	72001c1f 	tst	w0, #0xff
        2208:	54fffec1 	b.ne	0x21e0  // b.any
        220c:	aa1303e1 	mov	x1, x19
        2210:	aa1403e0 	mov	x0, x20
        2214:	94000c7a 	bl	0x53fc
        2218:	9400001e 	bl	0x2290
        221c:	72001c1f 	tst	w0, #0xff
        2220:	54fffe01 	b.ne	0x21e0  // b.any
        2224:	aa1403e0 	mov	x0, x20
        2228:	94000c78 	bl	0x5408
        222c:	8b131401 	add	x1, x0, x19, lsl #5
        2230:	9100e3a0 	add	x0, x29, #0x38
        2234:	94000d25 	bl	0x56c8
        2238:	17ffffea 	b	0x21e0
        223c:	9100e3a1 	add	x1, x29, #0x38
        2240:	aa1503e0 	mov	x0, x21
        2244:	94000c73 	bl	0x5410
        2248:	9100e3a0 	add	x0, x29, #0x38
        224c:	94000c60 	bl	0x53cc
        2250:	aa1503e0 	mov	x0, x21
        2254:	a94153f3 	ldp	x19, x20, [sp, #16]
        2258:	f94013f5 	ldr	x21, [sp, #32]
        225c:	a8c57bfd 	ldp	x29, x30, [sp], #80
        2260:	d65f03c0 	ret
        2264:	d2800160 	mov	x0, #0xb                   	// #11
        2268:	b4000060 	cbz	x0, 0x2274
        226c:	d1000400 	sub	x0, x0, #0x1
        2270:	17fffffe 	b	0x2268
        2274:	52800000 	mov	w0, #0x0                   	// #0
        2278:	d65f03c0 	ret
        227c:	39402c00 	ldrb	w0, [x0, #11]
        2280:	12001400 	and	w0, w0, #0x3f
        2284:	71003c1f 	cmp	w0, #0xf
        2288:	1a9f17e0 	cset	w0, eq  // eq = none
        228c:	d65f03c0 	ret
        2290:	39402c00 	ldrb	w0, [x0, #11]
        2294:	12001400 	and	w0, w0, #0x3f
        2298:	7100201f 	cmp	w0, #0x8
        229c:	1a9f17e0 	cset	w0, eq  // eq = none
        22a0:	d65f03c0 	ret
        22a4:	79402801 	ldrh	w1, [x0, #20]
        22a8:	79403400 	ldrh	w0, [x0, #26]
        22ac:	2a014000 	orr	w0, w0, w1, lsl #16
        22b0:	d65f03c0 	ret
        22b4:	d2800002 	mov	x2, #0x0                   	// #0
        22b8:	eb01005f 	cmp	x2, x1
        22bc:	540000e0 	b.eq	0x22d8  // b.none
        22c0:	38e26803 	ldrsb	w3, [x0, x2]
        22c4:	7100807f 	cmp	w3, #0x20
        22c8:	54000061 	b.ne	0x22d4  // b.any
        22cc:	91000442 	add	x2, x2, #0x1
        22d0:	17fffffa 	b	0x22b8
        22d4:	aa0203e1 	mov	x1, x2
        22d8:	aa0103e0 	mov	x0, x1
        22dc:	d65f03c0 	ret
        22e0:	aa0103e2 	mov	x2, x1
        22e4:	b40000c2 	cbz	x2, 0x22fc
        22e8:	d1000442 	sub	x2, x2, #0x1
        22ec:	38e26803 	ldrsb	w3, [x0, x2]
        22f0:	7100807f 	cmp	w3, #0x20
        22f4:	54ffff80 	b.eq	0x22e4  // b.none
        22f8:	aa0203e1 	mov	x1, x2
        22fc:	aa0103e0 	mov	x0, x1
        2300:	d65f03c0 	ret
        2304:	a9bc7bfd 	stp	x29, x30, [sp, #-64]!
        2308:	910003fd 	mov	x29, sp
        230c:	a90153f3 	stp	x19, x20, [sp, #16]
        2310:	a9025bf5 	stp	x21, x22, [sp, #32]
        2314:	a90363f7 	stp	x23, x24, [sp, #48]
        2318:	aa0003f7 	mov	x23, x0
        231c:	aa0103f6 	mov	x22, x1
        2320:	aa0203f8 	mov	x24, x2
        2324:	d2800013 	mov	x19, #0x0                   	// #0
        2328:	52800014 	mov	w20, #0x0                   	// #0
        232c:	1400000d 	b	0x2360
        2330:	350002f4 	cbnz	w20, 0x238c
        2334:	aa1303e1 	mov	x1, x19
        2338:	aa1803e0 	mov	x0, x24
        233c:	94000cf5 	bl	0x5710
        2340:	39c00015 	ldrsb	w21, [x0]
        2344:	aa1303e1 	mov	x1, x19
        2348:	aa1703e0 	mov	x0, x23
        234c:	94000cf1 	bl	0x5710
        2350:	39c00000 	ldrsb	w0, [x0]
        2354:	6b15001f 	cmp	w0, w21
        2358:	540002e1 	b.ne	0x23b4  // b.any
        235c:	91000673 	add	x19, x19, #0x1
        2360:	eb16027f 	cmp	x19, x22
        2364:	54000180 	b.eq	0x2394  // b.none
        2368:	35fffe54 	cbnz	w20, 0x2330
        236c:	aa1303e1 	mov	x1, x19
        2370:	aa1803e0 	mov	x0, x24
        2374:	94000ce7 	bl	0x5710
        2378:	39c00000 	ldrsb	w0, [x0]
        237c:	35fffda0 	cbnz	w0, 0x2330
        2380:	52800034 	mov	w20, #0x1                   	// #1
        2384:	52800415 	mov	w21, #0x20                  	// #32
        2388:	17ffffef 	b	0x2344
        238c:	52800415 	mov	w21, #0x20                  	// #32
        2390:	17ffffed 	b	0x2344
        2394:	35000134 	cbnz	w20, 0x23b8
        2398:	aa1303e1 	mov	x1, x19
        239c:	aa1803e0 	mov	x0, x24
        23a0:	94000cdc 	bl	0x5710
        23a4:	39c00000 	ldrsb	w0, [x0]
        23a8:	35000080 	cbnz	w0, 0x23b8
        23ac:	52800034 	mov	w20, #0x1                   	// #1
        23b0:	14000002 	b	0x23b8
        23b4:	52800014 	mov	w20, #0x0                   	// #0
        23b8:	2a1403e0 	mov	w0, w20
        23bc:	a94153f3 	ldp	x19, x20, [sp, #16]
        23c0:	a9425bf5 	ldp	x21, x22, [sp, #32]
        23c4:	a94363f7 	ldp	x23, x24, [sp, #48]
        23c8:	a8c47bfd 	ldp	x29, x30, [sp], #64
        23cc:	d65f03c0 	ret
        23d0:	a9bb7bfd 	stp	x29, x30, [sp, #-80]!
        23d4:	910003fd 	mov	x29, sp
        23d8:	a90153f3 	stp	x19, x20, [sp, #16]
        23dc:	f90013f5 	str	x21, [sp, #32]
        23e0:	aa0003f3 	mov	x19, x0
        23e4:	aa0103f4 	mov	x20, x1
        23e8:	aa0203f5 	mov	x21, x2
        23ec:	aa0003e1 	mov	x1, x0
        23f0:	9100c3a0 	add	x0, x29, #0x30
        23f4:	94000401 	bl	0x33f8
        23f8:	aa1403e2 	mov	x2, x20
        23fc:	d2800101 	mov	x1, #0x8                   	// #8
        2400:	9100c3a0 	add	x0, x29, #0x30
        2404:	97ffffc0 	bl	0x2304
        2408:	72001c00 	ands	w0, w0, #0xff
        240c:	540000a1 	b.ne	0x2420  // b.any
        2410:	a94153f3 	ldp	x19, x20, [sp, #16]
        2414:	f94013f5 	ldr	x21, [sp, #32]
        2418:	a8c57bfd 	ldp	x29, x30, [sp], #80
        241c:	d65f03c0 	ret
        2420:	91002261 	add	x1, x19, #0x8
        2424:	910103a0 	add	x0, x29, #0x40
        2428:	940003f4 	bl	0x33f8
        242c:	aa1503e2 	mov	x2, x21
        2430:	d2800061 	mov	x1, #0x3                   	// #3
        2434:	910103a0 	add	x0, x29, #0x40
        2438:	97ffffb3 	bl	0x2304
        243c:	12001c00 	and	w0, w0, #0xff
        2440:	17fffff4 	b	0x2410
        2444:	a9b87bfd 	stp	x29, x30, [sp, #-128]!
        2448:	910003fd 	mov	x29, sp
        244c:	a90153f3 	stp	x19, x20, [sp, #16]
        2450:	f90013f5 	str	x21, [sp, #32]
        2454:	aa0803f4 	mov	x20, x8
        2458:	aa0003f3 	mov	x19, x0
        245c:	d2800001 	mov	x1, #0x0                   	// #0
        2460:	9100e3a0 	add	x0, x29, #0x38
        2464:	9400039b 	bl	0x32d0
        2468:	d1008275 	sub	x21, x19, #0x20
        246c:	aa1503e0 	mov	x0, x21
        2470:	97ffff83 	bl	0x227c
        2474:	72001c1f 	tst	w0, #0xff
        2478:	54000161 	b.ne	0x24a4  // b.any
        247c:	9100e3a1 	add	x1, x29, #0x38
        2480:	aa1403e0 	mov	x0, x20
        2484:	9400038e 	bl	0x32bc
        2488:	9100e3a0 	add	x0, x29, #0x38
        248c:	94000ae8 	bl	0x502c
        2490:	aa1403e0 	mov	x0, x20
        2494:	a94153f3 	ldp	x19, x20, [sp, #16]
        2498:	f94013f5 	ldr	x21, [sp, #32]
        249c:	a8c87bfd 	ldp	x29, x30, [sp], #128
        24a0:	d65f03c0 	ret
        24a4:	910143a8 	add	x8, x29, #0x50
        24a8:	52800021 	mov	w1, #0x1                   	// #1
        24ac:	aa1503e0 	mov	x0, x21
        24b0:	9400030b 	bl	0x30dc
        24b4:	92800002 	mov	x2, #0xffffffffffffffff    	// #-1
        24b8:	910143a1 	add	x1, x29, #0x50
        24bc:	9100e3a0 	add	x0, x29, #0x38
        24c0:	94000cea 	bl	0x5868
        24c4:	910143a0 	add	x0, x29, #0x50
        24c8:	94000ad9 	bl	0x502c
        24cc:	d1010273 	sub	x19, x19, #0x40
        24d0:	aa1303e0 	mov	x0, x19
        24d4:	940001fc 	bl	0x2cc4
        24d8:	72001c1f 	tst	w0, #0xff
        24dc:	54fffd00 	b.eq	0x247c  // b.none
        24e0:	9101a3a8 	add	x8, x29, #0x68
        24e4:	52800001 	mov	w1, #0x0                   	// #0
        24e8:	aa1303e0 	mov	x0, x19
        24ec:	940002fc 	bl	0x30dc
        24f0:	92800002 	mov	x2, #0xffffffffffffffff    	// #-1
        24f4:	9101a3a1 	add	x1, x29, #0x68
        24f8:	9100e3a0 	add	x0, x29, #0x38
        24fc:	94000cdb 	bl	0x5868
        2500:	9101a3a0 	add	x0, x29, #0x68
        2504:	94000aca 	bl	0x502c
        2508:	d1008273 	sub	x19, x19, #0x20
        250c:	17fffff1 	b	0x24d0
        2510:	a9bb7bfd 	stp	x29, x30, [sp, #-80]!
        2514:	910003fd 	mov	x29, sp
        2518:	a90153f3 	stp	x19, x20, [sp, #16]
        251c:	a9025bf5 	stp	x21, x22, [sp, #32]
        2520:	aa0803f6 	mov	x22, x8
        2524:	aa0003f4 	mov	x20, x0
        2528:	d2800001 	mov	x1, #0x0                   	// #0
        252c:	9100e3a0 	add	x0, x29, #0x38
        2530:	94000368 	bl	0x32d0
        2534:	d2800101 	mov	x1, #0x8                   	// #8
        2538:	aa1403e0 	mov	x0, x20
        253c:	97ffff5e 	bl	0x22b4
        2540:	aa0003f3 	mov	x19, x0
        2544:	d2800101 	mov	x1, #0x8                   	// #8
        2548:	aa1403e0 	mov	x0, x20
        254c:	97ffff65 	bl	0x22e0
        2550:	aa0003f5 	mov	x21, x0
        2554:	eb15027f 	cmp	x19, x21
        2558:	540000c8 	b.hi	0x2570  // b.pmore
        255c:	38736a81 	ldrb	w1, [x20, x19]
        2560:	9100e3a0 	add	x0, x29, #0x38
        2564:	94000cb1 	bl	0x5828
        2568:	91000673 	add	x19, x19, #0x1
        256c:	17fffffa 	b	0x2554
        2570:	528005c1 	mov	w1, #0x2e                  	// #46
        2574:	9100e3a0 	add	x0, x29, #0x38
        2578:	94000cac 	bl	0x5828
        257c:	91002295 	add	x21, x20, #0x8
        2580:	d2800061 	mov	x1, #0x3                   	// #3
        2584:	aa1503e0 	mov	x0, x21
        2588:	97ffff4b 	bl	0x22b4
        258c:	91002013 	add	x19, x0, #0x8
        2590:	d2800061 	mov	x1, #0x3                   	// #3
        2594:	aa1503e0 	mov	x0, x21
        2598:	97ffff52 	bl	0x22e0
        259c:	91002015 	add	x21, x0, #0x8
        25a0:	eb15027f 	cmp	x19, x21
        25a4:	540000c8 	b.hi	0x25bc  // b.pmore
        25a8:	38736a81 	ldrb	w1, [x20, x19]
        25ac:	9100e3a0 	add	x0, x29, #0x38
        25b0:	94000c9e 	bl	0x5828
        25b4:	91000673 	add	x19, x19, #0x1
        25b8:	17fffffa 	b	0x25a0
        25bc:	9100e3a1 	add	x1, x29, #0x38
        25c0:	aa1603e0 	mov	x0, x22
        25c4:	9400033e 	bl	0x32bc
        25c8:	9100e3a0 	add	x0, x29, #0x38
        25cc:	94000a98 	bl	0x502c
        25d0:	aa1603e0 	mov	x0, x22
        25d4:	a94153f3 	ldp	x19, x20, [sp, #16]
        25d8:	a9425bf5 	ldp	x21, x22, [sp, #32]
        25dc:	a8c57bfd 	ldp	x29, x30, [sp], #80
        25e0:	d65f03c0 	ret
        25e4:	a9be7bfd 	stp	x29, x30, [sp, #-32]!
        25e8:	910003fd 	mov	x29, sp
        25ec:	a90153f3 	stp	x19, x20, [sp, #16]
        25f0:	aa0003f3 	mov	x19, x0
        25f4:	aa0103f4 	mov	x20, x1
        25f8:	f900081f 	str	xzr, [x0, #16]
        25fc:	d2800400 	mov	x0, #0x20                  	// #32
        2600:	97fff91e 	bl	0xa78
        2604:	a9400e82 	ldp	x2, x3, [x20]
        2608:	a9000c02 	stp	x2, x3, [x0]
        260c:	a9410e82 	ldp	x2, x3, [x20, #16]
        2610:	a9010c02 	stp	x2, x3, [x0, #16]
        2614:	f9000260 	str	x0, [x19]
        2618:	90000000 	adrp	x0, 0x2000
        261c:	91268000 	add	x0, x0, #0x9a0
        2620:	f9000e60 	str	x0, [x19, #24]
        2624:	90000000 	adrp	x0, 0x2000
        2628:	911a5000 	add	x0, x0, #0x694
        262c:	f9000a60 	str	x0, [x19, #16]
        2630:	a94153f3 	ldp	x19, x20, [sp, #16]
        2634:	a8c27bfd 	ldp	x29, x30, [sp], #32
        2638:	d65f03c0 	ret
        263c:	a9be7bfd 	stp	x29, x30, [sp, #-32]!
        2640:	910003fd 	mov	x29, sp
        2644:	a90153f3 	stp	x19, x20, [sp, #16]
        2648:	aa0003f3 	mov	x19, x0
        264c:	aa0103f4 	mov	x20, x1
        2650:	f900081f 	str	xzr, [x0, #16]
        2654:	d2800400 	mov	x0, #0x20                  	// #32
        2658:	97fff908 	bl	0xa78
        265c:	a9400e82 	ldp	x2, x3, [x20]
        2660:	a9000c02 	stp	x2, x3, [x0]
        2664:	a9410e82 	ldp	x2, x3, [x20, #16]
        2668:	a9010c02 	stp	x2, x3, [x0, #16]
        266c:	f9000260 	str	x0, [x19]
        2670:	90000000 	adrp	x0, 0x2000
        2674:	91302000 	add	x0, x0, #0xc08
        2678:	f9000e60 	str	x0, [x19, #24]
        267c:	90000000 	adrp	x0, 0x2000
        2680:	911c5000 	add	x0, x0, #0x714
        2684:	f9000a60 	str	x0, [x19, #16]
        2688:	a94153f3 	ldp	x19, x20, [sp, #16]
        268c:	a8c27bfd 	ldp	x29, x30, [sp], #32
        2690:	d65f03c0 	ret
        2694:	a9be7bfd 	stp	x29, x30, [sp, #-32]!
        2698:	910003fd 	mov	x29, sp
        269c:	f9000bf3 	str	x19, [sp, #16]
        26a0:	aa0003f3 	mov	x19, x0
        26a4:	7100085f 	cmp	w2, #0x2
        26a8:	54000180 	b.eq	0x26d8  // b.none
        26ac:	71000c5f 	cmp	w2, #0x3
        26b0:	540002a0 	b.eq	0x2704  // b.none
        26b4:	7100045f 	cmp	w2, #0x1
        26b8:	540000a0 	b.eq	0x26cc  // b.none
        26bc:	52800000 	mov	w0, #0x0                   	// #0
        26c0:	f9400bf3 	ldr	x19, [sp, #16]
        26c4:	a8c27bfd 	ldp	x29, x30, [sp], #32
        26c8:	d65f03c0 	ret
        26cc:	f9400020 	ldr	x0, [x1]
        26d0:	f9000260 	str	x0, [x19]
        26d4:	17fffffa 	b	0x26bc
        26d8:	f9000fb4 	str	x20, [x29, #24]
        26dc:	f9400034 	ldr	x20, [x1]
        26e0:	d2800400 	mov	x0, #0x20                  	// #32
        26e4:	97fff8e5 	bl	0xa78
        26e8:	a9400e82 	ldp	x2, x3, [x20]
        26ec:	a9000c02 	stp	x2, x3, [x0]
        26f0:	a9410e82 	ldp	x2, x3, [x20, #16]
        26f4:	a9010c02 	stp	x2, x3, [x0, #16]
        26f8:	f9000260 	str	x0, [x19]
        26fc:	f9400fb4 	ldr	x20, [x29, #24]
        2700:	17ffffef 	b	0x26bc
        2704:	d2800401 	mov	x1, #0x20                  	// #32
        2708:	f9400000 	ldr	x0, [x0]
        270c:	97fff8d3 	bl	0xa58
        2710:	17ffffeb 	b	0x26bc
        2714:	a9be7bfd 	stp	x29, x30, [sp, #-32]!
        2718:	910003fd 	mov	x29, sp
        271c:	f9000bf3 	str	x19, [sp, #16]
        2720:	aa0003f3 	mov	x19, x0
        2724:	7100085f 	cmp	w2, #0x2
        2728:	54000180 	b.eq	0x2758  // b.none
        272c:	71000c5f 	cmp	w2, #0x3
        2730:	540002a0 	b.eq	0x2784  // b.none
        2734:	7100045f 	cmp	w2, #0x1
        2738:	540000a0 	b.eq	0x274c  // b.none
        273c:	52800000 	mov	w0, #0x0                   	// #0
        2740:	f9400bf3 	ldr	x19, [sp, #16]
        2744:	a8c27bfd 	ldp	x29, x30, [sp], #32
        2748:	d65f03c0 	ret
        274c:	f9400020 	ldr	x0, [x1]
        2750:	f9000260 	str	x0, [x19]
        2754:	17fffffa 	b	0x273c
        2758:	f9000fb4 	str	x20, [x29, #24]
        275c:	f9400034 	ldr	x20, [x1]
        2760:	d2800400 	mov	x0, #0x20                  	// #32
        2764:	97fff8c5 	bl	0xa78
        2768:	a9400e82 	ldp	x2, x3, [x20]
        276c:	a9000c02 	stp	x2, x3, [x0]
        2770:	a9410e82 	ldp	x2, x3, [x20, #16]
        2774:	a9010c02 	stp	x2, x3, [x0, #16]
        2778:	f9000260 	str	x0, [x19]
        277c:	f9400fb4 	ldr	x20, [x29, #24]
        2780:	17ffffef 	b	0x273c
        2784:	d2800401 	mov	x1, #0x20                  	// #32
        2788:	f9400000 	ldr	x0, [x0]
        278c:	97fff8b3 	bl	0xa58
        2790:	17ffffeb 	b	0x273c
        2794:	a9bd7bfd 	stp	x29, x30, [sp, #-48]!
        2798:	910003fd 	mov	x29, sp
        279c:	a90153f3 	stp	x19, x20, [sp, #16]
        27a0:	a9025bf5 	stp	x21, x22, [sp, #32]
        27a4:	aa0003f4 	mov	x20, x0
        27a8:	aa0103f6 	mov	x22, x1
        27ac:	aa0203f5 	mov	x21, x2
        27b0:	d2800013 	mov	x19, #0x0                   	// #0
        27b4:	14000002 	b	0x27bc
        27b8:	91000673 	add	x19, x19, #0x1
        27bc:	aa1403e0 	mov	x0, x20
        27c0:	94000b0d 	bl	0x53f4
        27c4:	eb13001f 	cmp	x0, x19
        27c8:	54000200 	b.eq	0x2808  // b.none
        27cc:	aa1303e1 	mov	x1, x19
        27d0:	aa1403e0 	mov	x0, x20
        27d4:	94000b0a 	bl	0x53fc
        27d8:	97fffea9 	bl	0x227c
        27dc:	72001c1f 	tst	w0, #0xff
        27e0:	54fffec1 	b.ne	0x27b8  // b.any
        27e4:	aa1303e1 	mov	x1, x19
        27e8:	aa1403e0 	mov	x0, x20
        27ec:	94000b04 	bl	0x53fc
        27f0:	aa1503e2 	mov	x2, x21
        27f4:	aa1603e1 	mov	x1, x22
        27f8:	97fffef6 	bl	0x23d0
        27fc:	72001c1f 	tst	w0, #0xff
        2800:	54fffdc0 	b.eq	0x27b8  // b.none
        2804:	14000002 	b	0x280c
        2808:	92800013 	mov	x19, #0xffffffffffffffff    	// #-1
        280c:	aa1303e0 	mov	x0, x19
        2810:	a94153f3 	ldp	x19, x20, [sp, #16]
        2814:	a9425bf5 	ldp	x21, x22, [sp, #32]
        2818:	a8c37bfd 	ldp	x29, x30, [sp], #48
        281c:	d65f03c0 	ret
        2820:	a9bc7bfd 	stp	x29, x30, [sp, #-64]!
        2824:	910003fd 	mov	x29, sp
        2828:	a90153f3 	stp	x19, x20, [sp, #16]
        282c:	a9025bf5 	stp	x21, x22, [sp, #32]
        2830:	f9001bf7 	str	x23, [sp, #48]
        2834:	aa0003f5 	mov	x21, x0
        2838:	aa0103f7 	mov	x23, x1
        283c:	d2800013 	mov	x19, #0x0                   	// #0
        2840:	14000014 	b	0x2890
        2844:	aa1503e0 	mov	x0, x21
        2848:	94000aeb 	bl	0x53f4
        284c:	eb13001f 	cmp	x0, x19
        2850:	54000400 	b.eq	0x28d0  // b.none
        2854:	aa1503e0 	mov	x0, x21
        2858:	94000aec 	bl	0x5408
        285c:	8b131416 	add	x22, x0, x19, lsl #5
        2860:	aa1603e0 	mov	x0, x22
        2864:	9400011d 	bl	0x2cd8
        2868:	aa0003f4 	mov	x20, x0
        286c:	52800003 	mov	w3, #0x0                   	// #0
        2870:	aa1703e2 	mov	x2, x23
        2874:	aa1603e1 	mov	x1, x22
        2878:	940001e7 	bl	0x3014
        287c:	72001c1f 	tst	w0, #0xff
        2880:	54000201 	b.ne	0x28c0  // b.any
        2884:	cb160294 	sub	x20, x20, x22
        2888:	8b941673 	add	x19, x19, x20, asr #5
        288c:	91000673 	add	x19, x19, #0x1
        2890:	aa1503e0 	mov	x0, x21
        2894:	94000ad8 	bl	0x53f4
        2898:	eb13001f 	cmp	x0, x19
        289c:	54fffd40 	b.eq	0x2844  // b.none
        28a0:	aa1303e1 	mov	x1, x19
        28a4:	aa1503e0 	mov	x0, x21
        28a8:	94000ad5 	bl	0x53fc
        28ac:	97fffe74 	bl	0x227c
        28b0:	72001c1f 	tst	w0, #0xff
        28b4:	54fffc81 	b.ne	0x2844  // b.any
        28b8:	91000673 	add	x19, x19, #0x1
        28bc:	17fffff5 	b	0x2890
        28c0:	cb160280 	sub	x0, x20, x22
        28c4:	8b801660 	add	x0, x19, x0, asr #5
        28c8:	91000400 	add	x0, x0, #0x1
        28cc:	14000002 	b	0x28d4
        28d0:	92800000 	mov	x0, #0xffffffffffffffff    	// #-1
        28d4:	a94153f3 	ldp	x19, x20, [sp, #16]
        28d8:	a9425bf5 	ldp	x21, x22, [sp, #32]
        28dc:	f9401bf7 	ldr	x23, [sp, #48]
        28e0:	a8c47bfd 	ldp	x29, x30, [sp], #64
        28e4:	d65f03c0 	ret
        28e8:	a9b67bfd 	stp	x29, x30, [sp, #-160]!
        28ec:	910003fd 	mov	x29, sp
        28f0:	a90153f3 	stp	x19, x20, [sp, #16]
        28f4:	a9025bf5 	stp	x21, x22, [sp, #32]
        28f8:	f9001bf7 	str	x23, [sp, #48]
        28fc:	aa0003f4 	mov	x20, x0
        2900:	aa0103f6 	mov	x22, x1
        2904:	aa0203f5 	mov	x21, x2
        2908:	2a0303f7 	mov	w23, w3
        290c:	aa0403f3 	mov	x19, x4
        2910:	d2800001 	mov	x1, #0x0                   	// #0
        2914:	94000b00 	bl	0x5514
        2918:	f9000e96 	str	x22, [x20, #24]
        291c:	f9001293 	str	x19, [x20, #32]
        2920:	f9001695 	str	x21, [x20, #40]
        2924:	39403660 	ldrb	w0, [x19, #13]
        2928:	7840b261 	ldurh	w1, [x19, #11]
        292c:	1b017c00 	mul	w0, w0, w1
        2930:	93407c00 	sxtw	x0, w0
        2934:	d345fc00 	lsr	x0, x0, #5
        2938:	f90043b4 	str	x20, [x29, #128]
        293c:	f90047b6 	str	x22, [x29, #136]
        2940:	f9004ba0 	str	x0, [x29, #144]
        2944:	f9004fb3 	str	x19, [x29, #152]
        2948:	a94807a0 	ldp	x0, x1, [x29, #128]
        294c:	a90407a0 	stp	x0, x1, [x29, #64]
        2950:	a94907a0 	ldp	x0, x1, [x29, #144]
        2954:	a90507a0 	stp	x0, x1, [x29, #80]
        2958:	910103a1 	add	x1, x29, #0x40
        295c:	910183a0 	add	x0, x29, #0x60
        2960:	97ffff21 	bl	0x25e4
        2964:	2a1703e2 	mov	w2, w23
        2968:	910183a1 	add	x1, x29, #0x60
        296c:	aa1503e0 	mov	x0, x21
        2970:	97fffc6e 	bl	0x1b28
        2974:	f9403ba3 	ldr	x3, [x29, #112]
        2978:	b40000a3 	cbz	x3, 0x298c
        297c:	52800062 	mov	w2, #0x3                   	// #3
        2980:	910183a1 	add	x1, x29, #0x60
        2984:	aa0103e0 	mov	x0, x1
        2988:	d63f0060 	blr	x3
        298c:	a94153f3 	ldp	x19, x20, [sp, #16]
        2990:	a9425bf5 	ldp	x21, x22, [sp, #32]
        2994:	f9401bf7 	ldr	x23, [sp, #48]
        2998:	a8ca7bfd 	ldp	x29, x30, [sp], #160
        299c:	d65f03c0 	ret
        29a0:	a9bb7bfd 	stp	x29, x30, [sp, #-80]!
        29a4:	910003fd 	mov	x29, sp
        29a8:	a90153f3 	stp	x19, x20, [sp, #16]
        29ac:	a9025bf5 	stp	x21, x22, [sp, #32]
        29b0:	f9400013 	ldr	x19, [x0]
        29b4:	b9400021 	ldr	w1, [x1]
        29b8:	910143a0 	add	x0, x29, #0x50
        29bc:	b81e0c01 	str	w1, [x0, #-32]!
        29c0:	f9400274 	ldr	x20, [x19]
        29c4:	f9400675 	ldr	x21, [x19, #8]
        29c8:	f9400e76 	ldr	x22, [x19, #24]
        29cc:	97fffc38 	bl	0x1aac
        29d0:	2a0003e1 	mov	w1, w0
        29d4:	aa1603e0 	mov	x0, x22
        29d8:	97fffcdd 	bl	0x1d4c
        29dc:	f9400e61 	ldr	x1, [x19, #24]
        29e0:	7840b021 	ldurh	w1, [x1, #11]
        29e4:	9100e3a8 	add	x8, x29, #0x38
        29e8:	f9400a62 	ldr	x2, [x19, #16]
        29ec:	9b017c01 	mul	x1, x0, x1
        29f0:	aa1503e0 	mov	x0, x21
        29f4:	94000bc4 	bl	0x5904
        29f8:	92800002 	mov	x2, #0xffffffffffffffff    	// #-1
        29fc:	9100e3a1 	add	x1, x29, #0x38
        2a00:	aa1403e0 	mov	x0, x20
        2a04:	94000c7e 	bl	0x5bfc
        2a08:	9100e3a0 	add	x0, x29, #0x38
        2a0c:	94000a5a 	bl	0x5374
        2a10:	a94153f3 	ldp	x19, x20, [sp, #16]
        2a14:	a9425bf5 	ldp	x21, x22, [sp, #32]
        2a18:	a8c57bfd 	ldp	x29, x30, [sp], #80
        2a1c:	d65f03c0 	ret
        2a20:	a9af7bfd 	stp	x29, x30, [sp, #-272]!
        2a24:	910003fd 	mov	x29, sp
        2a28:	a90153f3 	stp	x19, x20, [sp, #16]
        2a2c:	a9025bf5 	stp	x21, x22, [sp, #32]
        2a30:	f9001bf7 	str	x23, [sp, #48]
        2a34:	aa0803f4 	mov	x20, x8
        2a38:	aa0003f3 	mov	x19, x0
        2a3c:	aa0203f6 	mov	x22, x2
        2a40:	aa0303f7 	mov	x23, x3
        2a44:	97ffff77 	bl	0x2820
        2a48:	aa0003f5 	mov	x21, x0
        2a4c:	d2800001 	mov	x1, #0x0                   	// #0
        2a50:	910383a0 	add	x0, x29, #0xe0
        2a54:	94000bed 	bl	0x5a08
        2a58:	aa1303e0 	mov	x0, x19
        2a5c:	94000a66 	bl	0x53f4
        2a60:	eb15001f 	cmp	x0, x21
        2a64:	54000188 	b.hi	0x2a94  // b.pmore
        2a68:	910383a1 	add	x1, x29, #0xe0
        2a6c:	aa1403e0 	mov	x0, x20
        2a70:	94000b99 	bl	0x58d4
        2a74:	910383a0 	add	x0, x29, #0xe0
        2a78:	9400096d 	bl	0x502c
        2a7c:	aa1403e0 	mov	x0, x20
        2a80:	a94153f3 	ldp	x19, x20, [sp, #16]
        2a84:	a9425bf5 	ldp	x21, x22, [sp, #32]
        2a88:	f9401bf7 	ldr	x23, [sp, #48]
        2a8c:	a8d17bfd 	ldp	x29, x30, [sp], #272
        2a90:	d65f03c0 	ret
        2a94:	aa1503e1 	mov	x1, x21
        2a98:	aa1303e0 	mov	x0, x19
        2a9c:	94000b8b 	bl	0x58c8
        2aa0:	a9400c02 	ldp	x2, x3, [x0]
        2aa4:	a9080fa2 	stp	x2, x3, [x29, #128]
        2aa8:	a9410400 	ldp	x0, x1, [x0, #16]
        2aac:	a90907a0 	stp	x0, x1, [x29, #144]
        2ab0:	910203a0 	add	x0, x29, #0x80
        2ab4:	97fffdfc 	bl	0x22a4
        2ab8:	2a0003e1 	mov	w1, w0
        2abc:	9101c3a0 	add	x0, x29, #0x70
        2ac0:	97fffbd5 	bl	0x1a14
        2ac4:	aa1603e2 	mov	x2, x22
        2ac8:	b94073a1 	ldr	w1, [x29, #112]
        2acc:	f9401660 	ldr	x0, [x19, #40]
        2ad0:	97fffc31 	bl	0x1b94
        2ad4:	b90073a0 	str	w0, [x29, #112]
        2ad8:	9101c3a0 	add	x0, x29, #0x70
        2adc:	97fffbea 	bl	0x1a84
        2ae0:	72001c1f 	tst	w0, #0xff
        2ae4:	54fffc21 	b.ne	0x2a68  // b.any
        2ae8:	f9401260 	ldr	x0, [x19, #32]
        2aec:	97fffcc5 	bl	0x1e00
        2af0:	9ac00ac1 	udiv	x1, x22, x0
        2af4:	9b00d835 	msub	x21, x1, x0, x22
        2af8:	b10006ff 	cmn	x23, #0x1
        2afc:	540007c0 	b.eq	0x2bf4  // b.none
        2b00:	8b1602f6 	add	x22, x23, x22
        2b04:	b9409fa0 	ldr	w0, [x29, #156]
        2b08:	eb0002df 	cmp	x22, x0
        2b0c:	54fffae8 	b.hi	0x2a68  // b.pmore
        2b10:	a903e7b8 	stp	x24, x25, [x29, #56]
        2b14:	f9401260 	ldr	x0, [x19, #32]
        2b18:	97fffcba 	bl	0x1e00
        2b1c:	aa0003f6 	mov	x22, x0
        2b20:	f9400e78 	ldr	x24, [x19, #24]
        2b24:	f9401279 	ldr	x25, [x19, #32]
        2b28:	9101c3a0 	add	x0, x29, #0x70
        2b2c:	97fffbe0 	bl	0x1aac
        2b30:	2a0003e1 	mov	w1, w0
        2b34:	aa1903e0 	mov	x0, x25
        2b38:	97fffc85 	bl	0x1d4c
        2b3c:	f9401261 	ldr	x1, [x19, #32]
        2b40:	7840b021 	ldurh	w1, [x1, #11]
        2b44:	9103e3a8 	add	x8, x29, #0xf8
        2b48:	cb1502c2 	sub	x2, x22, x21
        2b4c:	9b015401 	madd	x1, x0, x1, x21
        2b50:	aa1803e0 	mov	x0, x24
        2b54:	94000bbf 	bl	0x5a50
        2b58:	910383b8 	add	x24, x29, #0xe0
        2b5c:	92800002 	mov	x2, #0xffffffffffffffff    	// #-1
        2b60:	9103e3a1 	add	x1, x29, #0xf8
        2b64:	aa1803e0 	mov	x0, x24
        2b68:	94000b40 	bl	0x5868
        2b6c:	9103e3a0 	add	x0, x29, #0xf8
        2b70:	9400092f 	bl	0x502c
        2b74:	cb1602a0 	sub	x0, x21, x22
        2b78:	8b170017 	add	x23, x0, x23
        2b7c:	f9003fb7 	str	x23, [x29, #120]
        2b80:	b94073a1 	ldr	w1, [x29, #112]
        2b84:	f9401660 	ldr	x0, [x19, #40]
        2b88:	97fffbda 	bl	0x1af0
        2b8c:	b90073a0 	str	w0, [x29, #112]
        2b90:	f9401675 	ldr	x21, [x19, #40]
        2b94:	f90063b3 	str	x19, [x29, #192]
        2b98:	f90067b8 	str	x24, [x29, #200]
        2b9c:	9101e3a0 	add	x0, x29, #0x78
        2ba0:	f9006ba0 	str	x0, [x29, #208]
        2ba4:	f9006fb6 	str	x22, [x29, #216]
        2ba8:	a94c07a0 	ldp	x0, x1, [x29, #192]
        2bac:	a90507a0 	stp	x0, x1, [x29, #80]
        2bb0:	a94d07a0 	ldp	x0, x1, [x29, #208]
        2bb4:	a90607a0 	stp	x0, x1, [x29, #96]
        2bb8:	910143a1 	add	x1, x29, #0x50
        2bbc:	910283a0 	add	x0, x29, #0xa0
        2bc0:	97fffe9f 	bl	0x263c
        2bc4:	b94073a2 	ldr	w2, [x29, #112]
        2bc8:	910283a1 	add	x1, x29, #0xa0
        2bcc:	aa1503e0 	mov	x0, x21
        2bd0:	97fffbd6 	bl	0x1b28
        2bd4:	f9405ba3 	ldr	x3, [x29, #176]
        2bd8:	b4000143 	cbz	x3, 0x2c00
        2bdc:	52800062 	mov	w2, #0x3                   	// #3
        2be0:	910283a1 	add	x1, x29, #0xa0
        2be4:	aa0103e0 	mov	x0, x1
        2be8:	d63f0060 	blr	x3
        2bec:	a943e7b8 	ldp	x24, x25, [x29, #56]
        2bf0:	17ffff9e 	b	0x2a68
        2bf4:	b9409fb7 	ldr	w23, [x29, #156]
        2bf8:	cb1602f7 	sub	x23, x23, x22
        2bfc:	17ffffc1 	b	0x2b00
        2c00:	a943e7b8 	ldp	x24, x25, [x29, #56]
        2c04:	17ffff99 	b	0x2a68
        2c08:	a9ba7bfd 	stp	x29, x30, [sp, #-96]!
        2c0c:	910003fd 	mov	x29, sp
        2c10:	f9000bf3 	str	x19, [sp, #16]
        2c14:	f9400013 	ldr	x19, [x0]
        2c18:	b9400020 	ldr	w0, [x1]
        2c1c:	b90043a0 	str	w0, [x29, #64]
        2c20:	f9400a60 	ldr	x0, [x19, #16]
        2c24:	f9400000 	ldr	x0, [x0]
        2c28:	b4000480 	cbz	x0, 0x2cb8
        2c2c:	a901d7b4 	stp	x20, x21, [x29, #24]
        2c30:	a902dfb6 	stp	x22, x23, [x29, #40]
        2c34:	f9400e74 	ldr	x20, [x19, #24]
        2c38:	eb14001f 	cmp	x0, x20
        2c3c:	54000048 	b.hi	0x2c44  // b.pmore
        2c40:	aa0003f4 	mov	x20, x0
        2c44:	f9400675 	ldr	x21, [x19, #8]
        2c48:	f9400260 	ldr	x0, [x19]
        2c4c:	f9400c16 	ldr	x22, [x0, #24]
        2c50:	f9401017 	ldr	x23, [x0, #32]
        2c54:	910103a0 	add	x0, x29, #0x40
        2c58:	97fffb95 	bl	0x1aac
        2c5c:	2a0003e1 	mov	w1, w0
        2c60:	aa1703e0 	mov	x0, x23
        2c64:	97fffc3a 	bl	0x1d4c
        2c68:	f9400261 	ldr	x1, [x19]
        2c6c:	f9401021 	ldr	x1, [x1, #32]
        2c70:	7840b021 	ldurh	w1, [x1, #11]
        2c74:	910123a8 	add	x8, x29, #0x48
        2c78:	aa1403e2 	mov	x2, x20
        2c7c:	9b017c01 	mul	x1, x0, x1
        2c80:	aa1603e0 	mov	x0, x22
        2c84:	94000b73 	bl	0x5a50
        2c88:	92800002 	mov	x2, #0xffffffffffffffff    	// #-1
        2c8c:	910123a1 	add	x1, x29, #0x48
        2c90:	aa1503e0 	mov	x0, x21
        2c94:	94000af5 	bl	0x5868
        2c98:	910123a0 	add	x0, x29, #0x48
        2c9c:	940008e4 	bl	0x502c
        2ca0:	f9400a61 	ldr	x1, [x19, #16]
        2ca4:	f9400020 	ldr	x0, [x1]
        2ca8:	cb140014 	sub	x20, x0, x20
        2cac:	f9000034 	str	x20, [x1]
        2cb0:	a941d7b4 	ldp	x20, x21, [x29, #24]
        2cb4:	a942dfb6 	ldp	x22, x23, [x29, #40]
        2cb8:	f9400bf3 	ldr	x19, [sp, #16]
        2cbc:	a8c67bfd 	ldp	x29, x30, [sp], #96
        2cc0:	d65f03c0 	ret
        2cc4:	39402c00 	ldrb	w0, [x0, #11]
        2cc8:	12001400 	and	w0, w0, #0x3f
        2ccc:	71003c1f 	cmp	w0, #0xf
        2cd0:	1a9f17e0 	cset	w0, eq  // eq = none
        2cd4:	d65f03c0 	ret
        2cd8:	a9be7bfd 	stp	x29, x30, [sp, #-32]!
        2cdc:	910003fd 	mov	x29, sp
        2ce0:	a90153f3 	stp	x19, x20, [sp, #16]
        2ce4:	aa0003f4 	mov	x20, x0
        2ce8:	14000002 	b	0x2cf0
        2cec:	aa1303f4 	mov	x20, x19
        2cf0:	91008293 	add	x19, x20, #0x20
        2cf4:	aa1303e0 	mov	x0, x19
        2cf8:	97fffff3 	bl	0x2cc4
        2cfc:	72001c1f 	tst	w0, #0xff
        2d00:	54ffff61 	b.ne	0x2cec  // b.any
        2d04:	aa1403e0 	mov	x0, x20
        2d08:	a94153f3 	ldp	x19, x20, [sp, #16]
        2d0c:	a8c27bfd 	ldp	x29, x30, [sp], #32
        2d10:	d65f03c0 	ret
        2d14:	a9bf7bfd 	stp	x29, x30, [sp, #-16]!
        2d18:	910003fd 	mov	x29, sp
        2d1c:	97ffffef 	bl	0x2cd8
        2d20:	91008000 	add	x0, x0, #0x20
        2d24:	a8c17bfd 	ldp	x29, x30, [sp], #16
        2d28:	d65f03c0 	ret
        2d2c:	a9bf7bfd 	stp	x29, x30, [sp, #-16]!
        2d30:	910003fd 	mov	x29, sp
        2d34:	97ffffe9 	bl	0x2cd8
        2d38:	a8c17bfd 	ldp	x29, x30, [sp], #16
        2d3c:	d65f03c0 	ret
        2d40:	a9bf7bfd 	stp	x29, x30, [sp, #-16]!
        2d44:	910003fd 	mov	x29, sp
        2d48:	97fffff3 	bl	0x2d14
        2d4c:	a8c17bfd 	ldp	x29, x30, [sp], #16
        2d50:	d65f03c0 	ret
        2d54:	39400000 	ldrb	w0, [x0]
        2d58:	d65f03c0 	ret
        2d5c:	a9be7bfd 	stp	x29, x30, [sp, #-32]!
        2d60:	910003fd 	mov	x29, sp
        2d64:	a90153f3 	stp	x19, x20, [sp, #16]
        2d68:	aa0003f4 	mov	x20, x0
        2d6c:	d2800013 	mov	x19, #0x0                   	// #0
        2d70:	f1002a7f 	cmp	x19, #0xa
        2d74:	54000100 	b.eq	0x2d94  // b.none
        2d78:	91000680 	add	x0, x20, #0x1
        2d7c:	8b130000 	add	x0, x0, x19
        2d80:	97fffff5 	bl	0x2d54
        2d84:	13001c00 	sxtb	w0, w0
        2d88:	34000380 	cbz	w0, 0x2df8
        2d8c:	91000a73 	add	x19, x19, #0x2
        2d90:	17fffff8 	b	0x2d70
        2d94:	d2800013 	mov	x19, #0x0                   	// #0
        2d98:	f100327f 	cmp	x19, #0xc
        2d9c:	54000140 	b.eq	0x2dc4  // b.none
        2da0:	91003a80 	add	x0, x20, #0xe
        2da4:	8b130000 	add	x0, x0, x19
        2da8:	97ffffeb 	bl	0x2d54
        2dac:	13001c00 	sxtb	w0, w0
        2db0:	34000060 	cbz	w0, 0x2dbc
        2db4:	91000a73 	add	x19, x19, #0x2
        2db8:	17fffff8 	b	0x2d98
        2dbc:	91002a73 	add	x19, x19, #0xa
        2dc0:	1400000e 	b	0x2df8
        2dc4:	d2800013 	mov	x19, #0x0                   	// #0
        2dc8:	f100127f 	cmp	x19, #0x4
        2dcc:	54000140 	b.eq	0x2df4  // b.none
        2dd0:	91007280 	add	x0, x20, #0x1c
        2dd4:	8b130000 	add	x0, x0, x19
        2dd8:	97ffffdf 	bl	0x2d54
        2ddc:	13001c00 	sxtb	w0, w0
        2de0:	34000060 	cbz	w0, 0x2dec
        2de4:	91000a73 	add	x19, x19, #0x2
        2de8:	17fffff8 	b	0x2dc8
        2dec:	91005a73 	add	x19, x19, #0x16
        2df0:	14000002 	b	0x2df8
        2df4:	92800013 	mov	x19, #0xffffffffffffffff    	// #-1
        2df8:	aa1303e0 	mov	x0, x19
        2dfc:	a94153f3 	ldp	x19, x20, [sp, #16]
        2e00:	a8c27bfd 	ldp	x29, x30, [sp], #32
        2e04:	d65f03c0 	ret
        2e08:	a9bc7bfd 	stp	x29, x30, [sp, #-64]!
        2e0c:	910003fd 	mov	x29, sp
        2e10:	a90153f3 	stp	x19, x20, [sp, #16]
        2e14:	a9025bf5 	stp	x21, x22, [sp, #32]
        2e18:	a90363f7 	stp	x23, x24, [sp, #48]
        2e1c:	aa0003f7 	mov	x23, x0
        2e20:	aa0103f6 	mov	x22, x1
        2e24:	aa0203f5 	mov	x21, x2
        2e28:	12001c78 	and	w24, w3, #0xff
        2e2c:	d2800013 	mov	x19, #0x0                   	// #0
        2e30:	eb16027f 	cmp	x19, x22
        2e34:	540001a0 	b.eq	0x2e68  // b.none
        2e38:	8b1302e0 	add	x0, x23, x19
        2e3c:	97ffffc6 	bl	0x2d54
        2e40:	13001c14 	sxtb	w20, w0
        2e44:	d341fe61 	lsr	x1, x19, #1
        2e48:	aa1503e0 	mov	x0, x21
        2e4c:	94000a31 	bl	0x5710
        2e50:	39c00000 	ldrsb	w0, [x0]
        2e54:	6b00029f 	cmp	w20, w0
        2e58:	54000161 	b.ne	0x2e84  // b.any
        2e5c:	34000220 	cbz	w0, 0x2ea0
        2e60:	91000a73 	add	x19, x19, #0x2
        2e64:	17fffff3 	b	0x2e30
        2e68:	d341fe61 	lsr	x1, x19, #1
        2e6c:	aa1503e0 	mov	x0, x21
        2e70:	94000a28 	bl	0x5710
        2e74:	39c00000 	ldrsb	w0, [x0]
        2e78:	35000080 	cbnz	w0, 0x2e88
        2e7c:	52800038 	mov	w24, #0x1                   	// #1
        2e80:	14000002 	b	0x2e88
        2e84:	52800018 	mov	w24, #0x0                   	// #0
        2e88:	2a1803e0 	mov	w0, w24
        2e8c:	a94153f3 	ldp	x19, x20, [sp, #16]
        2e90:	a9425bf5 	ldp	x21, x22, [sp, #32]
        2e94:	a94363f7 	ldp	x23, x24, [sp, #48]
        2e98:	a8c47bfd 	ldp	x29, x30, [sp], #64
        2e9c:	d65f03c0 	ret
        2ea0:	52800038 	mov	w24, #0x1                   	// #1
        2ea4:	17fffff9 	b	0x2e88
        2ea8:	a9ba7bfd 	stp	x29, x30, [sp, #-96]!
        2eac:	910003fd 	mov	x29, sp
        2eb0:	a90153f3 	stp	x19, x20, [sp, #16]
        2eb4:	f90013f5 	str	x21, [sp, #32]
        2eb8:	aa0003f3 	mov	x19, x0
        2ebc:	aa0103f4 	mov	x20, x1
        2ec0:	12001c55 	and	w21, w2, #0xff
        2ec4:	97ffffa6 	bl	0x2d5c
        2ec8:	f100241f 	cmp	x0, #0x9
        2ecc:	540000a9 	b.ls	0x2ee0  // b.plast
        2ed0:	f100541f 	cmp	x0, #0x15
        2ed4:	54000188 	b.hi	0x2f04  // b.pmore
        2ed8:	52800040 	mov	w0, #0x2                   	// #2
        2edc:	14000002 	b	0x2ee4
        2ee0:	52800020 	mov	w0, #0x1                   	// #1
        2ee4:	7100081f 	cmp	w0, #0x2
        2ee8:	54000260 	b.eq	0x2f34  // b.none
        2eec:	71000c1f 	cmp	w0, #0x3
        2ef0:	540004c0 	b.eq	0x2f88  // b.none
        2ef4:	7100041f 	cmp	w0, #0x1
        2ef8:	540000a0 	b.eq	0x2f0c  // b.none
        2efc:	52800000 	mov	w0, #0x0                   	// #0
        2f00:	14000009 	b	0x2f24
        2f04:	52800060 	mov	w0, #0x3                   	// #3
        2f08:	17fffff7 	b	0x2ee4
        2f0c:	2a1503e3 	mov	w3, w21
        2f10:	aa1403e2 	mov	x2, x20
        2f14:	d2800141 	mov	x1, #0xa                   	// #10
        2f18:	91000660 	add	x0, x19, #0x1
        2f1c:	97ffffbb 	bl	0x2e08
        2f20:	12001c00 	and	w0, w0, #0xff
        2f24:	a94153f3 	ldp	x19, x20, [sp, #16]
        2f28:	f94013f5 	ldr	x21, [sp, #32]
        2f2c:	a8c67bfd 	ldp	x29, x30, [sp], #96
        2f30:	d65f03c0 	ret
        2f34:	52800023 	mov	w3, #0x1                   	// #1
        2f38:	aa1403e2 	mov	x2, x20
        2f3c:	d2800141 	mov	x1, #0xa                   	// #10
        2f40:	91000660 	add	x0, x19, #0x1
        2f44:	97ffffb1 	bl	0x2e08
        2f48:	72001c00 	ands	w0, w0, #0xff
        2f4c:	54fffec0 	b.eq	0x2f24  // b.none
        2f50:	aa1403e0 	mov	x0, x20
        2f54:	94000b46 	bl	0x5c6c
        2f58:	d28000a1 	mov	x1, #0x5                   	// #5
        2f5c:	9400055b 	bl	0x44c8
        2f60:	aa0003e1 	mov	x1, x0
        2f64:	9100c3a0 	add	x0, x29, #0x30
        2f68:	94000124 	bl	0x33f8
        2f6c:	2a1503e3 	mov	w3, w21
        2f70:	9100c3a2 	add	x2, x29, #0x30
        2f74:	d2800181 	mov	x1, #0xc                   	// #12
        2f78:	91003a60 	add	x0, x19, #0xe
        2f7c:	97ffffa3 	bl	0x2e08
        2f80:	12001c00 	and	w0, w0, #0xff
        2f84:	17ffffe8 	b	0x2f24
        2f88:	52800023 	mov	w3, #0x1                   	// #1
        2f8c:	aa1403e2 	mov	x2, x20
        2f90:	d2800141 	mov	x1, #0xa                   	// #10
        2f94:	91000660 	add	x0, x19, #0x1
        2f98:	97ffff9c 	bl	0x2e08
        2f9c:	72001c00 	ands	w0, w0, #0xff
        2fa0:	54fffc20 	b.eq	0x2f24  // b.none
        2fa4:	aa1403e0 	mov	x0, x20
        2fa8:	94000b31 	bl	0x5c6c
        2fac:	d28000a1 	mov	x1, #0x5                   	// #5
        2fb0:	94000546 	bl	0x44c8
        2fb4:	aa0003e1 	mov	x1, x0
        2fb8:	910103a0 	add	x0, x29, #0x40
        2fbc:	9400010f 	bl	0x33f8
        2fc0:	52800023 	mov	w3, #0x1                   	// #1
        2fc4:	910103a2 	add	x2, x29, #0x40
        2fc8:	d2800181 	mov	x1, #0xc                   	// #12
        2fcc:	91003a60 	add	x0, x19, #0xe
        2fd0:	97ffff8e 	bl	0x2e08
        2fd4:	72001c00 	ands	w0, w0, #0xff
        2fd8:	54fffa60 	b.eq	0x2f24  // b.none
        2fdc:	aa1403e0 	mov	x0, x20
        2fe0:	94000b23 	bl	0x5c6c
        2fe4:	d2800161 	mov	x1, #0xb                   	// #11
        2fe8:	94000538 	bl	0x44c8
        2fec:	aa0003e1 	mov	x1, x0
        2ff0:	910143a0 	add	x0, x29, #0x50
        2ff4:	94000101 	bl	0x33f8
        2ff8:	2a1503e3 	mov	w3, w21
        2ffc:	910143a2 	add	x2, x29, #0x50
        3000:	d2800081 	mov	x1, #0x4                   	// #4
        3004:	91007260 	add	x0, x19, #0x1c
        3008:	97ffff80 	bl	0x2e08
        300c:	12001c00 	and	w0, w0, #0xff
        3010:	17ffffc5 	b	0x2f24
        3014:	a9bc7bfd 	stp	x29, x30, [sp, #-64]!
        3018:	910003fd 	mov	x29, sp
        301c:	a90153f3 	stp	x19, x20, [sp, #16]
        3020:	f90013f5 	str	x21, [sp, #32]
        3024:	aa0003f3 	mov	x19, x0
        3028:	aa0103f4 	mov	x20, x1
        302c:	12001c75 	and	w21, w3, #0xff
        3030:	a9400440 	ldp	x0, x1, [x2]
        3034:	a90307a0 	stp	x0, x1, [x29, #48]
        3038:	14000008 	b	0x3058
        303c:	d0000001 	adrp	x1, 0x5000
        3040:	9137c021 	add	x1, x1, #0xdf0
        3044:	9100c3a0 	add	x0, x29, #0x30
        3048:	94000b0d 	bl	0x5c7c
        304c:	d2800001 	mov	x1, #0x0                   	// #0
        3050:	9100c3a0 	add	x0, x29, #0x30
        3054:	94000b0c 	bl	0x5c84
        3058:	eb14027f 	cmp	x19, x20
        305c:	540002e0 	b.eq	0x30b8  // b.none
        3060:	52800022 	mov	w2, #0x1                   	// #1
        3064:	9100c3a1 	add	x1, x29, #0x30
        3068:	aa1303e0 	mov	x0, x19
        306c:	97ffff8f 	bl	0x2ea8
        3070:	72001c00 	ands	w0, w0, #0xff
        3074:	540002c0 	b.eq	0x30cc  // b.none
        3078:	d1008273 	sub	x19, x19, #0x20
        307c:	9100c3a0 	add	x0, x29, #0x30
        3080:	94000afd 	bl	0x5c74
        3084:	f100341f 	cmp	x0, #0xd
        3088:	54fffda9 	b.ls	0x303c  // b.plast
        308c:	9100c3a0 	add	x0, x29, #0x30
        3090:	94000af7 	bl	0x5c6c
        3094:	91003401 	add	x1, x0, #0xd
        3098:	9100c3a0 	add	x0, x29, #0x30
        309c:	94000af8 	bl	0x5c7c
        30a0:	9100c3a0 	add	x0, x29, #0x30
        30a4:	94000af4 	bl	0x5c74
        30a8:	d1003401 	sub	x1, x0, #0xd
        30ac:	9100c3a0 	add	x0, x29, #0x30
        30b0:	94000af5 	bl	0x5c84
        30b4:	17ffffe9 	b	0x3058
        30b8:	2a1503e2 	mov	w2, w21
        30bc:	9100c3a1 	add	x1, x29, #0x30
        30c0:	aa1303e0 	mov	x0, x19
        30c4:	97ffff79 	bl	0x2ea8
        30c8:	12001c00 	and	w0, w0, #0xff
        30cc:	a94153f3 	ldp	x19, x20, [sp, #16]
        30d0:	f94013f5 	ldr	x21, [sp, #32]
        30d4:	a8c47bfd 	ldp	x29, x30, [sp], #64
        30d8:	d65f03c0 	ret
        30dc:	a9bb7bfd 	stp	x29, x30, [sp, #-80]!
        30e0:	910003fd 	mov	x29, sp
        30e4:	a90153f3 	stp	x19, x20, [sp, #16]
        30e8:	a9025bf5 	stp	x21, x22, [sp, #32]
        30ec:	aa0803f6 	mov	x22, x8
        30f0:	aa0003f5 	mov	x21, x0
        30f4:	12001c33 	and	w19, w1, #0xff
        30f8:	d2800001 	mov	x1, #0x0                   	// #0
        30fc:	9100e3a0 	add	x0, x29, #0x38
        3100:	94000074 	bl	0x32d0
        3104:	34000193 	cbz	w19, 0x3134
        3108:	d2800013 	mov	x19, #0x0                   	// #0
        310c:	f100267f 	cmp	x19, #0x9
        3110:	54000148 	b.hi	0x3138  // b.pmore
        3114:	910006a0 	add	x0, x21, #0x1
        3118:	8b130000 	add	x0, x0, x19
        311c:	97ffff0e 	bl	0x2d54
        3120:	13001c00 	sxtb	w0, w0
        3124:	7100801f 	cmp	w0, #0x20
        3128:	54000081 	b.ne	0x3138  // b.any
        312c:	91000a73 	add	x19, x19, #0x2
        3130:	17fffff7 	b	0x310c
        3134:	d2800013 	mov	x19, #0x0                   	// #0
        3138:	52800014 	mov	w20, #0x0                   	// #0
        313c:	f1002a7f 	cmp	x19, #0xa
        3140:	54000160 	b.eq	0x316c  // b.none
        3144:	910006a0 	add	x0, x21, #0x1
        3148:	8b130000 	add	x0, x0, x19
        314c:	97ffff02 	bl	0x2d54
        3150:	13001c14 	sxtb	w20, w0
        3154:	340000d4 	cbz	w20, 0x316c
        3158:	2a0003e1 	mov	w1, w0
        315c:	9100e3a0 	add	x0, x29, #0x38
        3160:	940009b2 	bl	0x5828
        3164:	91000a73 	add	x19, x19, #0x2
        3168:	17fffff5 	b	0x313c
        316c:	350001f4 	cbnz	w20, 0x31a8
        3170:	34000374 	cbz	w20, 0x31dc
        3174:	d2800013 	mov	x19, #0x0                   	// #0
        3178:	f100127f 	cmp	x19, #0x4
        317c:	54000300 	b.eq	0x31dc  // b.none
        3180:	910072a0 	add	x0, x21, #0x1c
        3184:	8b130000 	add	x0, x0, x19
        3188:	97fffef3 	bl	0x2d54
        318c:	13001c01 	sxtb	w1, w0
        3190:	34000261 	cbz	w1, 0x31dc
        3194:	2a0003e1 	mov	w1, w0
        3198:	9100e3a0 	add	x0, x29, #0x38
        319c:	940009a3 	bl	0x5828
        31a0:	91000a73 	add	x19, x19, #0x2
        31a4:	17fffff5 	b	0x3178
        31a8:	d2800013 	mov	x19, #0x0                   	// #0
        31ac:	f100327f 	cmp	x19, #0xc
        31b0:	54fffe00 	b.eq	0x3170  // b.none
        31b4:	91003aa0 	add	x0, x21, #0xe
        31b8:	8b130000 	add	x0, x0, x19
        31bc:	97fffee6 	bl	0x2d54
        31c0:	13001c14 	sxtb	w20, w0
        31c4:	34fffd74 	cbz	w20, 0x3170
        31c8:	2a0003e1 	mov	w1, w0
        31cc:	9100e3a0 	add	x0, x29, #0x38
        31d0:	94000996 	bl	0x5828
        31d4:	91000a73 	add	x19, x19, #0x2
        31d8:	17fffff5 	b	0x31ac
        31dc:	9100e3a1 	add	x1, x29, #0x38
        31e0:	aa1603e0 	mov	x0, x22
        31e4:	94000036 	bl	0x32bc
        31e8:	9100e3a0 	add	x0, x29, #0x38
        31ec:	94000790 	bl	0x502c
        31f0:	aa1603e0 	mov	x0, x22
        31f4:	a94153f3 	ldp	x19, x20, [sp, #16]
        31f8:	a9425bf5 	ldp	x21, x22, [sp, #32]
        31fc:	a8c57bfd 	ldp	x29, x30, [sp], #80
        3200:	d65f03c0 	ret
        3204:	78411001 	ldurh	w1, [x0, #17]
        3208:	7840b002 	ldurh	w2, [x0, #11]
        320c:	51000440 	sub	w0, w2, #0x1
        3210:	0b011400 	add	w0, w0, w1, lsl #5
        3214:	1ac20c00 	sdiv	w0, w0, w2
        3218:	93407c00 	sxtw	x0, w0
        321c:	d65f03c0 	ret
        3220:	52800060 	mov	w0, #0x3                   	// #3
        3224:	d65f03c0 	ret
        3228:	a9be7bfd 	stp	x29, x30, [sp, #-32]!
        322c:	910003fd 	mov	x29, sp
        3230:	a90153f3 	stp	x19, x20, [sp, #16]
        3234:	aa0003f3 	mov	x19, x0
        3238:	d2800014 	mov	x20, #0x0                   	// #0
        323c:	39c00260 	ldrsb	w0, [x19]
        3240:	340000a0 	cbz	w0, 0x3254
        3244:	91000673 	add	x19, x19, #0x1
        3248:	94000374 	bl	0x4018
        324c:	8b000294 	add	x20, x20, x0
        3250:	17fffffb 	b	0x323c
        3254:	aa1403e0 	mov	x0, x20
        3258:	a94153f3 	ldp	x19, x20, [sp, #16]
        325c:	a8c27bfd 	ldp	x29, x30, [sp], #32
        3260:	d65f03c0 	ret
        3264:	a9bd7bfd 	stp	x29, x30, [sp, #-48]!
        3268:	910003fd 	mov	x29, sp
        326c:	f9000bf3 	str	x19, [sp, #16]
        3270:	b4000181 	cbz	x1, 0x32a0
        3274:	a901d7b4 	stp	x20, x21, [x29, #24]
        3278:	d2800013 	mov	x19, #0x0                   	// #0
        327c:	d1000434 	sub	x20, x1, #0x1
        3280:	b4000141 	cbz	x1, 0x32a8
        3284:	91000415 	add	x21, x0, #0x1
        3288:	39400000 	ldrb	w0, [x0]
        328c:	94000363 	bl	0x4018
        3290:	8b000273 	add	x19, x19, x0
        3294:	aa1403e1 	mov	x1, x20
        3298:	aa1503e0 	mov	x0, x21
        329c:	17fffff8 	b	0x327c
        32a0:	aa0103f3 	mov	x19, x1
        32a4:	14000002 	b	0x32ac
        32a8:	a941d7b4 	ldp	x20, x21, [x29, #24]
        32ac:	aa1303e0 	mov	x0, x19
        32b0:	f9400bf3 	ldr	x19, [sp, #16]
        32b4:	a8c37bfd 	ldp	x29, x30, [sp], #48
        32b8:	d65f03c0 	ret
        32bc:	a9bf7bfd 	stp	x29, x30, [sp, #-16]!
        32c0:	910003fd 	mov	x29, sp
        32c4:	94000984 	bl	0x58d4
        32c8:	a8c17bfd 	ldp	x29, x30, [sp], #16
        32cc:	d65f03c0 	ret
        32d0:	a9bf7bfd 	stp	x29, x30, [sp, #-16]!
        32d4:	910003fd 	mov	x29, sp
        32d8:	940009cc 	bl	0x5a08
        32dc:	a8c17bfd 	ldp	x29, x30, [sp], #16
        32e0:	d65f03c0 	ret
        32e4:	a9bc7bfd 	stp	x29, x30, [sp, #-64]!
        32e8:	910003fd 	mov	x29, sp
        32ec:	a901d7f4 	stp	x20, x21, [sp, #24]
        32f0:	f9001bf7 	str	x23, [sp, #48]
        32f4:	aa0003f7 	mov	x23, x0
        32f8:	aa0103f5 	mov	x21, x1
        32fc:	aa0103e0 	mov	x0, x1
        3300:	97fff5ce 	bl	0xa38
        3304:	aa0003f4 	mov	x20, x0
        3308:	aa0003e1 	mov	x1, x0
        330c:	aa1703e0 	mov	x0, x23
        3310:	94000a5f 	bl	0x5c8c
        3314:	72001c1f 	tst	w0, #0xff
        3318:	540001e0 	b.eq	0x3354  // b.none
        331c:	f9000bb3 	str	x19, [x29, #16]
        3320:	f90017b6 	str	x22, [x29, #40]
        3324:	aa1703f6 	mov	x22, x23
        3328:	d2800013 	mov	x19, #0x0                   	// #0
        332c:	eb14027f 	cmp	x19, x20
        3330:	540000e0 	b.eq	0x334c  // b.none
        3334:	aa1603e0 	mov	x0, x22
        3338:	94000971 	bl	0x58fc
        333c:	38f36aa1 	ldrsb	w1, [x21, x19]
        3340:	38336801 	strb	w1, [x0, x19]
        3344:	91000673 	add	x19, x19, #0x1
        3348:	17fffff9 	b	0x332c
        334c:	f9400bb3 	ldr	x19, [x29, #16]
        3350:	f94017b6 	ldr	x22, [x29, #40]
        3354:	aa1703e0 	mov	x0, x23
        3358:	a941d7f4 	ldp	x20, x21, [sp, #24]
        335c:	f9401bf7 	ldr	x23, [sp, #48]
        3360:	a8c47bfd 	ldp	x29, x30, [sp], #64
        3364:	d65f03c0 	ret
        3368:	a9be7bfd 	stp	x29, x30, [sp, #-32]!
        336c:	910003fd 	mov	x29, sp
        3370:	a90153f3 	stp	x19, x20, [sp, #16]
        3374:	aa0103f3 	mov	x19, x1
        3378:	aa0003f4 	mov	x20, x0
        337c:	d2800001 	mov	x1, #0x0                   	// #0
        3380:	940009a2 	bl	0x5a08
        3384:	39c00261 	ldrsb	w1, [x19]
        3388:	340000a1 	cbz	w1, 0x339c
        338c:	91000673 	add	x19, x19, #0x1
        3390:	aa1403e0 	mov	x0, x20
        3394:	94000925 	bl	0x5828
        3398:	17fffffb 	b	0x3384
        339c:	a94153f3 	ldp	x19, x20, [sp, #16]
        33a0:	a8c27bfd 	ldp	x29, x30, [sp], #32
        33a4:	d65f03c0 	ret
        33a8:	a9bd7bfd 	stp	x29, x30, [sp, #-48]!
        33ac:	910003fd 	mov	x29, sp
        33b0:	a90153f3 	stp	x19, x20, [sp, #16]
        33b4:	f90013f5 	str	x21, [sp, #32]
        33b8:	aa0003f5 	mov	x21, x0
        33bc:	aa0103f3 	mov	x19, x1
        33c0:	aa0203f4 	mov	x20, x2
        33c4:	39c00261 	ldrsb	w1, [x19]
        33c8:	340000e1 	cbz	w1, 0x33e4
        33cc:	b40000d4 	cbz	x20, 0x33e4
        33d0:	91000673 	add	x19, x19, #0x1
        33d4:	aa1503e0 	mov	x0, x21
        33d8:	94000914 	bl	0x5828
        33dc:	d1000694 	sub	x20, x20, #0x1
        33e0:	17fffff9 	b	0x33c4
        33e4:	aa1503e0 	mov	x0, x21
        33e8:	a94153f3 	ldp	x19, x20, [sp, #16]
        33ec:	f94013f5 	ldr	x21, [sp, #32]
        33f0:	a8c37bfd 	ldp	x29, x30, [sp], #48
        33f4:	d65f03c0 	ret
        33f8:	a9be7bfd 	stp	x29, x30, [sp, #-32]!
        33fc:	910003fd 	mov	x29, sp
        3400:	a90153f3 	stp	x19, x20, [sp, #16]
        3404:	aa0003f4 	mov	x20, x0
        3408:	aa0103f3 	mov	x19, x1
        340c:	aa0103e0 	mov	x0, x1
        3410:	97fff58a 	bl	0xa38
        3414:	aa0003e2 	mov	x2, x0
        3418:	aa1303e1 	mov	x1, x19
        341c:	aa1403e0 	mov	x0, x20
        3420:	94000a38 	bl	0x5d00
        3424:	a94153f3 	ldp	x19, x20, [sp, #16]
        3428:	a8c27bfd 	ldp	x29, x30, [sp], #32
        342c:	d65f03c0 	ret
        3430:	a9bf7bfd 	stp	x29, x30, [sp, #-16]!
        3434:	910003fd 	mov	x29, sp
        3438:	94000a32 	bl	0x5d00
        343c:	a8c17bfd 	ldp	x29, x30, [sp], #16
        3440:	d65f03c0 	ret
        3444:	a9bd7bfd 	stp	x29, x30, [sp, #-48]!
        3448:	910003fd 	mov	x29, sp
        344c:	a90153f3 	stp	x19, x20, [sp, #16]
        3450:	f90013f5 	str	x21, [sp, #32]
        3454:	aa0003f4 	mov	x20, x0
        3458:	aa0103f3 	mov	x19, x1
        345c:	aa0103e0 	mov	x0, x1
        3460:	94000a2b 	bl	0x5d0c
        3464:	aa0003f5 	mov	x21, x0
        3468:	aa1303e0 	mov	x0, x19
        346c:	940006fa 	bl	0x5054
        3470:	aa0003e2 	mov	x2, x0
        3474:	aa1503e1 	mov	x1, x21
        3478:	aa1403e0 	mov	x0, x20
        347c:	94000a21 	bl	0x5d00
        3480:	a94153f3 	ldp	x19, x20, [sp, #16]
        3484:	f94013f5 	ldr	x21, [sp, #32]
        3488:	a8c37bfd 	ldp	x29, x30, [sp], #48
        348c:	d65f03c0 	ret
        3490:	a9bc7bfd 	stp	x29, x30, [sp, #-64]!
        3494:	910003fd 	mov	x29, sp
        3498:	a90153f3 	stp	x19, x20, [sp, #16]
        349c:	f90013f5 	str	x21, [sp, #32]
        34a0:	aa0003f4 	mov	x20, x0
        34a4:	910103b3 	add	x19, x29, #0x40
        34a8:	a9bf0a61 	stp	x1, x2, [x19, #-16]!
        34ac:	aa1303e0 	mov	x0, x19
        34b0:	940009ef 	bl	0x5c6c
        34b4:	aa0003f5 	mov	x21, x0
        34b8:	aa1303e0 	mov	x0, x19
        34bc:	940009ee 	bl	0x5c74
        34c0:	aa0003e2 	mov	x2, x0
        34c4:	aa1503e1 	mov	x1, x21
        34c8:	aa1403e0 	mov	x0, x20
        34cc:	94000434 	bl	0x459c
        34d0:	aa1403e0 	mov	x0, x20
        34d4:	a94153f3 	ldp	x19, x20, [sp, #16]
        34d8:	f94013f5 	ldr	x21, [sp, #32]
        34dc:	a8c47bfd 	ldp	x29, x30, [sp], #64
        34e0:	d65f03c0 	ret
        34e4:	a9bf07e0 	stp	x0, x1, [sp, #-16]!
        34e8:	a9bf0fe2 	stp	x2, x3, [sp, #-16]!
        34ec:	a9bf17e4 	stp	x4, x5, [sp, #-16]!
        34f0:	a9bf1fe6 	stp	x6, x7, [sp, #-16]!
        34f4:	a9bf27e8 	stp	x8, x9, [sp, #-16]!
        34f8:	a9bf2fea 	stp	x10, x11, [sp, #-16]!
        34fc:	a9bf37ec 	stp	x12, x13, [sp, #-16]!
        3500:	a9bf3fee 	stp	x14, x15, [sp, #-16]!
        3504:	a9bf47f0 	stp	x16, x17, [sp, #-16]!
        3508:	a9bf4ff2 	stp	x18, x19, [sp, #-16]!
        350c:	a9bf57f4 	stp	x20, x21, [sp, #-16]!
        3510:	a9bf5ff6 	stp	x22, x23, [sp, #-16]!
        3514:	a9bf67f8 	stp	x24, x25, [sp, #-16]!
        3518:	a9bf6ffa 	stp	x26, x27, [sp, #-16]!
        351c:	a9bf77fc 	stp	x28, x29, [sp, #-16]!
        3520:	d2800000 	mov	x0, #0x0                   	// #0
        3524:	d5385201 	mrs	x1, esr_el1
        3528:	d5384022 	mrs	x2, elr_el1
        352c:	d5384003 	mrs	x3, spsr_el1
        3530:	d5386004 	mrs	x4, far_el1
        3534:	940001a9 	bl	0x3bd8
        3538:	a8c177fc 	ldp	x28, x29, [sp], #16
        353c:	a8c16ffa 	ldp	x26, x27, [sp], #16
        3540:	a8c167f8 	ldp	x24, x25, [sp], #16
        3544:	a8c15ff6 	ldp	x22, x23, [sp], #16
        3548:	a8c157f4 	ldp	x20, x21, [sp], #16
        354c:	a8c14ff2 	ldp	x18, x19, [sp], #16
        3550:	a8c147f0 	ldp	x16, x17, [sp], #16
        3554:	a8c13fee 	ldp	x14, x15, [sp], #16
        3558:	a8c137ec 	ldp	x12, x13, [sp], #16
        355c:	a8c12fea 	ldp	x10, x11, [sp], #16
        3560:	a8c127e8 	ldp	x8, x9, [sp], #16
        3564:	a8c11fe6 	ldp	x6, x7, [sp], #16
        3568:	a8c117e4 	ldp	x4, x5, [sp], #16
        356c:	a8c10fe2 	ldp	x2, x3, [sp], #16
        3570:	a8c107e0 	ldp	x0, x1, [sp], #16
        3574:	d69f03e0 	eret
        3578:	d65f03c0 	ret
        357c:	a9bf07e0 	stp	x0, x1, [sp, #-16]!
        3580:	a9bf0fe2 	stp	x2, x3, [sp, #-16]!
        3584:	a9bf17e4 	stp	x4, x5, [sp, #-16]!
        3588:	a9bf1fe6 	stp	x6, x7, [sp, #-16]!
        358c:	a9bf27e8 	stp	x8, x9, [sp, #-16]!
        3590:	a9bf2fea 	stp	x10, x11, [sp, #-16]!
        3594:	a9bf37ec 	stp	x12, x13, [sp, #-16]!
        3598:	a9bf3fee 	stp	x14, x15, [sp, #-16]!
        359c:	a9bf47f0 	stp	x16, x17, [sp, #-16]!
        35a0:	a9bf4ff2 	stp	x18, x19, [sp, #-16]!
        35a4:	a9bf57f4 	stp	x20, x21, [sp, #-16]!
        35a8:	a9bf5ff6 	stp	x22, x23, [sp, #-16]!
        35ac:	a9bf67f8 	stp	x24, x25, [sp, #-16]!
        35b0:	a9bf6ffa 	stp	x26, x27, [sp, #-16]!
        35b4:	a9bf77fc 	stp	x28, x29, [sp, #-16]!
        35b8:	940000a1 	bl	0x383c
        35bc:	a8c177fc 	ldp	x28, x29, [sp], #16
        35c0:	a8c16ffa 	ldp	x26, x27, [sp], #16
        35c4:	a8c167f8 	ldp	x24, x25, [sp], #16
        35c8:	a8c15ff6 	ldp	x22, x23, [sp], #16
        35cc:	a8c157f4 	ldp	x20, x21, [sp], #16
        35d0:	a8c14ff2 	ldp	x18, x19, [sp], #16
        35d4:	a8c147f0 	ldp	x16, x17, [sp], #16
        35d8:	a8c13fee 	ldp	x14, x15, [sp], #16
        35dc:	a8c137ec 	ldp	x12, x13, [sp], #16
        35e0:	a8c12fea 	ldp	x10, x11, [sp], #16
        35e4:	a8c127e8 	ldp	x8, x9, [sp], #16
        35e8:	a8c11fe6 	ldp	x6, x7, [sp], #16
        35ec:	a8c117e4 	ldp	x4, x5, [sp], #16
        35f0:	a8c10fe2 	ldp	x2, x3, [sp], #16
        35f4:	a8c107e0 	ldp	x0, x1, [sp], #16
        35f8:	d69f03e0 	eret
        35fc:	d65f03c0 	ret
        3600:	a9bf07e0 	stp	x0, x1, [sp, #-16]!
        3604:	a9bf0fe2 	stp	x2, x3, [sp, #-16]!
        3608:	a9bf17e4 	stp	x4, x5, [sp, #-16]!
        360c:	a9bf1fe6 	stp	x6, x7, [sp, #-16]!
        3610:	a9bf27e8 	stp	x8, x9, [sp, #-16]!
        3614:	a9bf2fea 	stp	x10, x11, [sp, #-16]!
        3618:	a9bf37ec 	stp	x12, x13, [sp, #-16]!
        361c:	a9bf3fee 	stp	x14, x15, [sp, #-16]!
        3620:	a9bf47f0 	stp	x16, x17, [sp, #-16]!
        3624:	a9bf4ff2 	stp	x18, x19, [sp, #-16]!
        3628:	a9bf57f4 	stp	x20, x21, [sp, #-16]!
        362c:	a9bf5ff6 	stp	x22, x23, [sp, #-16]!
        3630:	a9bf67f8 	stp	x24, x25, [sp, #-16]!
        3634:	a9bf6ffa 	stp	x26, x27, [sp, #-16]!
        3638:	a9bf77fc 	stp	x28, x29, [sp, #-16]!
        363c:	94000033 	bl	0x3708
        3640:	a8c177fc 	ldp	x28, x29, [sp], #16
        3644:	a8c16ffa 	ldp	x26, x27, [sp], #16
        3648:	a8c167f8 	ldp	x24, x25, [sp], #16
        364c:	a8c15ff6 	ldp	x22, x23, [sp], #16
        3650:	a8c157f4 	ldp	x20, x21, [sp], #16
        3654:	a8c14ff2 	ldp	x18, x19, [sp], #16
        3658:	a8c147f0 	ldp	x16, x17, [sp], #16
        365c:	a8c13fee 	ldp	x14, x15, [sp], #16
        3660:	a8c137ec 	ldp	x12, x13, [sp], #16
        3664:	a8c12fea 	ldp	x10, x11, [sp], #16
        3668:	a8c127e8 	ldp	x8, x9, [sp], #16
        366c:	a8c11fe6 	ldp	x6, x7, [sp], #16
        3670:	a8c117e4 	ldp	x4, x5, [sp], #16
        3674:	a8c10fe2 	ldp	x2, x3, [sp], #16
        3678:	a8c107e0 	ldp	x0, x1, [sp], #16
        367c:	d69f03e0 	eret
        3680:	d65f03c0 	ret
        3684:	a9bf07e0 	stp	x0, x1, [sp, #-16]!
        3688:	a9bf0fe2 	stp	x2, x3, [sp, #-16]!
        368c:	a9bf17e4 	stp	x4, x5, [sp, #-16]!
        3690:	a9bf1fe6 	stp	x6, x7, [sp, #-16]!
        3694:	a9bf27e8 	stp	x8, x9, [sp, #-16]!
        3698:	a9bf2fea 	stp	x10, x11, [sp, #-16]!
        369c:	a9bf37ec 	stp	x12, x13, [sp, #-16]!
        36a0:	a9bf3fee 	stp	x14, x15, [sp, #-16]!
        36a4:	a9bf47f0 	stp	x16, x17, [sp, #-16]!
        36a8:	a9bf4ff2 	stp	x18, x19, [sp, #-16]!
        36ac:	a9bf57f4 	stp	x20, x21, [sp, #-16]!
        36b0:	a9bf5ff6 	stp	x22, x23, [sp, #-16]!
        36b4:	a9bf67f8 	stp	x24, x25, [sp, #-16]!
        36b8:	a9bf6ffa 	stp	x26, x27, [sp, #-16]!
        36bc:	a9bf77fc 	stp	x28, x29, [sp, #-16]!
        36c0:	94000053 	bl	0x380c
        36c4:	a8c177fc 	ldp	x28, x29, [sp], #16
        36c8:	a8c16ffa 	ldp	x26, x27, [sp], #16
        36cc:	a8c167f8 	ldp	x24, x25, [sp], #16
        36d0:	a8c15ff6 	ldp	x22, x23, [sp], #16
        36d4:	a8c157f4 	ldp	x20, x21, [sp], #16
        36d8:	a8c14ff2 	ldp	x18, x19, [sp], #16
        36dc:	a8c147f0 	ldp	x16, x17, [sp], #16
        36e0:	a8c13fee 	ldp	x14, x15, [sp], #16
        36e4:	a8c137ec 	ldp	x12, x13, [sp], #16
        36e8:	a8c12fea 	ldp	x10, x11, [sp], #16
        36ec:	a8c127e8 	ldp	x8, x9, [sp], #16
        36f0:	a8c11fe6 	ldp	x6, x7, [sp], #16
        36f4:	a8c117e4 	ldp	x4, x5, [sp], #16
        36f8:	a8c10fe2 	ldp	x2, x3, [sp], #16
        36fc:	a8c107e0 	ldp	x0, x1, [sp], #16
        3700:	d69f03e0 	eret
        3704:	d65f03c0 	ret
        3708:	a9bd7bfd 	stp	x29, x30, [sp, #-48]!
        370c:	910003fd 	mov	x29, sp
        3710:	a90153f3 	stp	x19, x20, [sp, #16]
        3714:	a9025bf5 	stp	x21, x22, [sp, #32]
        3718:	d01ffff3 	adrp	x19, 0x40001000
        371c:	91206273 	add	x19, x19, #0x818
        3720:	f0000001 	adrp	x1, 0x6000
        3724:	91190021 	add	x1, x1, #0x640
        3728:	aa1303e0 	mov	x0, x19
        372c:	940003b3 	bl	0x45f8
        3730:	f0000001 	adrp	x1, 0x6000
        3734:	91192021 	add	x1, x1, #0x648
        3738:	940003b0 	bl	0x45f8
        373c:	d538cb74 	mrs	x20, s3_0_c12_c11_3
        3740:	f0000001 	adrp	x1, 0x6000
        3744:	91198021 	add	x1, x1, #0x660
        3748:	aa1303e0 	mov	x0, x19
        374c:	940003ab 	bl	0x45f8
        3750:	f0000001 	adrp	x1, 0x6000
        3754:	9119c021 	add	x1, x1, #0x670
        3758:	940003a8 	bl	0x45f8
        375c:	12001e81 	and	w1, w20, #0xff
        3760:	940003c9 	bl	0x4684
        3764:	f0000016 	adrp	x22, 0x6000
        3768:	911a02d6 	add	x22, x22, #0x680
        376c:	aa1603e1 	mov	x1, x22
        3770:	940003a2 	bl	0x45f8
        3774:	f0000001 	adrp	x1, 0x6000
        3778:	911a2021 	add	x1, x1, #0x688
        377c:	9400039f 	bl	0x45f8
        3780:	53087e81 	lsr	w1, w20, #8
        3784:	940003c0 	bl	0x4684
        3788:	f0000014 	adrp	x20, 0x6000
        378c:	912de294 	add	x20, x20, #0xb78
        3790:	aa1403e1 	mov	x1, x20
        3794:	94000399 	bl	0x45f8
        3798:	d538c815 	mrs	x21, s3_0_c12_c8_0
        379c:	f0000001 	adrp	x1, 0x6000
        37a0:	911a6021 	add	x1, x1, #0x698
        37a4:	aa1303e0 	mov	x0, x19
        37a8:	94000394 	bl	0x45f8
        37ac:	f0000001 	adrp	x1, 0x6000
        37b0:	911aa021 	add	x1, x1, #0x6a8
        37b4:	94000391 	bl	0x45f8
        37b8:	2a1503f3 	mov	w19, w21
        37bc:	d3405e75 	ubfx	x21, x19, #0, #24
        37c0:	2a1503e1 	mov	w1, w21
        37c4:	940003b0 	bl	0x4684
        37c8:	aa1603e1 	mov	x1, x22
        37cc:	9400038b 	bl	0x45f8
        37d0:	f0000001 	adrp	x1, 0x6000
        37d4:	911ae021 	add	x1, x1, #0x6b8
        37d8:	94000388 	bl	0x45f8
        37dc:	53187e61 	lsr	w1, w19, #24
        37e0:	940003a9 	bl	0x4684
        37e4:	aa1403e1 	mov	x1, x20
        37e8:	94000384 	bl	0x45f8
        37ec:	52800000 	mov	w0, #0x0                   	// #0
        37f0:	72a00000 	movk	w0, #0x0, lsl #16
        37f4:	33005ea0 	bfxil	w0, w21, #0, #24
        37f8:	d518c820 	msr	s3_0_c12_c8_1, x0
        37fc:	a94153f3 	ldp	x19, x20, [sp, #16]
        3800:	a9425bf5 	ldp	x21, x22, [sp, #32]
        3804:	a8c37bfd 	ldp	x29, x30, [sp], #48
        3808:	d65f03c0 	ret
        380c:	a9bf7bfd 	stp	x29, x30, [sp, #-16]!
        3810:	910003fd 	mov	x29, sp
        3814:	f0000001 	adrp	x1, 0x6000
        3818:	91190021 	add	x1, x1, #0x640
        381c:	d01fffe0 	adrp	x0, 0x40001000
        3820:	91206000 	add	x0, x0, #0x818
        3824:	94000375 	bl	0x45f8
        3828:	f0000001 	adrp	x1, 0x6000
        382c:	911b0021 	add	x1, x1, #0x6c0
        3830:	94000372 	bl	0x45f8
        3834:	a8c17bfd 	ldp	x29, x30, [sp], #16
        3838:	d65f03c0 	ret
        383c:	a9b97bfd 	stp	x29, x30, [sp, #-112]!
        3840:	910003fd 	mov	x29, sp
        3844:	a90153f3 	stp	x19, x20, [sp, #16]
        3848:	a9025bf5 	stp	x21, x22, [sp, #32]
        384c:	a90363f7 	stp	x23, x24, [sp, #48]
        3850:	a9046bf9 	stp	x25, x26, [sp, #64]
        3854:	d01ffff3 	adrp	x19, 0x40001000
        3858:	91206273 	add	x19, x19, #0x818
        385c:	f0000001 	adrp	x1, 0x6000
        3860:	91190021 	add	x1, x1, #0x640
        3864:	aa1303e0 	mov	x0, x19
        3868:	94000364 	bl	0x45f8
        386c:	f0000001 	adrp	x1, 0x6000
        3870:	911b6021 	add	x1, x1, #0x6d8
        3874:	94000361 	bl	0x45f8
        3878:	d538cc18 	mrs	x24, s3_0_c12_c12_0
        387c:	d538cb74 	mrs	x20, s3_0_c12_c11_3
        3880:	f0000001 	adrp	x1, 0x6000
        3884:	91198021 	add	x1, x1, #0x660
        3888:	aa1303e0 	mov	x0, x19
        388c:	9400035b 	bl	0x45f8
        3890:	f0000019 	adrp	x25, 0x6000
        3894:	9119c339 	add	x25, x25, #0x670
        3898:	aa1903e1 	mov	x1, x25
        389c:	94000357 	bl	0x45f8
        38a0:	12001e81 	and	w1, w20, #0xff
        38a4:	94000378 	bl	0x4684
        38a8:	f0000015 	adrp	x21, 0x6000
        38ac:	911a02b5 	add	x21, x21, #0x680
        38b0:	aa1503e1 	mov	x1, x21
        38b4:	94000351 	bl	0x45f8
        38b8:	f0000017 	adrp	x23, 0x6000
        38bc:	911a22f7 	add	x23, x23, #0x688
        38c0:	aa1703e1 	mov	x1, x23
        38c4:	9400034d 	bl	0x45f8
        38c8:	53087e81 	lsr	w1, w20, #8
        38cc:	9400036e 	bl	0x4684
        38d0:	f0000014 	adrp	x20, 0x6000
        38d4:	912de294 	add	x20, x20, #0xb78
        38d8:	aa1403e1 	mov	x1, x20
        38dc:	94000347 	bl	0x45f8
        38e0:	d5384616 	mrs	x22, s3_0_c4_c6_0
        38e4:	f0000001 	adrp	x1, 0x6000
        38e8:	911bc021 	add	x1, x1, #0x6f0
        38ec:	aa1303e0 	mov	x0, x19
        38f0:	94000342 	bl	0x45f8
        38f4:	aa1903e1 	mov	x1, x25
        38f8:	94000340 	bl	0x45f8
        38fc:	12001ec1 	and	w1, w22, #0xff
        3900:	94000361 	bl	0x4684
        3904:	aa1503e1 	mov	x1, x21
        3908:	9400033c 	bl	0x45f8
        390c:	aa1703e1 	mov	x1, x23
        3910:	9400033a 	bl	0x45f8
        3914:	53087ec1 	lsr	w1, w22, #8
        3918:	9400035b 	bl	0x4684
        391c:	aa1403e1 	mov	x1, x20
        3920:	94000336 	bl	0x45f8
        3924:	d2806000 	mov	x0, #0x300                 	// #768
        3928:	f2a10000 	movk	x0, #0x800, lsl #16
        392c:	b940001a 	ldr	w26, [x0]
        3930:	f0000001 	adrp	x1, 0x6000
        3934:	911c0021 	add	x1, x1, #0x700
        3938:	aa1303e0 	mov	x0, x19
        393c:	9400032f 	bl	0x45f8
        3940:	f0000016 	adrp	x22, 0x6000
        3944:	911c62d6 	add	x22, x22, #0x718
        3948:	aa1603e1 	mov	x1, x22
        394c:	9400032b 	bl	0x45f8
        3950:	aa0003f9 	mov	x25, x0
        3954:	2a1a03e1 	mov	w1, w26
        3958:	9101a3a0 	add	x0, x29, #0x68
        395c:	940005b2 	bl	0x5024
        3960:	9101a3a1 	add	x1, x29, #0x68
        3964:	aa1903e0 	mov	x0, x25
        3968:	9400049a 	bl	0x4bd0
        396c:	aa1403e1 	mov	x1, x20
        3970:	94000322 	bl	0x45f8
        3974:	d2806000 	mov	x0, #0x300                 	// #768
        3978:	f2a10160 	movk	x0, #0x80b, lsl #16
        397c:	b9400019 	ldr	w25, [x0]
        3980:	f0000001 	adrp	x1, 0x6000
        3984:	911ca021 	add	x1, x1, #0x728
        3988:	aa1303e0 	mov	x0, x19
        398c:	9400031b 	bl	0x45f8
        3990:	aa1603e1 	mov	x1, x22
        3994:	94000319 	bl	0x45f8
        3998:	aa0003f6 	mov	x22, x0
        399c:	2a1903e1 	mov	w1, w25
        39a0:	910183a0 	add	x0, x29, #0x60
        39a4:	940005a0 	bl	0x5024
        39a8:	910183a1 	add	x1, x29, #0x60
        39ac:	aa1603e0 	mov	x0, x22
        39b0:	94000488 	bl	0x4bd0
        39b4:	aa1403e1 	mov	x1, x20
        39b8:	94000310 	bl	0x45f8
        39bc:	d2804000 	mov	x0, #0x200                 	// #512
        39c0:	f2a10000 	movk	x0, #0x800, lsl #16
        39c4:	b940001a 	ldr	w26, [x0]
        39c8:	f0000001 	adrp	x1, 0x6000
        39cc:	911d0021 	add	x1, x1, #0x740
        39d0:	aa1303e0 	mov	x0, x19
        39d4:	94000309 	bl	0x45f8
        39d8:	f0000016 	adrp	x22, 0x6000
        39dc:	911d62d6 	add	x22, x22, #0x758
        39e0:	aa1603e1 	mov	x1, x22
        39e4:	94000305 	bl	0x45f8
        39e8:	aa0003f9 	mov	x25, x0
        39ec:	2a1a03e1 	mov	w1, w26
        39f0:	910163a0 	add	x0, x29, #0x58
        39f4:	9400058c 	bl	0x5024
        39f8:	910163a1 	add	x1, x29, #0x58
        39fc:	aa1903e0 	mov	x0, x25
        3a00:	94000474 	bl	0x4bd0
        3a04:	aa1403e1 	mov	x1, x20
        3a08:	940002fc 	bl	0x45f8
        3a0c:	d2804000 	mov	x0, #0x200                 	// #512
        3a10:	f2a10160 	movk	x0, #0x80b, lsl #16
        3a14:	b9400019 	ldr	w25, [x0]
        3a18:	f0000001 	adrp	x1, 0x6000
        3a1c:	911da021 	add	x1, x1, #0x768
        3a20:	aa1303e0 	mov	x0, x19
        3a24:	940002f5 	bl	0x45f8
        3a28:	aa1603e1 	mov	x1, x22
        3a2c:	940002f3 	bl	0x45f8
        3a30:	aa0003f6 	mov	x22, x0
        3a34:	2a1903e1 	mov	w1, w25
        3a38:	910143a0 	add	x0, x29, #0x50
        3a3c:	9400057a 	bl	0x5024
        3a40:	910143a1 	add	x1, x29, #0x50
        3a44:	aa1603e0 	mov	x0, x22
        3a48:	94000462 	bl	0x4bd0
        3a4c:	aa1403e1 	mov	x1, x20
        3a50:	940002ea 	bl	0x45f8
        3a54:	d538c116 	mrs	x22, isr_el1
        3a58:	f0000001 	adrp	x1, 0x6000
        3a5c:	911e0021 	add	x1, x1, #0x780
        3a60:	aa1303e0 	mov	x0, x19
        3a64:	940002e5 	bl	0x45f8
        3a68:	aa1703e1 	mov	x1, x23
        3a6c:	940002e3 	bl	0x45f8
        3a70:	120016c1 	and	w1, w22, #0x3f
        3a74:	94000304 	bl	0x4684
        3a78:	aa1503e1 	mov	x1, x21
        3a7c:	940002df 	bl	0x45f8
        3a80:	f0000001 	adrp	x1, 0x6000
        3a84:	911e4021 	add	x1, x1, #0x790
        3a88:	940002dc 	bl	0x45f8
        3a8c:	d3461ac1 	ubfx	x1, x22, #6, #1
        3a90:	940002fd 	bl	0x4684
        3a94:	aa1503e1 	mov	x1, x21
        3a98:	940002d8 	bl	0x45f8
        3a9c:	f0000001 	adrp	x1, 0x6000
        3aa0:	911e6021 	add	x1, x1, #0x798
        3aa4:	940002d5 	bl	0x45f8
        3aa8:	d3471ec1 	ubfx	x1, x22, #7, #1
        3aac:	940002f6 	bl	0x4684
        3ab0:	aa1503e1 	mov	x1, x21
        3ab4:	940002d1 	bl	0x45f8
        3ab8:	f0000001 	adrp	x1, 0x6000
        3abc:	911e8021 	add	x1, x1, #0x7a0
        3ac0:	940002ce 	bl	0x45f8
        3ac4:	d34822c1 	ubfx	x1, x22, #8, #1
        3ac8:	940002ef 	bl	0x4684
        3acc:	aa1503e1 	mov	x1, x21
        3ad0:	940002ca 	bl	0x45f8
        3ad4:	f0000001 	adrp	x1, 0x6000
        3ad8:	911ea021 	add	x1, x1, #0x7a8
        3adc:	940002c7 	bl	0x45f8
        3ae0:	53097ec1 	lsr	w1, w22, #9
        3ae4:	940002e8 	bl	0x4684
        3ae8:	aa1403e1 	mov	x1, x20
        3aec:	940002c3 	bl	0x45f8
        3af0:	f0000001 	adrp	x1, 0x6000
        3af4:	911ee021 	add	x1, x1, #0x7b8
        3af8:	aa1303e0 	mov	x0, x19
        3afc:	940002bf 	bl	0x45f8
        3b00:	f0000001 	adrp	x1, 0x6000
        3b04:	911aa021 	add	x1, x1, #0x6a8
        3b08:	940002bc 	bl	0x45f8
        3b0c:	d3405f16 	ubfx	x22, x24, #0, #24
        3b10:	2a1603e1 	mov	w1, w22
        3b14:	940002dc 	bl	0x4684
        3b18:	aa1503e1 	mov	x1, x21
        3b1c:	940002b7 	bl	0x45f8
        3b20:	f0000001 	adrp	x1, 0x6000
        3b24:	911ae021 	add	x1, x1, #0x6b8
        3b28:	940002b4 	bl	0x45f8
        3b2c:	53187f01 	lsr	w1, w24, #24
        3b30:	940002d5 	bl	0x4684
        3b34:	aa1403e1 	mov	x1, x20
        3b38:	940002b0 	bl	0x45f8
        3b3c:	52800000 	mov	w0, #0x0                   	// #0
        3b40:	72a00000 	movk	w0, #0x0, lsl #16
        3b44:	33005ec0 	bfxil	w0, w22, #0, #24
        3b48:	d518cc20 	msr	s3_0_c12_c12_1, x0
        3b4c:	71006edf 	cmp	w22, #0x1b
        3b50:	54000120 	b.eq	0x3b74  // b.none
        3b54:	71007adf 	cmp	w22, #0x1e
        3b58:	54000180 	b.eq	0x3b88  // b.none
        3b5c:	a94153f3 	ldp	x19, x20, [sp, #16]
        3b60:	a9425bf5 	ldp	x21, x22, [sp, #32]
        3b64:	a94363f7 	ldp	x23, x24, [sp, #48]
        3b68:	a9446bf9 	ldp	x25, x26, [sp, #64]
        3b6c:	a8c77bfd 	ldp	x29, x30, [sp], #112
        3b70:	d65f03c0 	ret
        3b74:	52800000 	mov	w0, #0x0                   	// #0
        3b78:	d51be320 	msr	cntv_ctl_el0, x0
        3b7c:	52800020 	mov	w0, #0x1                   	// #1
        3b80:	d51be320 	msr	cntv_ctl_el0, x0
        3b84:	17fffff6 	b	0x3b5c
        3b88:	d53be253 	mrs	x19, cntp_cval_el0
        3b8c:	aa1303f4 	mov	x20, x19
        3b90:	f0000001 	adrp	x1, 0x6000
        3b94:	911f2021 	add	x1, x1, #0x7c8
        3b98:	d01fffe0 	adrp	x0, 0x40001000
        3b9c:	91206000 	add	x0, x0, #0x818
        3ba0:	94000296 	bl	0x45f8
        3ba4:	f0000001 	adrp	x1, 0x6000
        3ba8:	911f8021 	add	x1, x1, #0x7e0
        3bac:	94000293 	bl	0x45f8
        3bb0:	aa1303e1 	mov	x1, x19
        3bb4:	9400029b 	bl	0x4620
        3bb8:	f0000001 	adrp	x1, 0x6000
        3bbc:	912de021 	add	x1, x1, #0xb78
        3bc0:	9400028e 	bl	0x45f8
        3bc4:	914e9273 	add	x19, x19, #0x3a4, lsl #12
        3bc8:	91296a73 	add	x19, x19, #0xa5a
        3bcc:	b340fe74 	bfxil	x20, x19, #0, #64
        3bd0:	d51be254 	msr	cntp_cval_el0, x20
        3bd4:	17ffffe2 	b	0x3b5c
        3bd8:	a9ba7bfd 	stp	x29, x30, [sp, #-96]!
        3bdc:	910003fd 	mov	x29, sp
        3be0:	a90153f3 	stp	x19, x20, [sp, #16]
        3be4:	a9025bf5 	stp	x21, x22, [sp, #32]
        3be8:	a90363f7 	stp	x23, x24, [sp, #48]
        3bec:	aa0003f8 	mov	x24, x0
        3bf0:	aa0103f4 	mov	x20, x1
        3bf4:	aa0203f7 	mov	x23, x2
        3bf8:	aa0303f6 	mov	x22, x3
        3bfc:	aa0403f5 	mov	x21, x4
        3c00:	d01ffff3 	adrp	x19, 0x40001000
        3c04:	91206273 	add	x19, x19, #0x818
        3c08:	f0000001 	adrp	x1, 0x6000
        3c0c:	91190021 	add	x1, x1, #0x640
        3c10:	aa1303e0 	mov	x0, x19
        3c14:	94000279 	bl	0x45f8
        3c18:	f0000001 	adrp	x1, 0x6000
        3c1c:	911fc021 	add	x1, x1, #0x7f0
        3c20:	94000276 	bl	0x45f8
        3c24:	f0000001 	adrp	x1, 0x6000
        3c28:	91204021 	add	x1, x1, #0x810
        3c2c:	aa1303e0 	mov	x0, x19
        3c30:	94000272 	bl	0x45f8
        3c34:	aa1803e1 	mov	x1, x24
        3c38:	9400027a 	bl	0x4620
        3c3c:	f0000001 	adrp	x1, 0x6000
        3c40:	91206021 	add	x1, x1, #0x818
        3c44:	9400026d 	bl	0x45f8
        3c48:	aa0003f3 	mov	x19, x0
        3c4c:	aa1403e1 	mov	x1, x20
        3c50:	910103a0 	add	x0, x29, #0x40
        3c54:	940004f4 	bl	0x5024
        3c58:	910103a1 	add	x1, x29, #0x40
        3c5c:	aa1303e0 	mov	x0, x19
        3c60:	940003dc 	bl	0x4bd0
        3c64:	f0000001 	adrp	x1, 0x6000
        3c68:	91208021 	add	x1, x1, #0x820
        3c6c:	94000263 	bl	0x45f8
        3c70:	aa0003f3 	mov	x19, x0
        3c74:	aa1703e1 	mov	x1, x23
        3c78:	910123a0 	add	x0, x29, #0x48
        3c7c:	940004ea 	bl	0x5024
        3c80:	910123a1 	add	x1, x29, #0x48
        3c84:	aa1303e0 	mov	x0, x19
        3c88:	940003d2 	bl	0x4bd0
        3c8c:	f0000001 	adrp	x1, 0x6000
        3c90:	9120a021 	add	x1, x1, #0x828
        3c94:	94000259 	bl	0x45f8
        3c98:	aa0003f3 	mov	x19, x0
        3c9c:	aa1603e1 	mov	x1, x22
        3ca0:	910143a0 	add	x0, x29, #0x50
        3ca4:	940004e0 	bl	0x5024
        3ca8:	910143a1 	add	x1, x29, #0x50
        3cac:	aa1303e0 	mov	x0, x19
        3cb0:	940003c8 	bl	0x4bd0
        3cb4:	f0000001 	adrp	x1, 0x6000
        3cb8:	9120e021 	add	x1, x1, #0x838
        3cbc:	9400024f 	bl	0x45f8
        3cc0:	aa0003f3 	mov	x19, x0
        3cc4:	aa1503e1 	mov	x1, x21
        3cc8:	910163a0 	add	x0, x29, #0x58
        3ccc:	940004d6 	bl	0x5024
        3cd0:	910163a1 	add	x1, x29, #0x58
        3cd4:	aa1303e0 	mov	x0, x19
        3cd8:	940003be 	bl	0x4bd0
        3cdc:	f0000001 	adrp	x1, 0x6000
        3ce0:	912de021 	add	x1, x1, #0xb78
        3ce4:	94000245 	bl	0x45f8
        3ce8:	d35afe93 	lsr	x19, x20, #26
        3cec:	f100867f 	cmp	x19, #0x21
        3cf0:	54000ba0 	b.eq	0x3e64  // b.none
        3cf4:	540003a8 	b.hi	0x3d68  // b.pmore
        3cf8:	f1003a7f 	cmp	x19, #0xe
        3cfc:	54000900 	b.eq	0x3e1c  // b.none
        3d00:	540001a8 	b.hi	0x3d34  // b.pmore
        3d04:	b40006d3 	cbz	x19, 0x3ddc
        3d08:	f100067f 	cmp	x19, #0x1
        3d0c:	54000f41 	b.ne	0x3ef4  // b.any
        3d10:	f0000001 	adrp	x1, 0x6000
        3d14:	91214021 	add	x1, x1, #0x850
        3d18:	d01fffe0 	adrp	x0, 0x40001000
        3d1c:	91206000 	add	x0, x0, #0x818
        3d20:	94000236 	bl	0x45f8
        3d24:	f0000001 	adrp	x1, 0x6000
        3d28:	912de021 	add	x1, x1, #0xb78
        3d2c:	94000233 	bl	0x45f8
        3d30:	14000033 	b	0x3dfc
        3d34:	f100567f 	cmp	x19, #0x15
        3d38:	54000840 	b.eq	0x3e40  // b.none
        3d3c:	f100827f 	cmp	x19, #0x20
        3d40:	54000da1 	b.ne	0x3ef4  // b.any
        3d44:	f0000001 	adrp	x1, 0x6000
        3d48:	91222021 	add	x1, x1, #0x888
        3d4c:	d01fffe0 	adrp	x0, 0x40001000
        3d50:	91206000 	add	x0, x0, #0x818
        3d54:	94000229 	bl	0x45f8
        3d58:	f0000001 	adrp	x1, 0x6000
        3d5c:	912de021 	add	x1, x1, #0xb78
        3d60:	94000226 	bl	0x45f8
        3d64:	14000026 	b	0x3dfc
        3d68:	f100967f 	cmp	x19, #0x25
        3d6c:	54000a00 	b.eq	0x3eac  // b.none
        3d70:	540001c8 	b.hi	0x3da8  // b.pmore
        3d74:	f1008a7f 	cmp	x19, #0x22
        3d78:	54000880 	b.eq	0x3e88  // b.none
        3d7c:	f100927f 	cmp	x19, #0x24
        3d80:	54000ba1 	b.ne	0x3ef4  // b.any
        3d84:	f0000001 	adrp	x1, 0x6000
        3d88:	9123a021 	add	x1, x1, #0x8e8
        3d8c:	d01fffe0 	adrp	x0, 0x40001000
        3d90:	91206000 	add	x0, x0, #0x818
        3d94:	94000219 	bl	0x45f8
        3d98:	f0000001 	adrp	x1, 0x6000
        3d9c:	912de021 	add	x1, x1, #0xb78
        3da0:	94000216 	bl	0x45f8
        3da4:	14000016 	b	0x3dfc
        3da8:	f1009a7f 	cmp	x19, #0x26
        3dac:	54000920 	b.eq	0x3ed0  // b.none
        3db0:	f100b27f 	cmp	x19, #0x2c
        3db4:	54000a01 	b.ne	0x3ef4  // b.any
        3db8:	f0000001 	adrp	x1, 0x6000
        3dbc:	9124c021 	add	x1, x1, #0x930
        3dc0:	d01fffe0 	adrp	x0, 0x40001000
        3dc4:	91206000 	add	x0, x0, #0x818
        3dc8:	9400020c 	bl	0x45f8
        3dcc:	f0000001 	adrp	x1, 0x6000
        3dd0:	912de021 	add	x1, x1, #0xb78
        3dd4:	94000209 	bl	0x45f8
        3dd8:	14000009 	b	0x3dfc
        3ddc:	f0000001 	adrp	x1, 0x6000
        3de0:	91212021 	add	x1, x1, #0x848
        3de4:	d01fffe0 	adrp	x0, 0x40001000
        3de8:	91206000 	add	x0, x0, #0x818
        3dec:	94000203 	bl	0x45f8
        3df0:	f0000001 	adrp	x1, 0x6000
        3df4:	912de021 	add	x1, x1, #0xb78
        3df8:	94000200 	bl	0x45f8
        3dfc:	d1009273 	sub	x19, x19, #0x24
        3e00:	f100067f 	cmp	x19, #0x1
        3e04:	540008a9 	b.ls	0x3f18  // b.plast
        3e08:	a94153f3 	ldp	x19, x20, [sp, #16]
        3e0c:	a9425bf5 	ldp	x21, x22, [sp, #32]
        3e10:	a94363f7 	ldp	x23, x24, [sp, #48]
        3e14:	a8c67bfd 	ldp	x29, x30, [sp], #96
        3e18:	d65f03c0 	ret
        3e1c:	f0000001 	adrp	x1, 0x6000
        3e20:	91218021 	add	x1, x1, #0x860
        3e24:	d01fffe0 	adrp	x0, 0x40001000
        3e28:	91206000 	add	x0, x0, #0x818
        3e2c:	940001f3 	bl	0x45f8
        3e30:	f0000001 	adrp	x1, 0x6000
        3e34:	912de021 	add	x1, x1, #0xb78
        3e38:	940001f0 	bl	0x45f8
        3e3c:	17fffff0 	b	0x3dfc
        3e40:	f0000001 	adrp	x1, 0x6000
        3e44:	9121e021 	add	x1, x1, #0x878
        3e48:	d01fffe0 	adrp	x0, 0x40001000
        3e4c:	91206000 	add	x0, x0, #0x818
        3e50:	940001ea 	bl	0x45f8
        3e54:	f0000001 	adrp	x1, 0x6000
        3e58:	912de021 	add	x1, x1, #0xb78
        3e5c:	940001e7 	bl	0x45f8
        3e60:	17ffffe7 	b	0x3dfc
        3e64:	f0000001 	adrp	x1, 0x6000
        3e68:	9122a021 	add	x1, x1, #0x8a8
        3e6c:	d01fffe0 	adrp	x0, 0x40001000
        3e70:	91206000 	add	x0, x0, #0x818
        3e74:	940001e1 	bl	0x45f8
        3e78:	f0000001 	adrp	x1, 0x6000
        3e7c:	912de021 	add	x1, x1, #0xb78
        3e80:	940001de 	bl	0x45f8
        3e84:	17ffffde 	b	0x3dfc
        3e88:	f0000001 	adrp	x1, 0x6000
        3e8c:	91232021 	add	x1, x1, #0x8c8
        3e90:	d01fffe0 	adrp	x0, 0x40001000
        3e94:	91206000 	add	x0, x0, #0x818
        3e98:	940001d8 	bl	0x45f8
        3e9c:	f0000001 	adrp	x1, 0x6000
        3ea0:	912de021 	add	x1, x1, #0xb78
        3ea4:	940001d5 	bl	0x45f8
        3ea8:	17ffffd5 	b	0x3dfc
        3eac:	f0000001 	adrp	x1, 0x6000
        3eb0:	91240021 	add	x1, x1, #0x900
        3eb4:	d01fffe0 	adrp	x0, 0x40001000
        3eb8:	91206000 	add	x0, x0, #0x818
        3ebc:	940001cf 	bl	0x45f8
        3ec0:	f0000001 	adrp	x1, 0x6000
        3ec4:	912de021 	add	x1, x1, #0xb78
        3ec8:	940001cc 	bl	0x45f8
        3ecc:	17ffffcc 	b	0x3dfc
        3ed0:	f0000001 	adrp	x1, 0x6000
        3ed4:	91246021 	add	x1, x1, #0x918
        3ed8:	d01fffe0 	adrp	x0, 0x40001000
        3edc:	91206000 	add	x0, x0, #0x818
        3ee0:	940001c6 	bl	0x45f8
        3ee4:	f0000001 	adrp	x1, 0x6000
        3ee8:	912de021 	add	x1, x1, #0xb78
        3eec:	940001c3 	bl	0x45f8
        3ef0:	17ffffc3 	b	0x3dfc
        3ef4:	f0000001 	adrp	x1, 0x6000
        3ef8:	91212021 	add	x1, x1, #0x848
        3efc:	d01fffe0 	adrp	x0, 0x40001000
        3f00:	91206000 	add	x0, x0, #0x818
        3f04:	940001bd 	bl	0x45f8
        3f08:	f0000001 	adrp	x1, 0x6000
        3f0c:	912de021 	add	x1, x1, #0xb78
        3f10:	940001ba 	bl	0x45f8
        3f14:	17ffffba 	b	0x3dfc
        3f18:	d3420e80 	ubfx	x0, x20, #2, #2
        3f1c:	f100041f 	cmp	x0, #0x1
        3f20:	54000340 	b.eq	0x3f88  // b.none
        3f24:	b4000260 	cbz	x0, 0x3f70
        3f28:	f100081f 	cmp	x0, #0x2
        3f2c:	540003a0 	b.eq	0x3fa0  // b.none
        3f30:	f1000c1f 	cmp	x0, #0x3
        3f34:	54000420 	b.eq	0x3fb8  // b.none
        3f38:	92400694 	and	x20, x20, #0x3
        3f3c:	f100069f 	cmp	x20, #0x1
        3f40:	54000540 	b.eq	0x3fe8  // b.none
        3f44:	b4000474 	cbz	x20, 0x3fd0
        3f48:	f1000a9f 	cmp	x20, #0x2
        3f4c:	540005a0 	b.eq	0x4000  // b.none
        3f50:	f1000e9f 	cmp	x20, #0x3
        3f54:	54fff5a1 	b.ne	0x3e08  // b.any
        3f58:	f0000001 	adrp	x1, 0x6000
        3f5c:	91274021 	add	x1, x1, #0x9d0
        3f60:	d01fffe0 	adrp	x0, 0x40001000
        3f64:	91206000 	add	x0, x0, #0x818
        3f68:	940001a4 	bl	0x45f8
        3f6c:	17ffffa7 	b	0x3e08
        3f70:	f0000001 	adrp	x1, 0x6000
        3f74:	91250021 	add	x1, x1, #0x940
        3f78:	d01fffe0 	adrp	x0, 0x40001000
        3f7c:	91206000 	add	x0, x0, #0x818
        3f80:	9400019e 	bl	0x45f8
        3f84:	17ffffed 	b	0x3f38
        3f88:	f0000001 	adrp	x1, 0x6000
        3f8c:	91256021 	add	x1, x1, #0x958
        3f90:	d01fffe0 	adrp	x0, 0x40001000
        3f94:	91206000 	add	x0, x0, #0x818
        3f98:	94000198 	bl	0x45f8
        3f9c:	17ffffe7 	b	0x3f38
        3fa0:	f0000001 	adrp	x1, 0x6000
        3fa4:	9125c021 	add	x1, x1, #0x970
        3fa8:	d01fffe0 	adrp	x0, 0x40001000
        3fac:	91206000 	add	x0, x0, #0x818
        3fb0:	94000192 	bl	0x45f8
        3fb4:	17ffffe1 	b	0x3f38
        3fb8:	f0000001 	adrp	x1, 0x6000
        3fbc:	91262021 	add	x1, x1, #0x988
        3fc0:	d01fffe0 	adrp	x0, 0x40001000
        3fc4:	91206000 	add	x0, x0, #0x818
        3fc8:	9400018c 	bl	0x45f8
        3fcc:	17ffffdb 	b	0x3f38
        3fd0:	f0000001 	adrp	x1, 0x6000
        3fd4:	91268021 	add	x1, x1, #0x9a0
        3fd8:	d01fffe0 	adrp	x0, 0x40001000
        3fdc:	91206000 	add	x0, x0, #0x818
        3fe0:	94000186 	bl	0x45f8
        3fe4:	17ffff89 	b	0x3e08
        3fe8:	f0000001 	adrp	x1, 0x6000
        3fec:	9126c021 	add	x1, x1, #0x9b0
        3ff0:	d01fffe0 	adrp	x0, 0x40001000
        3ff4:	91206000 	add	x0, x0, #0x818
        3ff8:	94000180 	bl	0x45f8
        3ffc:	17ffff83 	b	0x3e08
        4000:	d0000001 	adrp	x1, 0x6000
        4004:	91270021 	add	x1, x1, #0x9c0
        4008:	b01fffe0 	adrp	x0, 0x40001000
        400c:	91206000 	add	x0, x0, #0x818
        4010:	9400017a 	bl	0x45f8
        4014:	17ffff7d 	b	0x3e08
        4018:	13001c00 	sxtb	w0, w0
        401c:	d2a12001 	mov	x1, #0x9000000             	// #150994944
        4020:	b9000020 	str	w0, [x1]
        4024:	d2800020 	mov	x0, #0x1                   	// #1
        4028:	d65f03c0 	ret
        402c:	d1000401 	sub	x1, x0, #0x1
        4030:	b4000080 	cbz	x0, 0x4040
        4034:	d503201f 	nop
        4038:	aa0103e0 	mov	x0, x1
        403c:	17fffffc 	b	0x402c
        4040:	d65f03c0 	ret
        4044:	a9be7bfd 	stp	x29, x30, [sp, #-32]!
        4048:	910003fd 	mov	x29, sp
        404c:	a90153f3 	stp	x19, x20, [sp, #16]
        4050:	aa0103f4 	mov	x20, x1
        4054:	d1000413 	sub	x19, x0, #0x1
        4058:	b40000a0 	cbz	x0, 0x406c
        405c:	aa1403e0 	mov	x0, x20
        4060:	97fffff3 	bl	0x402c
        4064:	aa1303e0 	mov	x0, x19
        4068:	17fffffb 	b	0x4054
        406c:	a94153f3 	ldp	x19, x20, [sp, #16]
        4070:	a8c27bfd 	ldp	x29, x30, [sp], #32
        4074:	d65f03c0 	ret
        4078:	d503205f 	wfe
        407c:	17ffffff 	b	0x4078
        4080:	f9000001 	str	x1, [x0]
        4084:	f9000402 	str	x2, [x0, #8]
        4088:	39004003 	strb	w3, [x0, #16]
        408c:	d65f03c0 	ret
        4090:	39404000 	ldrb	w0, [x0, #16]
        4094:	d65f03c0 	ret
        4098:	39004001 	strb	w1, [x0, #16]
        409c:	d65f03c0 	ret
        40a0:	f9400000 	ldr	x0, [x0]
        40a4:	d65f03c0 	ret
        40a8:	f9400000 	ldr	x0, [x0]
        40ac:	d65f03c0 	ret
        40b0:	f9000001 	str	x1, [x0]
        40b4:	d65f03c0 	ret
        40b8:	f9400400 	ldr	x0, [x0, #8]
        40bc:	d65f03c0 	ret
        40c0:	f9000401 	str	x1, [x0, #8]
        40c4:	d65f03c0 	ret
        40c8:	91006000 	add	x0, x0, #0x18
        40cc:	d65f03c0 	ret
        40d0:	f9000001 	str	x1, [x0]
        40d4:	f9000401 	str	x1, [x0, #8]
        40d8:	f9000802 	str	x2, [x0, #16]
        40dc:	b4000121 	cbz	x1, 0x4100
        40e0:	a9bf7bfd 	stp	x29, x30, [sp, #-16]!
        40e4:	910003fd 	mov	x29, sp
        40e8:	aa0103e0 	mov	x0, x1
        40ec:	52800003 	mov	w3, #0x0                   	// #0
        40f0:	d2800001 	mov	x1, #0x0                   	// #0
        40f4:	97ffffe3 	bl	0x4080
        40f8:	a8c17bfd 	ldp	x29, x30, [sp], #16
        40fc:	d65f03c0 	ret
        4100:	d65f03c0 	ret
        4104:	f1001c3f 	cmp	x1, #0x7
        4108:	54000048 	b.hi	0x4110  // b.pmore
        410c:	d2800101 	mov	x1, #0x8                   	// #8
        4110:	92400820 	and	x0, x1, #0x7
        4114:	8b010000 	add	x0, x0, x1
        4118:	d65f03c0 	ret
        411c:	a9bd7bfd 	stp	x29, x30, [sp, #-48]!
        4120:	910003fd 	mov	x29, sp
        4124:	a90153f3 	stp	x19, x20, [sp, #16]
        4128:	f90013f5 	str	x21, [sp, #32]
        412c:	aa0003f5 	mov	x21, x0
        4130:	f9400013 	ldr	x19, [x0]
        4134:	97fffff4 	bl	0x4104
        4138:	91006014 	add	x20, x0, #0x18
        413c:	b40001b3 	cbz	x19, 0x4170
        4140:	aa1303e0 	mov	x0, x19
        4144:	97ffffd3 	bl	0x4090
        4148:	72001c1f 	tst	w0, #0xff
        414c:	54000121 	b.ne	0x4170  // b.any
        4150:	aa1303e0 	mov	x0, x19
        4154:	97ffffd9 	bl	0x40b8
        4158:	eb14001f 	cmp	x0, x20
        415c:	540000a2 	b.cs	0x4170  // b.hs, b.nlast
        4160:	aa1303e0 	mov	x0, x19
        4164:	97ffffd1 	bl	0x40a8
        4168:	aa0003f3 	mov	x19, x0
        416c:	17fffff4 	b	0x413c
        4170:	b4000433 	cbz	x19, 0x41f4
        4174:	f90017b6 	str	x22, [x29, #40]
        4178:	52800021 	mov	w1, #0x1                   	// #1
        417c:	aa1303e0 	mov	x0, x19
        4180:	97ffffc6 	bl	0x4098
        4184:	aa1303e0 	mov	x0, x19
        4188:	97ffffcc 	bl	0x40b8
        418c:	cb140016 	sub	x22, x0, x20
        4190:	f1007edf 	cmp	x22, #0x1f
        4194:	54000108 	b.hi	0x41b4  // b.pmore
        4198:	aa1303e0 	mov	x0, x19
        419c:	97ffffcb 	bl	0x40c8
        41a0:	f94017b6 	ldr	x22, [x29, #40]
        41a4:	a94153f3 	ldp	x19, x20, [sp, #16]
        41a8:	f94013f5 	ldr	x21, [sp, #32]
        41ac:	a8c37bfd 	ldp	x29, x30, [sp], #48
        41b0:	d65f03c0 	ret
        41b4:	8b1402b5 	add	x21, x21, x20
        41b8:	aa1303e0 	mov	x0, x19
        41bc:	97ffffbb 	bl	0x40a8
        41c0:	b40000d5 	cbz	x21, 0x41d8
        41c4:	52800003 	mov	w3, #0x0                   	// #0
        41c8:	aa1603e2 	mov	x2, x22
        41cc:	aa0003e1 	mov	x1, x0
        41d0:	aa1503e0 	mov	x0, x21
        41d4:	97ffffab 	bl	0x4080
        41d8:	aa1503e1 	mov	x1, x21
        41dc:	aa1303e0 	mov	x0, x19
        41e0:	97ffffb4 	bl	0x40b0
        41e4:	aa1403e1 	mov	x1, x20
        41e8:	aa1303e0 	mov	x0, x19
        41ec:	97ffffb5 	bl	0x40c0
        41f0:	17ffffea 	b	0x4198
        41f4:	d2800000 	mov	x0, #0x0                   	// #0
        41f8:	17ffffeb 	b	0x41a4
        41fc:	f100003f 	cmp	x1, #0x0
        4200:	1a9f07e2 	cset	w2, ne  // ne = any
        4204:	f100603f 	cmp	x1, #0x18
        4208:	1a9f97e0 	cset	w0, hi  // hi = pmore
        420c:	6a00005f 	tst	w2, w0
        4210:	54000041 	b.ne	0x4218  // b.any
        4214:	d65f03c0 	ret
        4218:	a9bd7bfd 	stp	x29, x30, [sp, #-48]!
        421c:	910003fd 	mov	x29, sp
        4220:	f9000bf3 	str	x19, [sp, #16]
        4224:	d1006033 	sub	x19, x1, #0x18
        4228:	aa1303e0 	mov	x0, x19
        422c:	97ffff99 	bl	0x4090
        4230:	72001c1f 	tst	w0, #0xff
        4234:	54000081 	b.ne	0x4244  // b.any
        4238:	f9400bf3 	ldr	x19, [sp, #16]
        423c:	a8c37bfd 	ldp	x29, x30, [sp], #48
        4240:	d65f03c0 	ret
        4244:	f9000fb4 	str	x20, [x29, #24]
        4248:	52800001 	mov	w1, #0x0                   	// #0
        424c:	aa1303e0 	mov	x0, x19
        4250:	97ffff92 	bl	0x4098
        4254:	aa1303e0 	mov	x0, x19
        4258:	97ffff94 	bl	0x40a8
        425c:	aa0003f4 	mov	x20, x0
        4260:	97ffff8c 	bl	0x4090
        4264:	72001c1f 	tst	w0, #0xff
        4268:	54000060 	b.eq	0x4274  // b.none
        426c:	f9400fb4 	ldr	x20, [x29, #24]
        4270:	17fffff2 	b	0x4238
        4274:	aa1303e0 	mov	x0, x19
        4278:	97ffff90 	bl	0x40b8
        427c:	8b000260 	add	x0, x19, x0
        4280:	eb00029f 	cmp	x20, x0
        4284:	54000060 	b.eq	0x4290  // b.none
        4288:	f9400fb4 	ldr	x20, [x29, #24]
        428c:	17ffffeb 	b	0x4238
        4290:	f90013b5 	str	x21, [x29, #32]
        4294:	aa1403e0 	mov	x0, x20
        4298:	97ffff84 	bl	0x40a8
        429c:	aa0003e1 	mov	x1, x0
        42a0:	aa1303e0 	mov	x0, x19
        42a4:	97ffff83 	bl	0x40b0
        42a8:	aa1303e0 	mov	x0, x19
        42ac:	97ffff83 	bl	0x40b8
        42b0:	aa0003f5 	mov	x21, x0
        42b4:	aa1403e0 	mov	x0, x20
        42b8:	97ffff80 	bl	0x40b8
        42bc:	8b0002a1 	add	x1, x21, x0
        42c0:	aa1303e0 	mov	x0, x19
        42c4:	97ffff7f 	bl	0x40c0
        42c8:	a941d7b4 	ldp	x20, x21, [x29, #24]
        42cc:	17ffffdb 	b	0x4238
        42d0:	52800000 	mov	w0, #0x0                   	// #0
        42d4:	d65f03c0 	ret
        42d8:	52800000 	mov	w0, #0x0                   	// #0
        42dc:	d65f03c0 	ret
        42e0:	92800000 	mov	x0, #0xffffffffffffffff    	// #-1
        42e4:	d65f03c0 	ret
        42e8:	a9bb7bfd 	stp	x29, x30, [sp, #-80]!
        42ec:	910003fd 	mov	x29, sp
        42f0:	f90013f5 	str	x21, [sp, #32]
        42f4:	f9001fa2 	str	x2, [x29, #56]
        42f8:	b4000461 	cbz	x1, 0x4384
        42fc:	a90153b3 	stp	x19, x20, [x29, #16]
        4300:	aa0103f3 	mov	x19, x1
        4304:	aa0003f4 	mov	x20, x0
        4308:	aa0203e1 	mov	x1, x2
        430c:	b40002e2 	cbz	x2, 0x4368
        4310:	b01fffe0 	adrp	x0, 0x40001000
        4314:	91200000 	add	x0, x0, #0x800
        4318:	9400033e 	bl	0x5010
        431c:	aa0003f5 	mov	x21, x0
        4320:	b4000360 	cbz	x0, 0x438c
        4324:	aa1303e1 	mov	x1, x19
        4328:	aa1403e0 	mov	x0, x20
        432c:	97ffffed 	bl	0x42e0
        4330:	f90027a0 	str	x0, [x29, #72]
        4334:	f9401fa1 	ldr	x1, [x29, #56]
        4338:	eb00003f 	cmp	x1, x0
        433c:	54000202 	b.cs	0x437c  // b.hs, b.nlast
        4340:	9100e3a0 	add	x0, x29, #0x38
        4344:	f9400002 	ldr	x2, [x0]
        4348:	aa1303e1 	mov	x1, x19
        434c:	aa1503e0 	mov	x0, x21
        4350:	97fff191 	bl	0x994
        4354:	a94153b3 	ldp	x19, x20, [x29, #16]
        4358:	aa1503e0 	mov	x0, x21
        435c:	f94013f5 	ldr	x21, [sp, #32]
        4360:	a8c57bfd 	ldp	x29, x30, [sp], #80
        4364:	d65f03c0 	ret
        4368:	aa1303e1 	mov	x1, x19
        436c:	97ffffa4 	bl	0x41fc
        4370:	d2800015 	mov	x21, #0x0                   	// #0
        4374:	a94153b3 	ldp	x19, x20, [x29, #16]
        4378:	17fffff8 	b	0x4358
        437c:	910123a0 	add	x0, x29, #0x48
        4380:	17fffff1 	b	0x4344
        4384:	aa0103f5 	mov	x21, x1
        4388:	17fffff4 	b	0x4358
        438c:	d2800015 	mov	x21, #0x0                   	// #0
        4390:	a94153b3 	ldp	x19, x20, [x29, #16]
        4394:	17fffff1 	b	0x4358
        4398:	f100043f 	cmp	x1, #0x1
        439c:	54000189 	b.ls	0x43cc  // b.plast
        43a0:	d1000421 	sub	x1, x1, #0x1
        43a4:	d2800002 	mov	x2, #0x0                   	// #0
        43a8:	eb01005f 	cmp	x2, x1
        43ac:	54000102 	b.cs	0x43cc  // b.hs, b.nlast
        43b0:	38e26803 	ldrsb	w3, [x0, x2]
        43b4:	38e16804 	ldrsb	w4, [x0, x1]
        43b8:	38226804 	strb	w4, [x0, x2]
        43bc:	38216803 	strb	w3, [x0, x1]
        43c0:	91000442 	add	x2, x2, #0x1
        43c4:	d1000421 	sub	x1, x1, #0x1
        43c8:	17fffff8 	b	0x43a8
        43cc:	d65f03c0 	ret
        43d0:	a9be7bfd 	stp	x29, x30, [sp, #-32]!
        43d4:	910003fd 	mov	x29, sp
        43d8:	f9000bf3 	str	x19, [sp, #16]
        43dc:	51000424 	sub	w4, w1, #0x1
        43e0:	71003c9f 	cmp	w4, #0xf
        43e4:	54000348 	b.hi	0x444c  // b.pmore
        43e8:	b40003c3 	cbz	x3, 0x4460
        43ec:	b5000120 	cbnz	x0, 0x4410
        43f0:	52800600 	mov	w0, #0x30                  	// #48
        43f4:	39000040 	strb	w0, [x2]
        43f8:	d2800033 	mov	x19, #0x1                   	// #1
        43fc:	3833685f 	strb	wzr, [x2, x19]
        4400:	aa1303e1 	mov	x1, x19
        4404:	aa0203e0 	mov	x0, x2
        4408:	97ffffe4 	bl	0x4398
        440c:	14000011 	b	0x4450
        4410:	d2800013 	mov	x19, #0x0                   	// #0
        4414:	b4ffff40 	cbz	x0, 0x43fc
        4418:	91000666 	add	x6, x19, #0x1
        441c:	eb0300df 	cmp	x6, x3
        4420:	54fffee2 	b.cs	0x43fc  // b.hs, b.nlast
        4424:	2a0103e4 	mov	w4, w1
        4428:	9ac40807 	udiv	x7, x0, x4
        442c:	9b0480e4 	msub	x4, x7, x4, x0
        4430:	b0000005 	adrp	x5, 0x5000
        4434:	913780a5 	add	x5, x5, #0xde0
        4438:	38e468a0 	ldrsb	w0, [x5, x4]
        443c:	38336840 	strb	w0, [x2, x19]
        4440:	aa0703e0 	mov	x0, x7
        4444:	aa0603f3 	mov	x19, x6
        4448:	17fffff3 	b	0x4414
        444c:	d2800013 	mov	x19, #0x0                   	// #0
        4450:	aa1303e0 	mov	x0, x19
        4454:	f9400bf3 	ldr	x19, [sp, #16]
        4458:	a8c27bfd 	ldp	x29, x30, [sp], #32
        445c:	d65f03c0 	ret
        4460:	aa0303f3 	mov	x19, x3
        4464:	17fffffb 	b	0x4450
        4468:	a9bf7bfd 	stp	x29, x30, [sp, #-16]!
        446c:	910003fd 	mov	x29, sp
        4470:	aa0203e3 	mov	x3, x2
        4474:	aa0103e2 	mov	x2, x1
        4478:	52800041 	mov	w1, #0x2                   	// #2
        447c:	97ffffd5 	bl	0x43d0
        4480:	a8c17bfd 	ldp	x29, x30, [sp], #16
        4484:	d65f03c0 	ret
        4488:	a9bf7bfd 	stp	x29, x30, [sp, #-16]!
        448c:	910003fd 	mov	x29, sp
        4490:	aa0203e3 	mov	x3, x2
        4494:	aa0103e2 	mov	x2, x1
        4498:	52800141 	mov	w1, #0xa                   	// #10
        449c:	97ffffcd 	bl	0x43d0
        44a0:	a8c17bfd 	ldp	x29, x30, [sp], #16
        44a4:	d65f03c0 	ret
        44a8:	a9bf7bfd 	stp	x29, x30, [sp, #-16]!
        44ac:	910003fd 	mov	x29, sp
        44b0:	aa0203e3 	mov	x3, x2
        44b4:	aa0103e2 	mov	x2, x1
        44b8:	52800201 	mov	w1, #0x10                  	// #16
        44bc:	97ffffc5 	bl	0x43d0
        44c0:	a8c17bfd 	ldp	x29, x30, [sp], #16
        44c4:	d65f03c0 	ret
        44c8:	b0000002 	adrp	x2, 0x5000
        44cc:	9137c042 	add	x2, x2, #0xdf0
        44d0:	eb02001f 	cmp	x0, x2
        44d4:	540001a0 	b.eq	0x4508  // b.none
        44d8:	a9be7bfd 	stp	x29, x30, [sp, #-32]!
        44dc:	910003fd 	mov	x29, sp
        44e0:	a90153f3 	stp	x19, x20, [sp, #16]
        44e4:	aa0103f4 	mov	x20, x1
        44e8:	aa0003f3 	mov	x19, x0
        44ec:	97fff153 	bl	0xa38
        44f0:	eb14001f 	cmp	x0, x20
        44f4:	54000103 	b.cc	0x4514  // b.lo, b.ul, b.last
        44f8:	8b140260 	add	x0, x19, x20
        44fc:	a94153f3 	ldp	x19, x20, [sp, #16]
        4500:	a8c27bfd 	ldp	x29, x30, [sp], #32
        4504:	d65f03c0 	ret
        4508:	b0000000 	adrp	x0, 0x5000
        450c:	9137c000 	add	x0, x0, #0xdf0
        4510:	d65f03c0 	ret
        4514:	b0000000 	adrp	x0, 0x5000
        4518:	9137c000 	add	x0, x0, #0xdf0
        451c:	17fffff8 	b	0x44fc
        4520:	7100041f 	cmp	w0, #0x1
        4524:	54000040 	b.eq	0x452c  // b.none
        4528:	d65f03c0 	ret
        452c:	529fffe0 	mov	w0, #0xffff                	// #65535
        4530:	6b00003f 	cmp	w1, w0
        4534:	54ffffa1 	b.ne	0x4528  // b.any
        4538:	a9bf7bfd 	stp	x29, x30, [sp, #-16]!
        453c:	910003fd 	mov	x29, sp
        4540:	d2a80002 	mov	x2, #0x40000000            	// #1073741824
        4544:	aa0203e1 	mov	x1, x2
        4548:	b01fffe0 	adrp	x0, 0x40001000
        454c:	91200000 	add	x0, x0, #0x800
        4550:	97fffee0 	bl	0x40d0
        4554:	a8c17bfd 	ldp	x29, x30, [sp], #16
        4558:	d65f03c0 	ret
        455c:	a9bf7bfd 	stp	x29, x30, [sp, #-16]!
        4560:	910003fd 	mov	x29, sp
        4564:	d2a80002 	mov	x2, #0x40000000            	// #1073741824
        4568:	aa0203e1 	mov	x1, x2
        456c:	b01fffe0 	adrp	x0, 0x40001000
        4570:	91200000 	add	x0, x0, #0x800
        4574:	97fffed7 	bl	0x40d0
        4578:	a8c17bfd 	ldp	x29, x30, [sp], #16
        457c:	d65f03c0 	ret
        4580:	a9bf7bfd 	stp	x29, x30, [sp, #-16]!
        4584:	910003fd 	mov	x29, sp
        4588:	529fffe1 	mov	w1, #0xffff                	// #65535
        458c:	52800020 	mov	w0, #0x1                   	// #1
        4590:	97ffffe4 	bl	0x4520
        4594:	a8c17bfd 	ldp	x29, x30, [sp], #16
        4598:	d65f03c0 	ret
        459c:	a9bf7bfd 	stp	x29, x30, [sp, #-16]!
        45a0:	910003fd 	mov	x29, sp
        45a4:	aa0103e0 	mov	x0, x1
        45a8:	aa0203e1 	mov	x1, x2
        45ac:	97fffb2e 	bl	0x3264
        45b0:	a8c17bfd 	ldp	x29, x30, [sp], #16
        45b4:	d65f03c0 	ret
        45b8:	a9bf7bfd 	stp	x29, x30, [sp, #-16]!
        45bc:	910003fd 	mov	x29, sp
        45c0:	aa0103e0 	mov	x0, x1
        45c4:	97fffb19 	bl	0x3228
        45c8:	a8c17bfd 	ldp	x29, x30, [sp], #16
        45cc:	d65f03c0 	ret
        45d0:	a9be7bfd 	stp	x29, x30, [sp, #-32]!
        45d4:	910003fd 	mov	x29, sp
        45d8:	f9000bf3 	str	x19, [sp, #16]
        45dc:	aa0003f3 	mov	x19, x0
        45e0:	2a0103e0 	mov	w0, w1
        45e4:	97fffe8d 	bl	0x4018
        45e8:	aa1303e0 	mov	x0, x19
        45ec:	f9400bf3 	ldr	x19, [sp, #16]
        45f0:	a8c27bfd 	ldp	x29, x30, [sp], #32
        45f4:	d65f03c0 	ret
        45f8:	a9be7bfd 	stp	x29, x30, [sp, #-32]!
        45fc:	910003fd 	mov	x29, sp
        4600:	f9000bf3 	str	x19, [sp, #16]
        4604:	aa0003f3 	mov	x19, x0
        4608:	aa0103e0 	mov	x0, x1
        460c:	97fffb07 	bl	0x3228
        4610:	aa1303e0 	mov	x0, x19
        4614:	f9400bf3 	ldr	x19, [sp, #16]
        4618:	a8c27bfd 	ldp	x29, x30, [sp], #32
        461c:	d65f03c0 	ret
        4620:	a9bd7bfd 	stp	x29, x30, [sp, #-48]!
        4624:	910003fd 	mov	x29, sp
        4628:	f9000bf3 	str	x19, [sp, #16]
        462c:	aa0003f3 	mov	x19, x0
        4630:	9100a3a0 	add	x0, x29, #0x28
        4634:	940005b8 	bl	0x5d14
        4638:	9100a3a0 	add	x0, x29, #0x28
        463c:	940005b8 	bl	0x5d1c
        4640:	97fffafa 	bl	0x3228
        4644:	aa1303e0 	mov	x0, x19
        4648:	f9400bf3 	ldr	x19, [sp, #16]
        464c:	a8c37bfd 	ldp	x29, x30, [sp], #48
        4650:	d65f03c0 	ret
        4654:	a9bf7bfd 	stp	x29, x30, [sp, #-16]!
        4658:	910003fd 	mov	x29, sp
        465c:	92401c21 	and	x1, x1, #0xff
        4660:	97fffff0 	bl	0x4620
        4664:	a8c17bfd 	ldp	x29, x30, [sp], #16
        4668:	d65f03c0 	ret
        466c:	a9bf7bfd 	stp	x29, x30, [sp, #-16]!
        4670:	910003fd 	mov	x29, sp
        4674:	92403c21 	and	x1, x1, #0xffff
        4678:	97ffffea 	bl	0x4620
        467c:	a8c17bfd 	ldp	x29, x30, [sp], #16
        4680:	d65f03c0 	ret
        4684:	a9bf7bfd 	stp	x29, x30, [sp, #-16]!
        4688:	910003fd 	mov	x29, sp
        468c:	2a0103e1 	mov	w1, w1
        4690:	97ffffe4 	bl	0x4620
        4694:	a8c17bfd 	ldp	x29, x30, [sp], #16
        4698:	d65f03c0 	ret
        469c:	a9bf7bfd 	stp	x29, x30, [sp, #-16]!
        46a0:	910003fd 	mov	x29, sp
        46a4:	93403c21 	sxth	x1, w1
        46a8:	97ffffde 	bl	0x4620
        46ac:	a8c17bfd 	ldp	x29, x30, [sp], #16
        46b0:	d65f03c0 	ret
        46b4:	a9bf7bfd 	stp	x29, x30, [sp, #-16]!
        46b8:	910003fd 	mov	x29, sp
        46bc:	93407c21 	sxtw	x1, w1
        46c0:	97ffffd8 	bl	0x4620
        46c4:	a8c17bfd 	ldp	x29, x30, [sp], #16
        46c8:	d65f03c0 	ret
        46cc:	a9bf7bfd 	stp	x29, x30, [sp, #-16]!
        46d0:	910003fd 	mov	x29, sp
        46d4:	9e790001 	fcvtzu	x1, d0
        46d8:	97ffffd2 	bl	0x4620
        46dc:	a8c17bfd 	ldp	x29, x30, [sp], #16
        46e0:	d65f03c0 	ret
        46e4:	a9bd7bfd 	stp	x29, x30, [sp, #-48]!
        46e8:	910003fd 	mov	x29, sp
        46ec:	f9000bf3 	str	x19, [sp, #16]
        46f0:	aa0003f3 	mov	x19, x0
        46f4:	9100a3a0 	add	x0, x29, #0x28
        46f8:	94000126 	bl	0x4b90
        46fc:	9100a3a0 	add	x0, x29, #0x28
        4700:	94000126 	bl	0x4b98
        4704:	97fffac9 	bl	0x3228
        4708:	aa1303e0 	mov	x0, x19
        470c:	f9400bf3 	ldr	x19, [sp, #16]
        4710:	a8c37bfd 	ldp	x29, x30, [sp], #48
        4714:	d65f03c0 	ret
        4718:	a9bd7bfd 	stp	x29, x30, [sp, #-48]!
        471c:	910003fd 	mov	x29, sp
        4720:	a90153f3 	stp	x19, x20, [sp, #16]
        4724:	f90017f6 	str	x22, [sp, #40]
        4728:	aa0003f6 	mov	x22, x0
        472c:	aa0103f4 	mov	x20, x1
        4730:	aa0103e0 	mov	x0, x1
        4734:	94000550 	bl	0x5c74
        4738:	aa0003f3 	mov	x19, x0
        473c:	aa1403e0 	mov	x0, x20
        4740:	9400054b 	bl	0x5c6c
        4744:	b4000193 	cbz	x19, 0x4774
        4748:	f90013b5 	str	x21, [x29, #32]
        474c:	d1000674 	sub	x20, x19, #0x1
        4750:	b4000113 	cbz	x19, 0x4770
        4754:	91000415 	add	x21, x0, #0x1
        4758:	39400001 	ldrb	w1, [x0]
        475c:	aa1603e0 	mov	x0, x22
        4760:	97ffff9c 	bl	0x45d0
        4764:	aa1403f3 	mov	x19, x20
        4768:	aa1503e0 	mov	x0, x21
        476c:	17fffff8 	b	0x474c
        4770:	f94013b5 	ldr	x21, [x29, #32]
        4774:	aa1603e0 	mov	x0, x22
        4778:	a94153f3 	ldp	x19, x20, [sp, #16]
        477c:	f94017f6 	ldr	x22, [sp, #40]
        4780:	a8c37bfd 	ldp	x29, x30, [sp], #48
        4784:	d65f03c0 	ret
	...
        4a00:	17fffab9 	b	0x34e4
	...
        4a80:	17fffabf 	b	0x357c
	...
        4b00:	17fffac0 	b	0x3600
	...
        4b80:	17fffac1 	b	0x3684
        4b84:	00000000 	.inst	0x00000000 ; undefined
        4b88:	00004580 	.inst	0x00004580 ; undefined
        4b8c:	00000000 	.inst	0x00000000 ; undefined
        4b90:	f9000001 	str	x1, [x0]
        4b94:	d65f03c0 	ret
        4b98:	a9be7bfd 	stp	x29, x30, [sp, #-32]!
        4b9c:	910003fd 	mov	x29, sp
        4ba0:	f9000bf3 	str	x19, [sp, #16]
        4ba4:	b01ffff3 	adrp	x19, 0x40001000
        4ba8:	91208273 	add	x19, x19, #0x820
        4bac:	d2800823 	mov	x3, #0x41                  	// #65
        4bb0:	aa1303e2 	mov	x2, x19
        4bb4:	52800201 	mov	w1, #0x10                  	// #16
        4bb8:	f9400000 	ldr	x0, [x0]
        4bbc:	97fffe05 	bl	0x43d0
        4bc0:	aa1303e0 	mov	x0, x19
        4bc4:	f9400bf3 	ldr	x19, [sp, #16]
        4bc8:	a8c27bfd 	ldp	x29, x30, [sp], #32
        4bcc:	d65f03c0 	ret
        4bd0:	a9be7bfd 	stp	x29, x30, [sp, #-32]!
        4bd4:	910003fd 	mov	x29, sp
        4bd8:	f9000bf3 	str	x19, [sp, #16]
        4bdc:	aa0003f3 	mov	x19, x0
        4be0:	aa0103e0 	mov	x0, x1
        4be4:	97ffffed 	bl	0x4b98
        4be8:	aa0003e1 	mov	x1, x0
        4bec:	aa1303e0 	mov	x0, x19
        4bf0:	97fffe82 	bl	0x45f8
        4bf4:	aa1303e0 	mov	x0, x19
        4bf8:	f9400bf3 	ldr	x19, [sp, #16]
        4bfc:	a8c27bfd 	ldp	x29, x30, [sp], #32
        4c00:	d65f03c0 	ret
        4c04:	f9400001 	ldr	x1, [x0]
        4c08:	b4000101 	cbz	x1, 0x4c28
        4c0c:	a9bf7bfd 	stp	x29, x30, [sp, #-16]!
        4c10:	910003fd 	mov	x29, sp
        4c14:	b01fffe0 	adrp	x0, 0x40001000
        4c18:	91200000 	add	x0, x0, #0x800
        4c1c:	97fffd78 	bl	0x41fc
        4c20:	a8c17bfd 	ldp	x29, x30, [sp], #16
        4c24:	d65f03c0 	ret
        4c28:	d65f03c0 	ret
        4c2c:	f9400400 	ldr	x0, [x0, #8]
        4c30:	d65f03c0 	ret
        4c34:	f9400800 	ldr	x0, [x0, #16]
        4c38:	d65f03c0 	ret
        4c3c:	f9400000 	ldr	x0, [x0]
        4c40:	8b010800 	add	x0, x0, x1, lsl #2
        4c44:	d65f03c0 	ret
        4c48:	a9bf7bfd 	stp	x29, x30, [sp, #-16]!
        4c4c:	910003fd 	mov	x29, sp
        4c50:	97fffd33 	bl	0x411c
        4c54:	a8c17bfd 	ldp	x29, x30, [sp], #16
        4c58:	d65f03c0 	ret
        4c5c:	f9400402 	ldr	x2, [x0, #8]
        4c60:	eb01005f 	cmp	x2, x1
        4c64:	540004e0 	b.eq	0x4d00  // b.none
        4c68:	a9bd7bfd 	stp	x29, x30, [sp, #-48]!
        4c6c:	910003fd 	mov	x29, sp
        4c70:	a90153f3 	stp	x19, x20, [sp, #16]
        4c74:	a9025bf5 	stp	x21, x22, [sp, #32]
        4c78:	aa0103f5 	mov	x21, x1
        4c7c:	aa0003f3 	mov	x19, x0
        4c80:	d37ef436 	lsl	x22, x1, #2
        4c84:	b01ffff4 	adrp	x20, 0x40001000
        4c88:	91200294 	add	x20, x20, #0x800
        4c8c:	aa1603e2 	mov	x2, x22
        4c90:	f9400001 	ldr	x1, [x0]
        4c94:	aa1403e0 	mov	x0, x20
        4c98:	97fffd94 	bl	0x42e8
        4c9c:	aa1603e1 	mov	x1, x22
        4ca0:	aa1403e0 	mov	x0, x20
        4ca4:	97ffffe9 	bl	0x4c48
        4ca8:	aa0003f4 	mov	x20, x0
        4cac:	b40002e0 	cbz	x0, 0x4d08
        4cb0:	d2800002 	mov	x2, #0x0                   	// #0
        4cb4:	f9400a60 	ldr	x0, [x19, #16]
        4cb8:	eb02001f 	cmp	x0, x2
        4cbc:	540000c0 	b.eq	0x4cd4  // b.none
        4cc0:	f9400260 	ldr	x0, [x19]
        4cc4:	b8627800 	ldr	w0, [x0, x2, lsl #2]
        4cc8:	b8227a80 	str	w0, [x20, x2, lsl #2]
        4ccc:	91000442 	add	x2, x2, #0x1
        4cd0:	17fffff9 	b	0x4cb4
        4cd4:	f9400261 	ldr	x1, [x19]
        4cd8:	b01fffe0 	adrp	x0, 0x40001000
        4cdc:	91200000 	add	x0, x0, #0x800
        4ce0:	97fffd47 	bl	0x41fc
        4ce4:	f9000274 	str	x20, [x19]
        4ce8:	f9000675 	str	x21, [x19, #8]
        4cec:	52800020 	mov	w0, #0x1                   	// #1
        4cf0:	a94153f3 	ldp	x19, x20, [sp, #16]
        4cf4:	a9425bf5 	ldp	x21, x22, [sp, #32]
        4cf8:	a8c37bfd 	ldp	x29, x30, [sp], #48
        4cfc:	d65f03c0 	ret
        4d00:	52800020 	mov	w0, #0x1                   	// #1
        4d04:	d65f03c0 	ret
        4d08:	52800000 	mov	w0, #0x0                   	// #0
        4d0c:	17fffff9 	b	0x4cf0
        4d10:	a9be7bfd 	stp	x29, x30, [sp, #-32]!
        4d14:	910003fd 	mov	x29, sp
        4d18:	a90153f3 	stp	x19, x20, [sp, #16]
        4d1c:	aa0003f3 	mov	x19, x0
        4d20:	aa0103f4 	mov	x20, x1
        4d24:	f900001f 	str	xzr, [x0]
        4d28:	f900041f 	str	xzr, [x0, #8]
        4d2c:	f900081f 	str	xzr, [x0, #16]
        4d30:	f100203f 	cmp	x1, #0x8
        4d34:	d2800101 	mov	x1, #0x8                   	// #8
        4d38:	9a812281 	csel	x1, x20, x1, cs  // cs = hs, nlast
        4d3c:	97ffffc8 	bl	0x4c5c
        4d40:	72001c1f 	tst	w0, #0xff
        4d44:	54000040 	b.eq	0x4d4c  // b.none
        4d48:	f9000a74 	str	x20, [x19, #16]
        4d4c:	a94153f3 	ldp	x19, x20, [sp, #16]
        4d50:	a8c27bfd 	ldp	x29, x30, [sp], #32
        4d54:	d65f03c0 	ret
        4d58:	8b000400 	add	x0, x0, x0, lsl #1
        4d5c:	d341fc00 	lsr	x0, x0, #1
        4d60:	d65f03c0 	ret
        4d64:	f9400801 	ldr	x1, [x0, #16]
        4d68:	91000421 	add	x1, x1, #0x1
        4d6c:	f9400402 	ldr	x2, [x0, #8]
        4d70:	eb02003f 	cmp	x1, x2
        4d74:	54000068 	b.hi	0x4d80  // b.pmore
        4d78:	52800020 	mov	w0, #0x1                   	// #1
        4d7c:	d65f03c0 	ret
        4d80:	a9be7bfd 	stp	x29, x30, [sp, #-32]!
        4d84:	910003fd 	mov	x29, sp
        4d88:	f9000bf3 	str	x19, [sp, #16]
        4d8c:	aa0003f3 	mov	x19, x0
        4d90:	aa0203e0 	mov	x0, x2
        4d94:	97fffff1 	bl	0x4d58
        4d98:	aa0003e1 	mov	x1, x0
        4d9c:	aa1303e0 	mov	x0, x19
        4da0:	97ffffaf 	bl	0x4c5c
        4da4:	12001c00 	and	w0, w0, #0xff
        4da8:	f9400bf3 	ldr	x19, [sp, #16]
        4dac:	a8c27bfd 	ldp	x29, x30, [sp], #32
        4db0:	d65f03c0 	ret
        4db4:	a9be7bfd 	stp	x29, x30, [sp, #-32]!
        4db8:	910003fd 	mov	x29, sp
        4dbc:	a90153f3 	stp	x19, x20, [sp, #16]
        4dc0:	aa0003f3 	mov	x19, x0
        4dc4:	2a0103f4 	mov	w20, w1
        4dc8:	97ffffe7 	bl	0x4d64
        4dcc:	72001c1f 	tst	w0, #0xff
        4dd0:	54000100 	b.eq	0x4df0  // b.none
        4dd4:	f9400a60 	ldr	x0, [x19, #16]
        4dd8:	91000400 	add	x0, x0, #0x1
        4ddc:	f9000a60 	str	x0, [x19, #16]
        4de0:	f9400261 	ldr	x1, [x19]
        4de4:	d37ef400 	lsl	x0, x0, #2
        4de8:	d1001000 	sub	x0, x0, #0x4
        4dec:	b8206834 	str	w20, [x1, x0]
        4df0:	a94153f3 	ldp	x19, x20, [sp, #16]
        4df4:	a8c27bfd 	ldp	x29, x30, [sp], #32
        4df8:	d65f03c0 	ret
        4dfc:	a9bd7bfd 	stp	x29, x30, [sp, #-48]!
        4e00:	910003fd 	mov	x29, sp
        4e04:	a90153f3 	stp	x19, x20, [sp, #16]
        4e08:	f90013f5 	str	x21, [sp, #32]
        4e0c:	aa0003f5 	mov	x21, x0
        4e10:	aa0103f4 	mov	x20, x1
        4e14:	d2800001 	mov	x1, #0x0                   	// #0
        4e18:	97ffffbe 	bl	0x4d10
        4e1c:	f9400293 	ldr	x19, [x20]
        4e20:	f9400694 	ldr	x20, [x20, #8]
        4e24:	8b140a74 	add	x20, x19, x20, lsl #2
        4e28:	eb14027f 	cmp	x19, x20
        4e2c:	540000a0 	b.eq	0x4e40  // b.none
        4e30:	b8404661 	ldr	w1, [x19], #4
        4e34:	aa1503e0 	mov	x0, x21
        4e38:	97ffffdf 	bl	0x4db4
        4e3c:	17fffffb 	b	0x4e28
        4e40:	a94153f3 	ldp	x19, x20, [sp, #16]
        4e44:	f94013f5 	ldr	x21, [sp, #32]
        4e48:	a8c37bfd 	ldp	x29, x30, [sp], #48
        4e4c:	d65f03c0 	ret
        4e50:	a9be7bfd 	stp	x29, x30, [sp, #-32]!
        4e54:	910003fd 	mov	x29, sp
        4e58:	f9000bf3 	str	x19, [sp, #16]
        4e5c:	aa0003f3 	mov	x19, x0
        4e60:	f9400800 	ldr	x0, [x0, #16]
        4e64:	b40000e0 	cbz	x0, 0x4e80
        4e68:	d1000400 	sub	x0, x0, #0x1
        4e6c:	97ffffbb 	bl	0x4d58
        4e70:	f1001c1f 	cmp	x0, #0x7
        4e74:	54000088 	b.hi	0x4e84  // b.pmore
        4e78:	d2800100 	mov	x0, #0x8                   	// #8
        4e7c:	14000002 	b	0x4e84
        4e80:	d2800100 	mov	x0, #0x8                   	// #8
        4e84:	f9400661 	ldr	x1, [x19, #8]
        4e88:	eb00003f 	cmp	x1, x0
        4e8c:	540000a8 	b.hi	0x4ea0  // b.pmore
        4e90:	52800020 	mov	w0, #0x1                   	// #1
        4e94:	f9400bf3 	ldr	x19, [sp, #16]
        4e98:	a8c27bfd 	ldp	x29, x30, [sp], #32
        4e9c:	d65f03c0 	ret
        4ea0:	aa0003e1 	mov	x1, x0
        4ea4:	aa1303e0 	mov	x0, x19
        4ea8:	97ffff6d 	bl	0x4c5c
        4eac:	12001c00 	and	w0, w0, #0xff
        4eb0:	17fffff9 	b	0x4e94
        4eb4:	a9be7bfd 	stp	x29, x30, [sp, #-32]!
        4eb8:	910003fd 	mov	x29, sp
        4ebc:	f9000bf3 	str	x19, [sp, #16]
        4ec0:	aa0003f3 	mov	x19, x0
        4ec4:	97ffffe3 	bl	0x4e50
        4ec8:	72001c1f 	tst	w0, #0xff
        4ecc:	54000060 	b.eq	0x4ed8  // b.none
        4ed0:	f9400a60 	ldr	x0, [x19, #16]
        4ed4:	b50000c0 	cbnz	x0, 0x4eec
        4ed8:	f9400260 	ldr	x0, [x19]
        4edc:	b9400000 	ldr	w0, [x0]
        4ee0:	f9400bf3 	ldr	x19, [sp, #16]
        4ee4:	a8c27bfd 	ldp	x29, x30, [sp], #32
        4ee8:	d65f03c0 	ret
        4eec:	f9400261 	ldr	x1, [x19]
        4ef0:	d1000400 	sub	x0, x0, #0x1
        4ef4:	f9000a60 	str	x0, [x19, #16]
        4ef8:	b8607820 	ldr	w0, [x1, x0, lsl #2]
        4efc:	17fffff9 	b	0x4ee0
        4f00:	a9be7bfd 	stp	x29, x30, [sp, #-32]!
        4f04:	910003fd 	mov	x29, sp
        4f08:	f9000ff4 	str	x20, [sp, #24]
        4f0c:	aa0003f4 	mov	x20, x0
        4f10:	f9400800 	ldr	x0, [x0, #16]
        4f14:	eb01001f 	cmp	x0, x1
        4f18:	54000088 	b.hi	0x4f28  // b.pmore
        4f1c:	f9400ff4 	ldr	x20, [sp, #24]
        4f20:	a8c27bfd 	ldp	x29, x30, [sp], #32
        4f24:	d65f03c0 	ret
        4f28:	f9000bb3 	str	x19, [x29, #16]
        4f2c:	aa0103f3 	mov	x19, x1
        4f30:	aa1403e0 	mov	x0, x20
        4f34:	97ffffc7 	bl	0x4e50
        4f38:	72001c1f 	tst	w0, #0xff
        4f3c:	540001a0 	b.eq	0x4f70  // b.none
        4f40:	f9400a80 	ldr	x0, [x20, #16]
        4f44:	d1000400 	sub	x0, x0, #0x1
        4f48:	f9000a80 	str	x0, [x20, #16]
        4f4c:	f9400a80 	ldr	x0, [x20, #16]
        4f50:	eb13001f 	cmp	x0, x19
        4f54:	54000120 	b.eq	0x4f78  // b.none
        4f58:	f9400281 	ldr	x1, [x20]
        4f5c:	91000660 	add	x0, x19, #0x1
        4f60:	b8607822 	ldr	w2, [x1, x0, lsl #2]
        4f64:	b8337822 	str	w2, [x1, x19, lsl #2]
        4f68:	aa0003f3 	mov	x19, x0
        4f6c:	17fffff8 	b	0x4f4c
        4f70:	f9400bb3 	ldr	x19, [x29, #16]
        4f74:	17ffffea 	b	0x4f1c
        4f78:	f9400bb3 	ldr	x19, [x29, #16]
        4f7c:	17ffffe8 	b	0x4f1c
        4f80:	f9400803 	ldr	x3, [x0, #16]
        4f84:	eb01007f 	cmp	x3, x1
        4f88:	540003c3 	b.cc	0x5000  // b.lo, b.ul, b.last
        4f8c:	a9bd7bfd 	stp	x29, x30, [sp, #-48]!
        4f90:	910003fd 	mov	x29, sp
        4f94:	a90153f3 	stp	x19, x20, [sp, #16]
        4f98:	f90013f5 	str	x21, [sp, #32]
        4f9c:	aa0203f5 	mov	x21, x2
        4fa0:	aa0103f3 	mov	x19, x1
        4fa4:	aa0003f4 	mov	x20, x0
        4fa8:	97ffffaa 	bl	0x4e50
        4fac:	72001c1f 	tst	w0, #0xff
        4fb0:	540002c0 	b.eq	0x5008  // b.none
        4fb4:	f9400a83 	ldr	x3, [x20, #16]
        4fb8:	91000460 	add	x0, x3, #0x1
        4fbc:	f9000a80 	str	x0, [x20, #16]
        4fc0:	eb13007f 	cmp	x3, x19
        4fc4:	540000e0 	b.eq	0x4fe0  // b.none
        4fc8:	f9400280 	ldr	x0, [x20]
        4fcc:	8b030801 	add	x1, x0, x3, lsl #2
        4fd0:	b85fc021 	ldur	w1, [x1, #-4]
        4fd4:	b8237801 	str	w1, [x0, x3, lsl #2]
        4fd8:	d1000463 	sub	x3, x3, #0x1
        4fdc:	17fffff9 	b	0x4fc0
        4fe0:	f9400280 	ldr	x0, [x20]
        4fe4:	b94002a1 	ldr	w1, [x21]
        4fe8:	b8337801 	str	w1, [x0, x19, lsl #2]
        4fec:	aa1303e0 	mov	x0, x19
        4ff0:	a94153f3 	ldp	x19, x20, [sp, #16]
        4ff4:	f94013f5 	ldr	x21, [sp, #32]
        4ff8:	a8c37bfd 	ldp	x29, x30, [sp], #48
        4ffc:	d65f03c0 	ret
        5000:	92800000 	mov	x0, #0xffffffffffffffff    	// #-1
        5004:	d65f03c0 	ret
        5008:	92800000 	mov	x0, #0xffffffffffffffff    	// #-1
        500c:	17fffff9 	b	0x4ff0
        5010:	a9bf7bfd 	stp	x29, x30, [sp, #-16]!
        5014:	910003fd 	mov	x29, sp
        5018:	97fffc41 	bl	0x411c
        501c:	a8c17bfd 	ldp	x29, x30, [sp], #16
        5020:	d65f03c0 	ret
        5024:	f9000001 	str	x1, [x0]
        5028:	d65f03c0 	ret
        502c:	f9400001 	ldr	x1, [x0]
        5030:	b4000101 	cbz	x1, 0x5050
        5034:	a9bf7bfd 	stp	x29, x30, [sp, #-16]!
        5038:	910003fd 	mov	x29, sp
        503c:	901fffe0 	adrp	x0, 0x40001000
        5040:	91200000 	add	x0, x0, #0x800
        5044:	97fffc6e 	bl	0x41fc
        5048:	a8c17bfd 	ldp	x29, x30, [sp], #16
        504c:	d65f03c0 	ret
        5050:	d65f03c0 	ret
        5054:	f9400800 	ldr	x0, [x0, #16]
        5058:	d65f03c0 	ret
        505c:	f9400000 	ldr	x0, [x0]
        5060:	8b010000 	add	x0, x0, x1
        5064:	d65f03c0 	ret
        5068:	a9bd7bfd 	stp	x29, x30, [sp, #-48]!
        506c:	910003fd 	mov	x29, sp
        5070:	a90153f3 	stp	x19, x20, [sp, #16]
        5074:	f90013f5 	str	x21, [sp, #32]
        5078:	aa0003f5 	mov	x21, x0
        507c:	aa0103f4 	mov	x20, x1
        5080:	d2800013 	mov	x19, #0x0                   	// #0
        5084:	aa1403e0 	mov	x0, x20
        5088:	97fffff3 	bl	0x5054
        508c:	eb13001f 	cmp	x0, x19
        5090:	54000120 	b.eq	0x50b4  // b.none
        5094:	aa1303e1 	mov	x1, x19
        5098:	aa1403e0 	mov	x0, x20
        509c:	97fffff0 	bl	0x505c
        50a0:	39400001 	ldrb	w1, [x0]
        50a4:	aa1503e0 	mov	x0, x21
        50a8:	97fffd4a 	bl	0x45d0
        50ac:	91000673 	add	x19, x19, #0x1
        50b0:	17fffff5 	b	0x5084
        50b4:	aa1503e0 	mov	x0, x21
        50b8:	a94153f3 	ldp	x19, x20, [sp, #16]
        50bc:	f94013f5 	ldr	x21, [sp, #32]
        50c0:	a8c37bfd 	ldp	x29, x30, [sp], #48
        50c4:	d65f03c0 	ret
        50c8:	f9400001 	ldr	x1, [x0]
        50cc:	b4000101 	cbz	x1, 0x50ec
        50d0:	a9bf7bfd 	stp	x29, x30, [sp, #-16]!
        50d4:	910003fd 	mov	x29, sp
        50d8:	901fffe0 	adrp	x0, 0x40001000
        50dc:	91200000 	add	x0, x0, #0x800
        50e0:	97fffc47 	bl	0x41fc
        50e4:	a8c17bfd 	ldp	x29, x30, [sp], #16
        50e8:	d65f03c0 	ret
        50ec:	d65f03c0 	ret
        50f0:	f9400022 	ldr	x2, [x1]
        50f4:	f9000002 	str	x2, [x0]
        50f8:	f9400422 	ldr	x2, [x1, #8]
        50fc:	f9000402 	str	x2, [x0, #8]
        5100:	f9400822 	ldr	x2, [x1, #16]
        5104:	f9000802 	str	x2, [x0, #16]
        5108:	f900003f 	str	xzr, [x1]
        510c:	f900043f 	str	xzr, [x1, #8]
        5110:	f900083f 	str	xzr, [x1, #16]
        5114:	d65f03c0 	ret
        5118:	a9be7bfd 	stp	x29, x30, [sp, #-32]!
        511c:	910003fd 	mov	x29, sp
        5120:	b9001ba1 	str	w1, [x29, #24]
        5124:	f9000ba2 	str	x2, [x29, #16]
        5128:	f9400801 	ldr	x1, [x0, #16]
        512c:	b40000e1 	cbz	x1, 0x5148
        5130:	f9400c03 	ldr	x3, [x0, #24]
        5134:	910043a2 	add	x2, x29, #0x10
        5138:	910063a1 	add	x1, x29, #0x18
        513c:	d63f0060 	blr	x3
        5140:	a8c27bfd 	ldp	x29, x30, [sp], #32
        5144:	d65f03c0 	ret
        5148:	97ffee43 	bl	0xa54
        514c:	f9400000 	ldr	x0, [x0]
        5150:	8b010800 	add	x0, x0, x1, lsl #2
        5154:	d65f03c0 	ret
        5158:	f9400000 	ldr	x0, [x0]
        515c:	d65f03c0 	ret
        5160:	a9bf7bfd 	stp	x29, x30, [sp, #-16]!
        5164:	910003fd 	mov	x29, sp
        5168:	97fffbed 	bl	0x411c
        516c:	a8c17bfd 	ldp	x29, x30, [sp], #16
        5170:	d65f03c0 	ret
        5174:	f9400402 	ldr	x2, [x0, #8]
        5178:	eb01005f 	cmp	x2, x1
        517c:	540004e0 	b.eq	0x5218  // b.none
        5180:	a9bd7bfd 	stp	x29, x30, [sp, #-48]!
        5184:	910003fd 	mov	x29, sp
        5188:	a90153f3 	stp	x19, x20, [sp, #16]
        518c:	a9025bf5 	stp	x21, x22, [sp, #32]
        5190:	aa0103f5 	mov	x21, x1
        5194:	aa0003f3 	mov	x19, x0
        5198:	d37ef436 	lsl	x22, x1, #2
        519c:	901ffff4 	adrp	x20, 0x40001000
        51a0:	91200294 	add	x20, x20, #0x800
        51a4:	aa1603e2 	mov	x2, x22
        51a8:	f9400001 	ldr	x1, [x0]
        51ac:	aa1403e0 	mov	x0, x20
        51b0:	97fffc4e 	bl	0x42e8
        51b4:	aa1603e1 	mov	x1, x22
        51b8:	aa1403e0 	mov	x0, x20
        51bc:	97ffffe9 	bl	0x5160
        51c0:	aa0003f4 	mov	x20, x0
        51c4:	b40002e0 	cbz	x0, 0x5220
        51c8:	d2800002 	mov	x2, #0x0                   	// #0
        51cc:	f9400a60 	ldr	x0, [x19, #16]
        51d0:	eb02001f 	cmp	x0, x2
        51d4:	540000c0 	b.eq	0x51ec  // b.none
        51d8:	f9400260 	ldr	x0, [x19]
        51dc:	b8627800 	ldr	w0, [x0, x2, lsl #2]
        51e0:	b8227a80 	str	w0, [x20, x2, lsl #2]
        51e4:	91000442 	add	x2, x2, #0x1
        51e8:	17fffff9 	b	0x51cc
        51ec:	f9400261 	ldr	x1, [x19]
        51f0:	901fffe0 	adrp	x0, 0x40001000
        51f4:	91200000 	add	x0, x0, #0x800
        51f8:	97fffc01 	bl	0x41fc
        51fc:	f9000274 	str	x20, [x19]
        5200:	f9000675 	str	x21, [x19, #8]
        5204:	52800020 	mov	w0, #0x1                   	// #1
        5208:	a94153f3 	ldp	x19, x20, [sp, #16]
        520c:	a9425bf5 	ldp	x21, x22, [sp, #32]
        5210:	a8c37bfd 	ldp	x29, x30, [sp], #48
        5214:	d65f03c0 	ret
        5218:	52800020 	mov	w0, #0x1                   	// #1
        521c:	d65f03c0 	ret
        5220:	52800000 	mov	w0, #0x0                   	// #0
        5224:	17fffff9 	b	0x5208
        5228:	a9be7bfd 	stp	x29, x30, [sp, #-32]!
        522c:	910003fd 	mov	x29, sp
        5230:	a90153f3 	stp	x19, x20, [sp, #16]
        5234:	aa0003f3 	mov	x19, x0
        5238:	aa0103f4 	mov	x20, x1
        523c:	f900001f 	str	xzr, [x0]
        5240:	f900041f 	str	xzr, [x0, #8]
        5244:	f900081f 	str	xzr, [x0, #16]
        5248:	f100203f 	cmp	x1, #0x8
        524c:	d2800101 	mov	x1, #0x8                   	// #8
        5250:	9a812281 	csel	x1, x20, x1, cs  // cs = hs, nlast
        5254:	97ffffc8 	bl	0x5174
        5258:	72001c1f 	tst	w0, #0xff
        525c:	54000040 	b.eq	0x5264  // b.none
        5260:	f9000a74 	str	x20, [x19, #16]
        5264:	a94153f3 	ldp	x19, x20, [sp, #16]
        5268:	a8c27bfd 	ldp	x29, x30, [sp], #32
        526c:	d65f03c0 	ret
        5270:	a9b97bfd 	stp	x29, x30, [sp, #-112]!
        5274:	910003fd 	mov	x29, sp
        5278:	a90153f3 	stp	x19, x20, [sp, #16]
        527c:	a9025bf5 	stp	x21, x22, [sp, #32]
        5280:	a90363f7 	stp	x23, x24, [sp, #48]
        5284:	f90023f9 	str	x25, [sp, #64]
        5288:	aa0803f8 	mov	x24, x8
        528c:	aa0003f4 	mov	x20, x0
        5290:	aa0103f5 	mov	x21, x1
        5294:	aa0203f3 	mov	x19, x2
        5298:	aa0203e1 	mov	x1, x2
        529c:	910163a0 	add	x0, x29, #0x58
        52a0:	97ffffe2 	bl	0x5228
        52a4:	910163a0 	add	x0, x29, #0x58
        52a8:	97ffffac 	bl	0x5158
        52ac:	aa0003f6 	mov	x22, x0
        52b0:	aa0003e4 	mov	x4, x0
        52b4:	d2800003 	mov	x3, #0x0                   	// #0
        52b8:	52800022 	mov	w2, #0x1                   	// #1
        52bc:	aa1503e1 	mov	x1, x21
        52c0:	aa1403e0 	mov	x0, x20
        52c4:	97ffee34 	bl	0xb94
        52c8:	aa0003f7 	mov	x23, x0
        52cc:	d37ef673 	lsl	x19, x19, #2
        52d0:	8b150279 	add	x25, x19, x21
        52d4:	cb000273 	sub	x19, x19, x0
        52d8:	aa1403e0 	mov	x0, x20
        52dc:	97ffedfc 	bl	0xacc
        52e0:	9ac00b21 	udiv	x1, x25, x0
        52e4:	9b00e420 	msub	x0, x1, x0, x25
        52e8:	cb000273 	sub	x19, x19, x0
        52ec:	8b1302e4 	add	x4, x23, x19
        52f0:	8b0402c4 	add	x4, x22, x4
        52f4:	d2800003 	mov	x3, #0x0                   	// #0
        52f8:	52800002 	mov	w2, #0x0                   	// #0
        52fc:	aa1903e1 	mov	x1, x25
        5300:	aa1403e0 	mov	x0, x20
        5304:	97ffee24 	bl	0xb94
        5308:	b50001b3 	cbnz	x19, 0x533c
        530c:	910163a1 	add	x1, x29, #0x58
        5310:	aa1803e0 	mov	x0, x24
        5314:	97ffff77 	bl	0x50f0
        5318:	910163a0 	add	x0, x29, #0x58
        531c:	97ffff6b 	bl	0x50c8
        5320:	aa1803e0 	mov	x0, x24
        5324:	a94153f3 	ldp	x19, x20, [sp, #16]
        5328:	a9425bf5 	ldp	x21, x22, [sp, #32]
        532c:	a94363f7 	ldp	x23, x24, [sp, #48]
        5330:	f94023f9 	ldr	x25, [sp, #64]
        5334:	a8c77bfd 	ldp	x29, x30, [sp], #112
        5338:	d65f03c0 	ret
        533c:	f9400299 	ldr	x25, [x20]
        5340:	8b1702b5 	add	x21, x21, x23
        5344:	aa1403e0 	mov	x0, x20
        5348:	97ffede1 	bl	0xacc
        534c:	9ac00ab5 	udiv	x21, x21, x0
        5350:	8b1702d6 	add	x22, x22, x23
        5354:	aa1403e0 	mov	x0, x20
        5358:	97ffeddd 	bl	0xacc
        535c:	9ac00a63 	udiv	x3, x19, x0
        5360:	aa1603e2 	mov	x2, x22
        5364:	aa1503e1 	mov	x1, x21
        5368:	aa1903e0 	mov	x0, x25
        536c:	97ffee3e 	bl	0xc64
        5370:	17ffffe7 	b	0x530c
        5374:	f9400001 	ldr	x1, [x0]
        5378:	b4000101 	cbz	x1, 0x5398
        537c:	a9bf7bfd 	stp	x29, x30, [sp, #-16]!
        5380:	910003fd 	mov	x29, sp
        5384:	901fffe0 	adrp	x0, 0x40001000
        5388:	91200000 	add	x0, x0, #0x800
        538c:	97fffb9c 	bl	0x41fc
        5390:	a8c17bfd 	ldp	x29, x30, [sp], #16
        5394:	d65f03c0 	ret
        5398:	d65f03c0 	ret
        539c:	f9400000 	ldr	x0, [x0]
        53a0:	d65f03c0 	ret
        53a4:	f9400022 	ldr	x2, [x1]
        53a8:	f9000002 	str	x2, [x0]
        53ac:	f9400422 	ldr	x2, [x1, #8]
        53b0:	f9000402 	str	x2, [x0, #8]
        53b4:	f9400822 	ldr	x2, [x1, #16]
        53b8:	f9000802 	str	x2, [x0, #16]
        53bc:	f900003f 	str	xzr, [x1]
        53c0:	f900043f 	str	xzr, [x1, #8]
        53c4:	f900083f 	str	xzr, [x1, #16]
        53c8:	d65f03c0 	ret
        53cc:	f9400001 	ldr	x1, [x0]
        53d0:	b4000101 	cbz	x1, 0x53f0
        53d4:	a9bf7bfd 	stp	x29, x30, [sp, #-16]!
        53d8:	910003fd 	mov	x29, sp
        53dc:	901fffe0 	adrp	x0, 0x40001000
        53e0:	91200000 	add	x0, x0, #0x800
        53e4:	97fffb86 	bl	0x41fc
        53e8:	a8c17bfd 	ldp	x29, x30, [sp], #16
        53ec:	d65f03c0 	ret
        53f0:	d65f03c0 	ret
        53f4:	f9400800 	ldr	x0, [x0, #16]
        53f8:	d65f03c0 	ret
        53fc:	f9400000 	ldr	x0, [x0]
        5400:	8b011400 	add	x0, x0, x1, lsl #5
        5404:	d65f03c0 	ret
        5408:	f9400000 	ldr	x0, [x0]
        540c:	d65f03c0 	ret
        5410:	f9400022 	ldr	x2, [x1]
        5414:	f9000002 	str	x2, [x0]
        5418:	f9400422 	ldr	x2, [x1, #8]
        541c:	f9000402 	str	x2, [x0, #8]
        5420:	f9400822 	ldr	x2, [x1, #16]
        5424:	f9000802 	str	x2, [x0, #16]
        5428:	f900003f 	str	xzr, [x1]
        542c:	f900043f 	str	xzr, [x1, #8]
        5430:	f900083f 	str	xzr, [x1, #16]
        5434:	d65f03c0 	ret
        5438:	a9bf7bfd 	stp	x29, x30, [sp, #-16]!
        543c:	910003fd 	mov	x29, sp
        5440:	97fffb37 	bl	0x411c
        5444:	a8c17bfd 	ldp	x29, x30, [sp], #16
        5448:	d65f03c0 	ret
        544c:	f9400402 	ldr	x2, [x0, #8]
        5450:	eb01005f 	cmp	x2, x1
        5454:	54000580 	b.eq	0x5504  // b.none
        5458:	a9bd7bfd 	stp	x29, x30, [sp, #-48]!
        545c:	910003fd 	mov	x29, sp
        5460:	a90153f3 	stp	x19, x20, [sp, #16]
        5464:	a9025bf5 	stp	x21, x22, [sp, #32]
        5468:	aa0103f4 	mov	x20, x1
        546c:	aa0003f3 	mov	x19, x0
        5470:	d37be836 	lsl	x22, x1, #5
        5474:	901ffff5 	adrp	x21, 0x40001000
        5478:	912002b5 	add	x21, x21, #0x800
        547c:	aa1603e2 	mov	x2, x22
        5480:	f9400001 	ldr	x1, [x0]
        5484:	aa1503e0 	mov	x0, x21
        5488:	97fffb98 	bl	0x42e8
        548c:	aa1603e1 	mov	x1, x22
        5490:	aa1503e0 	mov	x0, x21
        5494:	97ffffe9 	bl	0x5438
        5498:	aa0003f5 	mov	x21, x0
        549c:	b4000380 	cbz	x0, 0x550c
        54a0:	d2800004 	mov	x4, #0x0                   	// #0
        54a4:	f9400a60 	ldr	x0, [x19, #16]
        54a8:	eb04001f 	cmp	x0, x4
        54ac:	54000160 	b.eq	0x54d8  // b.none
        54b0:	f9400263 	ldr	x3, [x19]
        54b4:	d37be882 	lsl	x2, x4, #5
        54b8:	8b020063 	add	x3, x3, x2
        54bc:	8b0202a2 	add	x2, x21, x2
        54c0:	a9400460 	ldp	x0, x1, [x3]
        54c4:	a9000440 	stp	x0, x1, [x2]
        54c8:	a9410460 	ldp	x0, x1, [x3, #16]
        54cc:	a9010440 	stp	x0, x1, [x2, #16]
        54d0:	91000484 	add	x4, x4, #0x1
        54d4:	17fffff4 	b	0x54a4
        54d8:	f9400261 	ldr	x1, [x19]
        54dc:	901fffe0 	adrp	x0, 0x40001000
        54e0:	91200000 	add	x0, x0, #0x800
        54e4:	97fffb46 	bl	0x41fc
        54e8:	f9000275 	str	x21, [x19]
        54ec:	f9000674 	str	x20, [x19, #8]
        54f0:	52800020 	mov	w0, #0x1                   	// #1
        54f4:	a94153f3 	ldp	x19, x20, [sp, #16]
        54f8:	a9425bf5 	ldp	x21, x22, [sp, #32]
        54fc:	a8c37bfd 	ldp	x29, x30, [sp], #48
        5500:	d65f03c0 	ret
        5504:	52800020 	mov	w0, #0x1                   	// #1
        5508:	d65f03c0 	ret
        550c:	52800000 	mov	w0, #0x0                   	// #0
        5510:	17fffff9 	b	0x54f4
        5514:	a9be7bfd 	stp	x29, x30, [sp, #-32]!
        5518:	910003fd 	mov	x29, sp
        551c:	a90153f3 	stp	x19, x20, [sp, #16]
        5520:	aa0003f3 	mov	x19, x0
        5524:	aa0103f4 	mov	x20, x1
        5528:	f900001f 	str	xzr, [x0]
        552c:	f900041f 	str	xzr, [x0, #8]
        5530:	f900081f 	str	xzr, [x0, #16]
        5534:	f100203f 	cmp	x1, #0x8
        5538:	d2800101 	mov	x1, #0x8                   	// #8
        553c:	9a812281 	csel	x1, x20, x1, cs  // cs = hs, nlast
        5540:	97ffffc3 	bl	0x544c
        5544:	72001c1f 	tst	w0, #0xff
        5548:	54000040 	b.eq	0x5550  // b.none
        554c:	f9000a74 	str	x20, [x19, #16]
        5550:	a94153f3 	ldp	x19, x20, [sp, #16]
        5554:	a8c27bfd 	ldp	x29, x30, [sp], #32
        5558:	d65f03c0 	ret
        555c:	a9bf7bfd 	stp	x29, x30, [sp, #-16]!
        5560:	910003fd 	mov	x29, sp
        5564:	97fffaee 	bl	0x411c
        5568:	a8c17bfd 	ldp	x29, x30, [sp], #16
        556c:	d65f03c0 	ret
        5570:	f9400402 	ldr	x2, [x0, #8]
        5574:	eb01005f 	cmp	x2, x1
        5578:	540004e0 	b.eq	0x5614  // b.none
        557c:	a9bd7bfd 	stp	x29, x30, [sp, #-48]!
        5580:	910003fd 	mov	x29, sp
        5584:	a90153f3 	stp	x19, x20, [sp, #16]
        5588:	a9025bf5 	stp	x21, x22, [sp, #32]
        558c:	aa0103f5 	mov	x21, x1
        5590:	aa0003f3 	mov	x19, x0
        5594:	d37df036 	lsl	x22, x1, #3
        5598:	901ffff4 	adrp	x20, 0x40001000
        559c:	91200294 	add	x20, x20, #0x800
        55a0:	aa1603e2 	mov	x2, x22
        55a4:	f9400001 	ldr	x1, [x0]
        55a8:	aa1403e0 	mov	x0, x20
        55ac:	97fffb4f 	bl	0x42e8
        55b0:	aa1603e1 	mov	x1, x22
        55b4:	aa1403e0 	mov	x0, x20
        55b8:	97ffffe9 	bl	0x555c
        55bc:	aa0003f4 	mov	x20, x0
        55c0:	b40002e0 	cbz	x0, 0x561c
        55c4:	d2800002 	mov	x2, #0x0                   	// #0
        55c8:	f9400a60 	ldr	x0, [x19, #16]
        55cc:	eb02001f 	cmp	x0, x2
        55d0:	540000c0 	b.eq	0x55e8  // b.none
        55d4:	f9400260 	ldr	x0, [x19]
        55d8:	f8627800 	ldr	x0, [x0, x2, lsl #3]
        55dc:	f8227a80 	str	x0, [x20, x2, lsl #3]
        55e0:	91000442 	add	x2, x2, #0x1
        55e4:	17fffff9 	b	0x55c8
        55e8:	f9400261 	ldr	x1, [x19]
        55ec:	901fffe0 	adrp	x0, 0x40001000
        55f0:	91200000 	add	x0, x0, #0x800
        55f4:	97fffb02 	bl	0x41fc
        55f8:	f9000274 	str	x20, [x19]
        55fc:	f9000675 	str	x21, [x19, #8]
        5600:	52800020 	mov	w0, #0x1                   	// #1
        5604:	a94153f3 	ldp	x19, x20, [sp, #16]
        5608:	a9425bf5 	ldp	x21, x22, [sp, #32]
        560c:	a8c37bfd 	ldp	x29, x30, [sp], #48
        5610:	d65f03c0 	ret
        5614:	52800020 	mov	w0, #0x1                   	// #1
        5618:	d65f03c0 	ret
        561c:	52800000 	mov	w0, #0x0                   	// #0
        5620:	17fffff9 	b	0x5604
        5624:	a9be7bfd 	stp	x29, x30, [sp, #-32]!
        5628:	910003fd 	mov	x29, sp
        562c:	a90153f3 	stp	x19, x20, [sp, #16]
        5630:	aa0003f3 	mov	x19, x0
        5634:	aa0103f4 	mov	x20, x1
        5638:	f900001f 	str	xzr, [x0]
        563c:	f900041f 	str	xzr, [x0, #8]
        5640:	f900081f 	str	xzr, [x0, #16]
        5644:	f100203f 	cmp	x1, #0x8
        5648:	d2800101 	mov	x1, #0x8                   	// #8
        564c:	9a812281 	csel	x1, x20, x1, cs  // cs = hs, nlast
        5650:	97ffffc8 	bl	0x5570
        5654:	72001c1f 	tst	w0, #0xff
        5658:	54000040 	b.eq	0x5660  // b.none
        565c:	f9000a74 	str	x20, [x19, #16]
        5660:	a94153f3 	ldp	x19, x20, [sp, #16]
        5664:	a8c27bfd 	ldp	x29, x30, [sp], #32
        5668:	d65f03c0 	ret
        566c:	8b000400 	add	x0, x0, x0, lsl #1
        5670:	d341fc00 	lsr	x0, x0, #1
        5674:	d65f03c0 	ret
        5678:	f9400801 	ldr	x1, [x0, #16]
        567c:	91000421 	add	x1, x1, #0x1
        5680:	f9400402 	ldr	x2, [x0, #8]
        5684:	eb02003f 	cmp	x1, x2
        5688:	54000068 	b.hi	0x5694  // b.pmore
        568c:	52800020 	mov	w0, #0x1                   	// #1
        5690:	d65f03c0 	ret
        5694:	a9be7bfd 	stp	x29, x30, [sp, #-32]!
        5698:	910003fd 	mov	x29, sp
        569c:	f9000bf3 	str	x19, [sp, #16]
        56a0:	aa0003f3 	mov	x19, x0
        56a4:	aa0203e0 	mov	x0, x2
        56a8:	97fffff1 	bl	0x566c
        56ac:	aa0003e1 	mov	x1, x0
        56b0:	aa1303e0 	mov	x0, x19
        56b4:	97ffffaf 	bl	0x5570
        56b8:	12001c00 	and	w0, w0, #0xff
        56bc:	f9400bf3 	ldr	x19, [sp, #16]
        56c0:	a8c27bfd 	ldp	x29, x30, [sp], #32
        56c4:	d65f03c0 	ret
        56c8:	a9be7bfd 	stp	x29, x30, [sp, #-32]!
        56cc:	910003fd 	mov	x29, sp
        56d0:	a90153f3 	stp	x19, x20, [sp, #16]
        56d4:	aa0003f3 	mov	x19, x0
        56d8:	aa0103f4 	mov	x20, x1
        56dc:	97ffffe7 	bl	0x5678
        56e0:	72001c1f 	tst	w0, #0xff
        56e4:	54000100 	b.eq	0x5704  // b.none
        56e8:	f9400a60 	ldr	x0, [x19, #16]
        56ec:	91000400 	add	x0, x0, #0x1
        56f0:	f9000a60 	str	x0, [x19, #16]
        56f4:	f9400261 	ldr	x1, [x19]
        56f8:	d37df000 	lsl	x0, x0, #3
        56fc:	d1002000 	sub	x0, x0, #0x8
        5700:	f8206834 	str	x20, [x1, x0]
        5704:	a94153f3 	ldp	x19, x20, [sp, #16]
        5708:	a8c27bfd 	ldp	x29, x30, [sp], #32
        570c:	d65f03c0 	ret
        5710:	f9400000 	ldr	x0, [x0]
        5714:	8b010000 	add	x0, x0, x1
        5718:	d65f03c0 	ret
        571c:	8b000400 	add	x0, x0, x0, lsl #1
        5720:	d341fc00 	lsr	x0, x0, #1
        5724:	d65f03c0 	ret
        5728:	f9400402 	ldr	x2, [x0, #8]
        572c:	eb01005f 	cmp	x2, x1
        5730:	540004c0 	b.eq	0x57c8  // b.none
        5734:	a9bd7bfd 	stp	x29, x30, [sp, #-48]!
        5738:	910003fd 	mov	x29, sp
        573c:	a90153f3 	stp	x19, x20, [sp, #16]
        5740:	f90013f5 	str	x21, [sp, #32]
        5744:	aa0103f5 	mov	x21, x1
        5748:	aa0003f3 	mov	x19, x0
        574c:	901ffff4 	adrp	x20, 0x40001000
        5750:	91200294 	add	x20, x20, #0x800
        5754:	aa0103e2 	mov	x2, x1
        5758:	f9400001 	ldr	x1, [x0]
        575c:	aa1403e0 	mov	x0, x20
        5760:	97fffae2 	bl	0x42e8
        5764:	aa1503e1 	mov	x1, x21
        5768:	aa1403e0 	mov	x0, x20
        576c:	97fffe29 	bl	0x5010
        5770:	aa0003f4 	mov	x20, x0
        5774:	b40002e0 	cbz	x0, 0x57d0
        5778:	d2800002 	mov	x2, #0x0                   	// #0
        577c:	f9400a60 	ldr	x0, [x19, #16]
        5780:	eb02001f 	cmp	x0, x2
        5784:	540000c0 	b.eq	0x579c  // b.none
        5788:	f9400260 	ldr	x0, [x19]
        578c:	38e26800 	ldrsb	w0, [x0, x2]
        5790:	38226a80 	strb	w0, [x20, x2]
        5794:	91000442 	add	x2, x2, #0x1
        5798:	17fffff9 	b	0x577c
        579c:	f9400261 	ldr	x1, [x19]
        57a0:	901fffe0 	adrp	x0, 0x40001000
        57a4:	91200000 	add	x0, x0, #0x800
        57a8:	97fffa95 	bl	0x41fc
        57ac:	f9000274 	str	x20, [x19]
        57b0:	f9000675 	str	x21, [x19, #8]
        57b4:	52800020 	mov	w0, #0x1                   	// #1
        57b8:	a94153f3 	ldp	x19, x20, [sp, #16]
        57bc:	f94013f5 	ldr	x21, [sp, #32]
        57c0:	a8c37bfd 	ldp	x29, x30, [sp], #48
        57c4:	d65f03c0 	ret
        57c8:	52800020 	mov	w0, #0x1                   	// #1
        57cc:	d65f03c0 	ret
        57d0:	52800000 	mov	w0, #0x0                   	// #0
        57d4:	17fffff9 	b	0x57b8
        57d8:	f9400801 	ldr	x1, [x0, #16]
        57dc:	91000421 	add	x1, x1, #0x1
        57e0:	f9400402 	ldr	x2, [x0, #8]
        57e4:	eb02003f 	cmp	x1, x2
        57e8:	54000068 	b.hi	0x57f4  // b.pmore
        57ec:	52800020 	mov	w0, #0x1                   	// #1
        57f0:	d65f03c0 	ret
        57f4:	a9be7bfd 	stp	x29, x30, [sp, #-32]!
        57f8:	910003fd 	mov	x29, sp
        57fc:	f9000bf3 	str	x19, [sp, #16]
        5800:	aa0003f3 	mov	x19, x0
        5804:	aa0203e0 	mov	x0, x2
        5808:	97ffffc5 	bl	0x571c
        580c:	aa0003e1 	mov	x1, x0
        5810:	aa1303e0 	mov	x0, x19
        5814:	97ffffc5 	bl	0x5728
        5818:	12001c00 	and	w0, w0, #0xff
        581c:	f9400bf3 	ldr	x19, [sp, #16]
        5820:	a8c27bfd 	ldp	x29, x30, [sp], #32
        5824:	d65f03c0 	ret
        5828:	a9be7bfd 	stp	x29, x30, [sp, #-32]!
        582c:	910003fd 	mov	x29, sp
        5830:	a90153f3 	stp	x19, x20, [sp, #16]
        5834:	aa0003f3 	mov	x19, x0
        5838:	13001c34 	sxtb	w20, w1
        583c:	97ffffe7 	bl	0x57d8
        5840:	72001c1f 	tst	w0, #0xff
        5844:	540000c0 	b.eq	0x585c  // b.none
        5848:	f9400a60 	ldr	x0, [x19, #16]
        584c:	91000401 	add	x1, x0, #0x1
        5850:	f9000a61 	str	x1, [x19, #16]
        5854:	f9400261 	ldr	x1, [x19]
        5858:	38206834 	strb	w20, [x1, x0]
        585c:	a94153f3 	ldp	x19, x20, [sp, #16]
        5860:	a8c27bfd 	ldp	x29, x30, [sp], #32
        5864:	d65f03c0 	ret
        5868:	a9bd7bfd 	stp	x29, x30, [sp, #-48]!
        586c:	910003fd 	mov	x29, sp
        5870:	a90153f3 	stp	x19, x20, [sp, #16]
        5874:	f90013f5 	str	x21, [sp, #32]
        5878:	aa0003f5 	mov	x21, x0
        587c:	aa0103f4 	mov	x20, x1
        5880:	d2800013 	mov	x19, #0x0                   	// #0
        5884:	aa1403e0 	mov	x0, x20
        5888:	97fffdf3 	bl	0x5054
        588c:	eb13001f 	cmp	x0, x19
        5890:	54000120 	b.eq	0x58b4  // b.none
        5894:	aa1303e1 	mov	x1, x19
        5898:	aa1403e0 	mov	x0, x20
        589c:	97fffdf0 	bl	0x505c
        58a0:	39400001 	ldrb	w1, [x0]
        58a4:	aa1503e0 	mov	x0, x21
        58a8:	97ffffe0 	bl	0x5828
        58ac:	91000673 	add	x19, x19, #0x1
        58b0:	17fffff5 	b	0x5884
        58b4:	aa1503e0 	mov	x0, x21
        58b8:	a94153f3 	ldp	x19, x20, [sp, #16]
        58bc:	f94013f5 	ldr	x21, [sp, #32]
        58c0:	a8c37bfd 	ldp	x29, x30, [sp], #48
        58c4:	d65f03c0 	ret
        58c8:	f9400000 	ldr	x0, [x0]
        58cc:	8b011400 	add	x0, x0, x1, lsl #5
        58d0:	d65f03c0 	ret
        58d4:	f9400022 	ldr	x2, [x1]
        58d8:	f9000002 	str	x2, [x0]
        58dc:	f9400422 	ldr	x2, [x1, #8]
        58e0:	f9000402 	str	x2, [x0, #8]
        58e4:	f9400822 	ldr	x2, [x1, #16]
        58e8:	f9000802 	str	x2, [x0, #16]
        58ec:	f900003f 	str	xzr, [x1]
        58f0:	f900043f 	str	xzr, [x1, #8]
        58f4:	f900083f 	str	xzr, [x1, #16]
        58f8:	d65f03c0 	ret
        58fc:	f9400000 	ldr	x0, [x0]
        5900:	d65f03c0 	ret
        5904:	a9b97bfd 	stp	x29, x30, [sp, #-112]!
        5908:	910003fd 	mov	x29, sp
        590c:	a90153f3 	stp	x19, x20, [sp, #16]
        5910:	a9025bf5 	stp	x21, x22, [sp, #32]
        5914:	a90363f7 	stp	x23, x24, [sp, #48]
        5918:	f90023f9 	str	x25, [sp, #64]
        591c:	aa0803f8 	mov	x24, x8
        5920:	aa0003f4 	mov	x20, x0
        5924:	aa0103f5 	mov	x21, x1
        5928:	aa0203f3 	mov	x19, x2
        592c:	aa0203e1 	mov	x1, x2
        5930:	910163a0 	add	x0, x29, #0x58
        5934:	97fffef8 	bl	0x5514
        5938:	910163a0 	add	x0, x29, #0x58
        593c:	97fffe98 	bl	0x539c
        5940:	aa0003f6 	mov	x22, x0
        5944:	aa0003e4 	mov	x4, x0
        5948:	d2800003 	mov	x3, #0x0                   	// #0
        594c:	52800022 	mov	w2, #0x1                   	// #1
        5950:	aa1503e1 	mov	x1, x21
        5954:	aa1403e0 	mov	x0, x20
        5958:	97ffec8f 	bl	0xb94
        595c:	aa0003f7 	mov	x23, x0
        5960:	d37bea73 	lsl	x19, x19, #5
        5964:	8b150279 	add	x25, x19, x21
        5968:	cb000273 	sub	x19, x19, x0
        596c:	aa1403e0 	mov	x0, x20
        5970:	97ffec57 	bl	0xacc
        5974:	9ac00b21 	udiv	x1, x25, x0
        5978:	9b00e420 	msub	x0, x1, x0, x25
        597c:	cb000273 	sub	x19, x19, x0
        5980:	8b1302e4 	add	x4, x23, x19
        5984:	8b0402c4 	add	x4, x22, x4
        5988:	d2800003 	mov	x3, #0x0                   	// #0
        598c:	52800002 	mov	w2, #0x0                   	// #0
        5990:	aa1903e1 	mov	x1, x25
        5994:	aa1403e0 	mov	x0, x20
        5998:	97ffec7f 	bl	0xb94
        599c:	b50001b3 	cbnz	x19, 0x59d0
        59a0:	910163a1 	add	x1, x29, #0x58
        59a4:	aa1803e0 	mov	x0, x24
        59a8:	97fffe7f 	bl	0x53a4
        59ac:	910163a0 	add	x0, x29, #0x58
        59b0:	97fffe71 	bl	0x5374
        59b4:	aa1803e0 	mov	x0, x24
        59b8:	a94153f3 	ldp	x19, x20, [sp, #16]
        59bc:	a9425bf5 	ldp	x21, x22, [sp, #32]
        59c0:	a94363f7 	ldp	x23, x24, [sp, #48]
        59c4:	f94023f9 	ldr	x25, [sp, #64]
        59c8:	a8c77bfd 	ldp	x29, x30, [sp], #112
        59cc:	d65f03c0 	ret
        59d0:	f9400299 	ldr	x25, [x20]
        59d4:	8b1702b5 	add	x21, x21, x23
        59d8:	aa1403e0 	mov	x0, x20
        59dc:	97ffec3c 	bl	0xacc
        59e0:	9ac00ab5 	udiv	x21, x21, x0
        59e4:	8b1702d6 	add	x22, x22, x23
        59e8:	aa1403e0 	mov	x0, x20
        59ec:	97ffec38 	bl	0xacc
        59f0:	9ac00a63 	udiv	x3, x19, x0
        59f4:	aa1603e2 	mov	x2, x22
        59f8:	aa1503e1 	mov	x1, x21
        59fc:	aa1903e0 	mov	x0, x25
        5a00:	97ffec99 	bl	0xc64
        5a04:	17ffffe7 	b	0x59a0
        5a08:	a9be7bfd 	stp	x29, x30, [sp, #-32]!
        5a0c:	910003fd 	mov	x29, sp
        5a10:	a90153f3 	stp	x19, x20, [sp, #16]
        5a14:	aa0003f3 	mov	x19, x0
        5a18:	aa0103f4 	mov	x20, x1
        5a1c:	f900001f 	str	xzr, [x0]
        5a20:	f900041f 	str	xzr, [x0, #8]
        5a24:	f900081f 	str	xzr, [x0, #16]
        5a28:	f100203f 	cmp	x1, #0x8
        5a2c:	d2800101 	mov	x1, #0x8                   	// #8
        5a30:	9a812281 	csel	x1, x20, x1, cs  // cs = hs, nlast
        5a34:	97ffff3d 	bl	0x5728
        5a38:	72001c1f 	tst	w0, #0xff
        5a3c:	54000040 	b.eq	0x5a44  // b.none
        5a40:	f9000a74 	str	x20, [x19, #16]
        5a44:	a94153f3 	ldp	x19, x20, [sp, #16]
        5a48:	a8c27bfd 	ldp	x29, x30, [sp], #32
        5a4c:	d65f03c0 	ret
        5a50:	a9b97bfd 	stp	x29, x30, [sp, #-112]!
        5a54:	910003fd 	mov	x29, sp
        5a58:	a90153f3 	stp	x19, x20, [sp, #16]
        5a5c:	a9025bf5 	stp	x21, x22, [sp, #32]
        5a60:	a90363f7 	stp	x23, x24, [sp, #48]
        5a64:	f90023f9 	str	x25, [sp, #64]
        5a68:	aa0803f7 	mov	x23, x8
        5a6c:	aa0003f4 	mov	x20, x0
        5a70:	aa0103f5 	mov	x21, x1
        5a74:	aa0203f3 	mov	x19, x2
        5a78:	aa0203e1 	mov	x1, x2
        5a7c:	910163a0 	add	x0, x29, #0x58
        5a80:	97ffffe2 	bl	0x5a08
        5a84:	910163a0 	add	x0, x29, #0x58
        5a88:	97ffff9d 	bl	0x58fc
        5a8c:	aa0003f6 	mov	x22, x0
        5a90:	aa0003e4 	mov	x4, x0
        5a94:	d2800003 	mov	x3, #0x0                   	// #0
        5a98:	52800022 	mov	w2, #0x1                   	// #1
        5a9c:	aa1503e1 	mov	x1, x21
        5aa0:	aa1403e0 	mov	x0, x20
        5aa4:	97ffec3c 	bl	0xb94
        5aa8:	aa0003f8 	mov	x24, x0
        5aac:	8b150279 	add	x25, x19, x21
        5ab0:	cb000273 	sub	x19, x19, x0
        5ab4:	aa1403e0 	mov	x0, x20
        5ab8:	97ffec05 	bl	0xacc
        5abc:	9ac00b21 	udiv	x1, x25, x0
        5ac0:	9b00e420 	msub	x0, x1, x0, x25
        5ac4:	cb000273 	sub	x19, x19, x0
        5ac8:	8b130304 	add	x4, x24, x19
        5acc:	8b0402c4 	add	x4, x22, x4
        5ad0:	d2800003 	mov	x3, #0x0                   	// #0
        5ad4:	52800002 	mov	w2, #0x0                   	// #0
        5ad8:	aa1903e1 	mov	x1, x25
        5adc:	aa1403e0 	mov	x0, x20
        5ae0:	97ffec2d 	bl	0xb94
        5ae4:	b50001b3 	cbnz	x19, 0x5b18
        5ae8:	910163a1 	add	x1, x29, #0x58
        5aec:	aa1703e0 	mov	x0, x23
        5af0:	97ffff79 	bl	0x58d4
        5af4:	910163a0 	add	x0, x29, #0x58
        5af8:	97fffd4d 	bl	0x502c
        5afc:	aa1703e0 	mov	x0, x23
        5b00:	a94153f3 	ldp	x19, x20, [sp, #16]
        5b04:	a9425bf5 	ldp	x21, x22, [sp, #32]
        5b08:	a94363f7 	ldp	x23, x24, [sp, #48]
        5b0c:	f94023f9 	ldr	x25, [sp, #64]
        5b10:	a8c77bfd 	ldp	x29, x30, [sp], #112
        5b14:	d65f03c0 	ret
        5b18:	f9400299 	ldr	x25, [x20]
        5b1c:	8b1802b5 	add	x21, x21, x24
        5b20:	aa1403e0 	mov	x0, x20
        5b24:	97ffebea 	bl	0xacc
        5b28:	9ac00ab5 	udiv	x21, x21, x0
        5b2c:	8b1802d6 	add	x22, x22, x24
        5b30:	aa1403e0 	mov	x0, x20
        5b34:	97ffebe6 	bl	0xacc
        5b38:	9ac00a63 	udiv	x3, x19, x0
        5b3c:	aa1603e2 	mov	x2, x22
        5b40:	aa1503e1 	mov	x1, x21
        5b44:	aa1903e0 	mov	x0, x25
        5b48:	97ffec47 	bl	0xc64
        5b4c:	17ffffe7 	b	0x5ae8
        5b50:	8b000400 	add	x0, x0, x0, lsl #1
        5b54:	d341fc00 	lsr	x0, x0, #1
        5b58:	d65f03c0 	ret
        5b5c:	f9400801 	ldr	x1, [x0, #16]
        5b60:	91000421 	add	x1, x1, #0x1
        5b64:	f9400402 	ldr	x2, [x0, #8]
        5b68:	eb02003f 	cmp	x1, x2
        5b6c:	54000068 	b.hi	0x5b78  // b.pmore
        5b70:	52800020 	mov	w0, #0x1                   	// #1
        5b74:	d65f03c0 	ret
        5b78:	a9be7bfd 	stp	x29, x30, [sp, #-32]!
        5b7c:	910003fd 	mov	x29, sp
        5b80:	f9000bf3 	str	x19, [sp, #16]
        5b84:	aa0003f3 	mov	x19, x0
        5b88:	aa0203e0 	mov	x0, x2
        5b8c:	97fffff1 	bl	0x5b50
        5b90:	aa0003e1 	mov	x1, x0
        5b94:	aa1303e0 	mov	x0, x19
        5b98:	97fffe2d 	bl	0x544c
        5b9c:	12001c00 	and	w0, w0, #0xff
        5ba0:	f9400bf3 	ldr	x19, [sp, #16]
        5ba4:	a8c27bfd 	ldp	x29, x30, [sp], #32
        5ba8:	d65f03c0 	ret
        5bac:	a9be7bfd 	stp	x29, x30, [sp, #-32]!
        5bb0:	910003fd 	mov	x29, sp
        5bb4:	a90153f3 	stp	x19, x20, [sp, #16]
        5bb8:	aa0003f3 	mov	x19, x0
        5bbc:	aa0103f4 	mov	x20, x1
        5bc0:	97ffffe7 	bl	0x5b5c
        5bc4:	72001c1f 	tst	w0, #0xff
        5bc8:	54000140 	b.eq	0x5bf0  // b.none
        5bcc:	f9400a60 	ldr	x0, [x19, #16]
        5bd0:	91000400 	add	x0, x0, #0x1
        5bd4:	f9000a60 	str	x0, [x19, #16]
        5bd8:	f9400261 	ldr	x1, [x19]
        5bdc:	8b001420 	add	x0, x1, x0, lsl #5
        5be0:	a9400e82 	ldp	x2, x3, [x20]
        5be4:	a93e0c02 	stp	x2, x3, [x0, #-32]
        5be8:	a9410e82 	ldp	x2, x3, [x20, #16]
        5bec:	a93f0c02 	stp	x2, x3, [x0, #-16]
        5bf0:	a94153f3 	ldp	x19, x20, [sp, #16]
        5bf4:	a8c27bfd 	ldp	x29, x30, [sp], #32
        5bf8:	d65f03c0 	ret
        5bfc:	a9bb7bfd 	stp	x29, x30, [sp, #-80]!
        5c00:	910003fd 	mov	x29, sp
        5c04:	a90153f3 	stp	x19, x20, [sp, #16]
        5c08:	f90013f5 	str	x21, [sp, #32]
        5c0c:	aa0003f5 	mov	x21, x0
        5c10:	aa0103f4 	mov	x20, x1
        5c14:	d2800013 	mov	x19, #0x0                   	// #0
        5c18:	aa1403e0 	mov	x0, x20
        5c1c:	97fffdf6 	bl	0x53f4
        5c20:	eb13001f 	cmp	x0, x19
        5c24:	540001a0 	b.eq	0x5c58  // b.none
        5c28:	aa1303e1 	mov	x1, x19
        5c2c:	aa1403e0 	mov	x0, x20
        5c30:	97fffdf3 	bl	0x53fc
        5c34:	a9400c02 	ldp	x2, x3, [x0]
        5c38:	a9030fa2 	stp	x2, x3, [x29, #48]
        5c3c:	a9410400 	ldp	x0, x1, [x0, #16]
        5c40:	a90407a0 	stp	x0, x1, [x29, #64]
        5c44:	9100c3a1 	add	x1, x29, #0x30
        5c48:	aa1503e0 	mov	x0, x21
        5c4c:	97ffffd8 	bl	0x5bac
        5c50:	91000673 	add	x19, x19, #0x1
        5c54:	17fffff1 	b	0x5c18
        5c58:	aa1503e0 	mov	x0, x21
        5c5c:	a94153f3 	ldp	x19, x20, [sp, #16]
        5c60:	f94013f5 	ldr	x21, [sp, #32]
        5c64:	a8c57bfd 	ldp	x29, x30, [sp], #80
        5c68:	d65f03c0 	ret
        5c6c:	f9400000 	ldr	x0, [x0]
        5c70:	d65f03c0 	ret
        5c74:	f9400400 	ldr	x0, [x0, #8]
        5c78:	d65f03c0 	ret
        5c7c:	f9000001 	str	x1, [x0]
        5c80:	d65f03c0 	ret
        5c84:	f9000401 	str	x1, [x0, #8]
        5c88:	d65f03c0 	ret
        5c8c:	a9bd7bfd 	stp	x29, x30, [sp, #-48]!
        5c90:	910003fd 	mov	x29, sp
        5c94:	a90153f3 	stp	x19, x20, [sp, #16]
        5c98:	f90013f5 	str	x21, [sp, #32]
        5c9c:	aa0003f5 	mov	x21, x0
        5ca0:	aa0103f3 	mov	x19, x1
        5ca4:	f100203f 	cmp	x1, #0x8
        5ca8:	d2800114 	mov	x20, #0x8                   	// #8
        5cac:	9a942034 	csel	x20, x1, x20, cs  // cs = hs, nlast
        5cb0:	aa1403e1 	mov	x1, x20
        5cb4:	97fffe9d 	bl	0x5728
        5cb8:	72001c1f 	tst	w0, #0xff
        5cbc:	54000040 	b.eq	0x5cc4  // b.none
        5cc0:	f9000ab3 	str	x19, [x21, #16]
        5cc4:	f9400aa0 	ldr	x0, [x21, #16]
        5cc8:	eb13001f 	cmp	x0, x19
        5ccc:	540000c0 	b.eq	0x5ce4  // b.none
        5cd0:	52800000 	mov	w0, #0x0                   	// #0
        5cd4:	a94153f3 	ldp	x19, x20, [sp, #16]
        5cd8:	f94013f5 	ldr	x21, [sp, #32]
        5cdc:	a8c37bfd 	ldp	x29, x30, [sp], #48
        5ce0:	d65f03c0 	ret
        5ce4:	f94006a0 	ldr	x0, [x21, #8]
        5ce8:	eb14001f 	cmp	x0, x20
        5cec:	54000060 	b.eq	0x5cf8  // b.none
        5cf0:	52800000 	mov	w0, #0x0                   	// #0
        5cf4:	17fffff8 	b	0x5cd4
        5cf8:	52800020 	mov	w0, #0x1                   	// #1
        5cfc:	17fffff6 	b	0x5cd4
        5d00:	f9000001 	str	x1, [x0]
        5d04:	f9000402 	str	x2, [x0, #8]
        5d08:	d65f03c0 	ret
        5d0c:	f9400000 	ldr	x0, [x0]
        5d10:	d65f03c0 	ret
        5d14:	f9000001 	str	x1, [x0]
        5d18:	d65f03c0 	ret
        5d1c:	a9be7bfd 	stp	x29, x30, [sp, #-32]!
        5d20:	910003fd 	mov	x29, sp
        5d24:	f9000bf3 	str	x19, [sp, #16]
        5d28:	901ffff3 	adrp	x19, 0x40001000
        5d2c:	91208273 	add	x19, x19, #0x820
        5d30:	d2800823 	mov	x3, #0x41                  	// #65
        5d34:	aa1303e2 	mov	x2, x19
        5d38:	52800141 	mov	w1, #0xa                   	// #10
        5d3c:	f9400000 	ldr	x0, [x0]
        5d40:	97fff9a4 	bl	0x43d0
        5d44:	aa1303e0 	mov	x0, x19
        5d48:	f9400bf3 	ldr	x19, [sp, #16]
        5d4c:	a8c27bfd 	ldp	x29, x30, [sp], #32
        5d50:	d65f03c0 	ret
	...
        5d5c:	00000001 	.inst	0x00000001 ; undefined
        5d60:	00000002 	.inst	0x00000002 ; undefined
        5d64:	00000003 	.inst	0x00000003 ; undefined
        5d68:	00000004 	.inst	0x00000004 ; undefined
        5d6c:	00000004 	.inst	0x00000004 ; undefined
        5d70:	00000005 	.inst	0x00000005 ; undefined
        5d74:	00000006 	.inst	0x00000006 ; undefined
        5d78:	00000007 	.inst	0x00000007 ; undefined
	...
        5d84:	00000001 	.inst	0x00000001 ; undefined
        5d88:	00000002 	.inst	0x00000002 ; undefined
        5d8c:	00000003 	.inst	0x00000003 ; undefined
        5d90:	00000005 	.inst	0x00000005 ; undefined
        5d94:	00000006 	.inst	0x00000006 ; undefined
        5d98:	00000007 	.inst	0x00000007 ; undefined
        5d9c:	00000000 	.inst	0x00000000 ; undefined
        5da0:	00000020 	.inst	0x00000020 ; undefined
        5da4:	00000024 	.inst	0x00000024 ; undefined
        5da8:	00000028 	.inst	0x00000028 ; undefined
        5dac:	0000002a 	.inst	0x0000002a ; undefined
        5db0:	0000002c 	.inst	0x0000002c ; undefined
        5db4:	00000030 	.inst	0x00000030 ; undefined
        5db8:	00000034 	.inst	0x00000034 ; undefined
        5dbc:	00000000 	.inst	0x00000000 ; undefined
        5dc0:	00000002 	.inst	0x00000002 ; undefined
        5dc4:	00000006 	.inst	0x00000006 ; undefined
        5dc8:	00000001 	.inst	0x00000001 ; undefined
        5dcc:	00000003 	.inst	0x00000003 ; undefined
        5dd0:	00000005 	.inst	0x00000005 ; undefined
        5dd4:	00000009 	.inst	0x00000009 ; undefined
        5dd8:	7fffffff 	.inst	0x7fffffff ; undefined
        5ddc:	00000000 	.inst	0x00000000 ; undefined
        5de0:	33323130 	.inst	0x33323130 ; undefined
        5de4:	37363534 	tbnz	w20, #6, 0x2488
        5de8:	62613938 	.inst	0x62613938 ; undefined
        5dec:	66656463 	.inst	0x66656463 ; undefined
	...
        5df8:	6f6c6c61 	.inst	0x6f6c6c61 ; undefined
        5dfc:	65746163 	fnmls	z3.h, p0/m, z11.h, z20.h
        5e00:	6f702064 	umlal2	v4.4s, v3.8h, v0.h[3]
        5e04:	65746e69 	fnmls	z9.h, p3/m, z19.h, z20.h
        5e08:	73692072 	.inst	0x73692072 ; undefined
        5e0c:	00000020 	.inst	0x00000020 ; undefined
        5e10:	657a6973 	fnmls	z19.h, p2/m, z11.h, z26.h
        5e14:	4228666f 	.inst	0x4228666f ; undefined
        5e18:	20294250 	.inst	0x20294250 ; undefined
        5e1c:	0000203d 	.inst	0x0000203d ; undefined
        5e20:	6973202c 	ldpsw	x12, x8, [x1, #-104]
        5e24:	666f657a 	.inst	0x666f657a ; undefined
        5e28:	74784528 	.inst	0x74784528 ; undefined
        5e2c:	50423233 	adr	x19, 0x8a472
        5e30:	003d2942 	.inst	0x003d2942 ; NYI
        5e34:	00000000 	.inst	0x00000000 ; undefined
        5e38:	62706226 	.inst	0x62706226 ; undefined
        5e3c:	00203d20 	.inst	0x00203d20 ; NYI
        5e40:	657a6973 	fnmls	z19.h, p2/m, z11.h, z26.h
        5e44:	4528666f 	.inst	0x4528666f ; undefined
        5e48:	50427478 	adr	x24, 0x8acd6
        5e4c:	29323342 	stp	w2, w12, [x26, #-112]
        5e50:	00203d20 	.inst	0x00203d20 ; NYI
        5e54:	00000000 	.inst	0x00000000 ; undefined
        5e58:	7366666f 	.inst	0x7366666f ; undefined
        5e5c:	666f7465 	.inst	0x666f7465 ; undefined
        5e60:	74784528 	.inst	0x74784528 ; undefined
        5e64:	33425042 	.inst	0x33425042 ; undefined
        5e68:	53422c32 	.inst	0x53422c32 ; undefined
        5e6c:	706d6a5f 	adr	xzr, 0xe0bb7
        5e70:	746f6f42 	.inst	0x746f6f42 ; undefined
        5e74:	203d2029 	.inst	0x203d2029 ; undefined
	...
        5e80:	7366666f 	.inst	0x7366666f ; undefined
        5e84:	666f7465 	.inst	0x666f7465 ; undefined
        5e88:	74784528 	.inst	0x74784528 ; undefined
        5e8c:	33425042 	.inst	0x33425042 ; undefined
        5e90:	53422c32 	.inst	0x53422c32 ; undefined
        5e94:	4d454f5f 	.inst	0x4d454f5f ; undefined
        5e98:	656d614e 	fnmls	z14.h, p0/m, z10.h, z13.h
        5e9c:	203d2029 	.inst	0x203d2029 ; undefined
	...
        5ea8:	7366666f 	.inst	0x7366666f ; undefined
        5eac:	666f7465 	.inst	0x666f7465 ; undefined
        5eb0:	74784528 	.inst	0x74784528 ; undefined
        5eb4:	33425042 	.inst	0x33425042 ; undefined
        5eb8:	79622c32 	ldrh	w18, [x1, #4374]
        5ebc:	50736574 	adr	x20, 0xecb6a
        5ec0:	65537265 	fcmeq	p5.h, p4/z, z19.h, z19.h
        5ec4:	3d202963 	str	b3, [x11, #2058]
        5ec8:	00000020 	.inst	0x00000020 ; undefined
        5ecc:	00000000 	.inst	0x00000000 ; undefined
        5ed0:	7366666f 	.inst	0x7366666f ; undefined
        5ed4:	666f7465 	.inst	0x666f7465 ; undefined
        5ed8:	74784528 	.inst	0x74784528 ; undefined
        5edc:	33425042 	.inst	0x33425042 ; undefined
        5ee0:	65732c32 	fmls	z18.h, p3/m, z1.h, z19.h
        5ee4:	72655063 	.inst	0x72655063 ; undefined
        5ee8:	73756c43 	.inst	0x73756c43 ; undefined
        5eec:	203d2029 	.inst	0x203d2029 ; undefined
	...
        5ef8:	7366666f 	.inst	0x7366666f ; undefined
        5efc:	666f7465 	.inst	0x666f7465 ; undefined
        5f00:	74784528 	.inst	0x74784528 ; undefined
        5f04:	33425042 	.inst	0x33425042 ; undefined
        5f08:	73722c32 	.inst	0x73722c32 ; undefined
        5f0c:	65536476 	fcmne	p6.h, p1/z, z3.h, z19.h
        5f10:	746e4363 	.inst	0x746e4363 ; undefined
        5f14:	203d2029 	.inst	0x203d2029 ; undefined
	...
        5f20:	7366666f 	.inst	0x7366666f ; undefined
        5f24:	666f7465 	.inst	0x666f7465 ; undefined
        5f28:	74784528 	.inst	0x74784528 ; undefined
        5f2c:	33425042 	.inst	0x33425042 ; undefined
        5f30:	756e2c32 	.inst	0x756e2c32 ; undefined
        5f34:	5441466d 	b.le	0x88800
        5f38:	3d202973 	str	b19, [x11, #2058]
        5f3c:	00000020 	.inst	0x00000020 ; undefined
        5f40:	7366666f 	.inst	0x7366666f ; undefined
        5f44:	666f7465 	.inst	0x666f7465 ; undefined
        5f48:	74784528 	.inst	0x74784528 ; undefined
        5f4c:	33425042 	.inst	0x33425042 ; undefined
        5f50:	6f722c32 	.inst	0x6f722c32 ; undefined
        5f54:	6e45746f 	.inst	0x6e45746f ; undefined
        5f58:	746e4374 	.inst	0x746e4374 ; undefined
        5f5c:	203d2029 	.inst	0x203d2029 ; undefined
	...
        5f68:	7366666f 	.inst	0x7366666f ; undefined
        5f6c:	666f7465 	.inst	0x666f7465 ; undefined
        5f70:	74784528 	.inst	0x74784528 ; undefined
        5f74:	33425042 	.inst	0x33425042 ; undefined
        5f78:	6f742c32 	.inst	0x6f742c32 ; undefined
        5f7c:	63655374 	.inst	0x63655374 ; undefined
        5f80:	20293631 	.inst	0x20293631 ; undefined
        5f84:	0000203d 	.inst	0x0000203d ; undefined
        5f88:	7366666f 	.inst	0x7366666f ; undefined
        5f8c:	666f7465 	.inst	0x666f7465 ; undefined
        5f90:	74784528 	.inst	0x74784528 ; undefined
        5f94:	33425042 	.inst	0x33425042 ; undefined
        5f98:	656d2c32 	fmls	z18.h, p3/m, z1.h, z13.h
        5f9c:	29616964 	ldp	w4, w26, [x11, #-248]
        5fa0:	00203d20 	.inst	0x00203d20 ; NYI
        5fa4:	00000000 	.inst	0x00000000 ; undefined
        5fa8:	7366666f 	.inst	0x7366666f ; undefined
        5fac:	666f7465 	.inst	0x666f7465 ; undefined
        5fb0:	74784528 	.inst	0x74784528 ; undefined
        5fb4:	33425042 	.inst	0x33425042 ; undefined
        5fb8:	41462c32 	.inst	0x41462c32 ; undefined
        5fbc:	317a5354 	adds	w20, w26, #0xe94, lsl #12
        5fc0:	3d202936 	str	b22, [x9, #2058]
        5fc4:	00000020 	.inst	0x00000020 ; undefined
        5fc8:	7366666f 	.inst	0x7366666f ; undefined
        5fcc:	666f7465 	.inst	0x666f7465 ; undefined
        5fd0:	74784528 	.inst	0x74784528 ; undefined
        5fd4:	33425042 	.inst	0x33425042 ; undefined
        5fd8:	65732c32 	fmls	z18.h, p3/m, z1.h, z19.h
        5fdc:	72655063 	.inst	0x72655063 ; undefined
        5fe0:	296b7254 	ldp	w20, w28, [x18, #-168]
        5fe4:	00203d20 	.inst	0x00203d20 ; NYI
        5fe8:	7366666f 	.inst	0x7366666f ; undefined
        5fec:	666f7465 	.inst	0x666f7465 ; undefined
        5ff0:	74784528 	.inst	0x74784528 ; undefined
        5ff4:	33425042 	.inst	0x33425042 ; undefined
        5ff8:	756e2c32 	.inst	0x756e2c32 ; undefined
        5ffc:	6165486d 	.inst	0x6165486d ; undefined
        6000:	20297364 	.inst	0x20297364 ; undefined
        6004:	0000203d 	.inst	0x0000203d ; undefined
        6008:	7366666f 	.inst	0x7366666f ; undefined
        600c:	666f7465 	.inst	0x666f7465 ; undefined
        6010:	74784528 	.inst	0x74784528 ; undefined
        6014:	33425042 	.inst	0x33425042 ; undefined
        6018:	69682c32 	ldpsw	x18, x11, [x1, #-192]
        601c:	65536464 	fcmeq	p4.h, p1/z, z3.h, z19.h
        6020:	3d202963 	str	b3, [x11, #2058]
        6024:	00000020 	.inst	0x00000020 ; undefined
        6028:	7366666f 	.inst	0x7366666f ; undefined
        602c:	666f7465 	.inst	0x666f7465 ; undefined
        6030:	74784528 	.inst	0x74784528 ; undefined
        6034:	33425042 	.inst	0x33425042 ; undefined
        6038:	6f742c32 	.inst	0x6f742c32 ; undefined
        603c:	63655374 	.inst	0x63655374 ; undefined
        6040:	20293233 	.inst	0x20293233 ; undefined
        6044:	0000203d 	.inst	0x0000203d ; undefined
        6048:	7366666f 	.inst	0x7366666f ; undefined
        604c:	666f7465 	.inst	0x666f7465 ; undefined
        6050:	74784528 	.inst	0x74784528 ; undefined
        6054:	33425042 	.inst	0x33425042 ; undefined
        6058:	41462c32 	.inst	0x41462c32 ; undefined
        605c:	337a5354 	.inst	0x337a5354 ; undefined
        6060:	3d202932 	str	b18, [x9, #2058]
        6064:	00000020 	.inst	0x00000020 ; undefined
        6068:	7366666f 	.inst	0x7366666f ; undefined
        606c:	666f7465 	.inst	0x666f7465 ; undefined
        6070:	74784528 	.inst	0x74784528 ; undefined
        6074:	33425042 	.inst	0x33425042 ; undefined
        6078:	78652c32 	.inst	0x78652c32 ; undefined
        607c:	616c4674 	.inst	0x616c4674 ; undefined
        6080:	20297367 	.inst	0x20297367 ; undefined
        6084:	0000203d 	.inst	0x0000203d ; undefined
        6088:	7366666f 	.inst	0x7366666f ; undefined
        608c:	666f7465 	.inst	0x666f7465 ; undefined
        6090:	74784528 	.inst	0x74784528 ; undefined
        6094:	33425042 	.inst	0x33425042 ; undefined
        6098:	53462c32 	.inst	0x53462c32 ; undefined
        609c:	29726556 	ldp	w22, w25, [x10, #-112]
        60a0:	00203d20 	.inst	0x00203d20 ; NYI
        60a4:	00000000 	.inst	0x00000000 ; undefined
        60a8:	7366666f 	.inst	0x7366666f ; undefined
        60ac:	666f7465 	.inst	0x666f7465 ; undefined
        60b0:	74784528 	.inst	0x74784528 ; undefined
        60b4:	33425042 	.inst	0x33425042 ; undefined
        60b8:	6f722c32 	.inst	0x6f722c32 ; undefined
        60bc:	6c43746f 	ldnp	d15, d29, [x3, #48]
        60c0:	20297375 	.inst	0x20297375 ; undefined
        60c4:	0000203d 	.inst	0x0000203d ; undefined
        60c8:	7366666f 	.inst	0x7366666f ; undefined
        60cc:	666f7465 	.inst	0x666f7465 ; undefined
        60d0:	74784528 	.inst	0x74784528 ; undefined
        60d4:	33425042 	.inst	0x33425042 ; undefined
        60d8:	53462c32 	.inst	0x53462c32 ; undefined
        60dc:	6f666e49 	.inst	0x6f666e49 ; undefined
        60e0:	203d2029 	.inst	0x203d2029 ; undefined
        60e4:	00000000 	.inst	0x00000000 ; undefined
        60e8:	7366666f 	.inst	0x7366666f ; undefined
        60ec:	666f7465 	.inst	0x666f7465 ; undefined
        60f0:	74784528 	.inst	0x74784528 ; undefined
        60f4:	33425042 	.inst	0x33425042 ; undefined
        60f8:	6b622c32 	.inst	0x6b622c32 ; undefined
        60fc:	746f6f42 	.inst	0x746f6f42 ; undefined
        6100:	20296553 	.inst	0x20296553 ; undefined
        6104:	0000203d 	.inst	0x0000203d ; undefined
        6108:	7366666f 	.inst	0x7366666f ; undefined
        610c:	666f7465 	.inst	0x666f7465 ; undefined
        6110:	74784528 	.inst	0x74784528 ; undefined
        6114:	33425042 	.inst	0x33425042 ; undefined
        6118:	65722c32 	fmls	z18.h, p3/m, z1.h, z18.h
        611c:	76726573 	.inst	0x76726573 ; undefined
        6120:	20296465 	.inst	0x20296465 ; undefined
        6124:	0000203d 	.inst	0x0000203d ; undefined
        6128:	7366666f 	.inst	0x7366666f ; undefined
        612c:	666f7465 	.inst	0x666f7465 ; undefined
        6130:	74784528 	.inst	0x74784528 ; undefined
        6134:	33425042 	.inst	0x33425042 ; undefined
        6138:	53422c32 	.inst	0x53422c32 ; undefined
        613c:	7672445f 	.inst	0x7672445f ; undefined
        6140:	296d754e 	ldp	w14, w29, [x10, #-152]
        6144:	00203d20 	.inst	0x00203d20 ; NYI
        6148:	7366666f 	.inst	0x7366666f ; undefined
        614c:	666f7465 	.inst	0x666f7465 ; undefined
        6150:	74784528 	.inst	0x74784528 ; undefined
        6154:	33425042 	.inst	0x33425042 ; undefined
        6158:	53422c32 	.inst	0x53422c32 ; undefined
        615c:	7365525f 	.inst	0x7365525f ; undefined
        6160:	65767265 	fnmls	z5.h, p4/m, z19.h, z22.h
        6164:	20293164 	.inst	0x20293164 ; undefined
        6168:	0000203d 	.inst	0x0000203d ; undefined
        616c:	00000000 	.inst	0x00000000 ; undefined
        6170:	7366666f 	.inst	0x7366666f ; undefined
        6174:	666f7465 	.inst	0x666f7465 ; undefined
        6178:	74784528 	.inst	0x74784528 ; undefined
        617c:	33425042 	.inst	0x33425042 ; undefined
        6180:	53422c32 	.inst	0x53422c32 ; undefined
        6184:	6f6f425f 	mls	v31.8h, v18.8h, v15.h[2]
        6188:	67695374 	.inst	0x67695374 ; undefined
        618c:	203d2029 	.inst	0x203d2029 ; undefined
	...
        6198:	7366666f 	.inst	0x7366666f ; undefined
        619c:	666f7465 	.inst	0x666f7465 ; undefined
        61a0:	74784528 	.inst	0x74784528 ; undefined
        61a4:	33425042 	.inst	0x33425042 ; undefined
        61a8:	53422c32 	.inst	0x53422c32 ; undefined
        61ac:	6c6f565f 	ldnp	d31, d21, [x18, #-272]
        61b0:	20294449 	.inst	0x20294449 ; undefined
        61b4:	0000203d 	.inst	0x0000203d ; undefined
        61b8:	7366666f 	.inst	0x7366666f ; undefined
        61bc:	666f7465 	.inst	0x666f7465 ; undefined
        61c0:	74784528 	.inst	0x74784528 ; undefined
        61c4:	33425042 	.inst	0x33425042 ; undefined
        61c8:	53422c32 	.inst	0x53422c32 ; undefined
        61cc:	6c6f565f 	ldnp	d31, d21, [x18, #-272]
        61d0:	2962614c 	ldp	w12, w24, [x10, #-240]
        61d4:	00203d20 	.inst	0x00203d20 ; NYI
        61d8:	7366666f 	.inst	0x7366666f ; undefined
        61dc:	666f7465 	.inst	0x666f7465 ; undefined
        61e0:	74784528 	.inst	0x74784528 ; undefined
        61e4:	33425042 	.inst	0x33425042 ; undefined
        61e8:	53422c32 	.inst	0x53422c32 ; undefined
        61ec:	6c69465f 	ldnp	d31, d17, [x18, #-368]
        61f0:	54737953 	.inst	0x54737953 ; undefined
        61f4:	29657079 	ldp	w25, w28, [x3, #-216]
        61f8:	00203d20 	.inst	0x00203d20 ; NYI
        61fc:	00000000 	.inst	0x00000000 ; undefined
        6200:	7366666f 	.inst	0x7366666f ; undefined
        6204:	666f7465 	.inst	0x666f7465 ; undefined
        6208:	74784528 	.inst	0x74784528 ; undefined
        620c:	33425042 	.inst	0x33425042 ; undefined
        6210:	6e752c32 	uqsub	v18.8h, v1.8h, v21.8h
        6214:	69666564 	ldpsw	x4, x25, [x11, #-208]
        6218:	2964656e 	ldp	w14, w25, [x11, #-224]
        621c:	00203d20 	.inst	0x00203d20 ; NYI
        6220:	7366666f 	.inst	0x7366666f ; undefined
        6224:	666f7465 	.inst	0x666f7465 ; undefined
        6228:	74784528 	.inst	0x74784528 ; undefined
        622c:	33425042 	.inst	0x33425042 ; undefined
        6230:	69532c32 	ldpsw	x18, x11, [x1, #152]
        6234:	74616e67 	.inst	0x74616e67 ; undefined
        6238:	5f657275 	sqdmlsl	s21, h19, v5.h[2]
        623c:	64726f77 	.inst	0x64726f77 ; undefined
        6240:	203d2029 	.inst	0x203d2029 ; undefined
        6244:	00000000 	.inst	0x00000000 ; undefined
        6248:	2d627062 	ldp	s2, s28, [x3, #-240]
        624c:	7479623e 	.inst	0x7479623e ; undefined
        6250:	65507365 	fcmeq	p5.h, p4/z, z27.h, z16.h
        6254:	63655372 	.inst	0x63655372 ; undefined
        6258:	00203d20 	.inst	0x00203d20 ; NYI
        625c:	00000000 	.inst	0x00000000 ; undefined
        6260:	2d627062 	ldp	s2, s28, [x3, #-240]
        6264:	6365733e 	.inst	0x6365733e ; undefined
        6268:	43726550 	.inst	0x43726550 ; undefined
        626c:	2073756c 	.inst	0x2073756c ; undefined
        6270:	0000203d 	.inst	0x0000203d ; undefined
        6274:	00000000 	.inst	0x00000000 ; undefined
        6278:	2d627062 	ldp	s2, s28, [x3, #-240]
        627c:	7673723e 	.inst	0x7673723e ; undefined
        6280:	63655364 	.inst	0x63655364 ; undefined
        6284:	20746e43 	.inst	0x20746e43 ; undefined
        6288:	0000203d 	.inst	0x0000203d ; undefined
        628c:	00000000 	.inst	0x00000000 ; undefined
        6290:	2d627062 	ldp	s2, s28, [x3, #-240]
        6294:	6d756e3e 	ldp	d30, d27, [x17, #-176]
        6298:	73544146 	.inst	0x73544146 ; undefined
        629c:	00203d20 	.inst	0x00203d20 ; NYI
        62a0:	2d627062 	ldp	s2, s28, [x3, #-240]
        62a4:	6f6f723e 	fcmla	v30.8h, v17.8h, v15.h[1], #270
        62a8:	746e4574 	.inst	0x746e4574 ; undefined
        62ac:	20746e43 	.inst	0x20746e43 ; undefined
        62b0:	0000203d 	.inst	0x0000203d ; undefined
        62b4:	00000000 	.inst	0x00000000 ; undefined
        62b8:	2d627062 	ldp	s2, s28, [x3, #-240]
        62bc:	746f743e 	.inst	0x746f743e ; undefined
        62c0:	31636553 	adds	w19, w10, #0x8d9, lsl #12
        62c4:	203d2036 	.inst	0x203d2036 ; undefined
	...
        62d0:	2d627062 	ldp	s2, s28, [x3, #-240]
        62d4:	64656d3e 	.inst	0x64656d3e ; undefined
        62d8:	3d206169 	str	b9, [x11, #2072]
        62dc:	00000020 	.inst	0x00000020 ; undefined
        62e0:	2d627062 	ldp	s2, s28, [x3, #-240]
        62e4:	5441463e 	.inst	0x5441463e ; undefined
        62e8:	36317a53 	tbz	w19, #6, 0x9230
        62ec:	00203d20 	.inst	0x00203d20 ; NYI
        62f0:	2d627062 	ldp	s2, s28, [x3, #-240]
        62f4:	6365733e 	.inst	0x6365733e ; undefined
        62f8:	54726550 	.inst	0x54726550 ; undefined
        62fc:	3d206b72 	str	b18, [x27, #2074]
        6300:	00000020 	.inst	0x00000020 ; undefined
        6304:	00000000 	.inst	0x00000000 ; undefined
        6308:	2d627062 	ldp	s2, s28, [x3, #-240]
        630c:	6d756e3e 	ldp	d30, d27, [x17, #-176]
        6310:	64616548 	.inst	0x64616548 ; undefined
        6314:	203d2073 	.inst	0x203d2073 ; undefined
	...
        6320:	2d627062 	ldp	s2, s28, [x3, #-240]
        6324:	6469683e 	.inst	0x6469683e ; undefined
        6328:	63655364 	.inst	0x63655364 ; undefined
        632c:	00203d20 	.inst	0x00203d20 ; NYI
        6330:	2d627062 	ldp	s2, s28, [x3, #-240]
        6334:	746f743e 	.inst	0x746f743e ; undefined
        6338:	33636553 	.inst	0x33636553 ; undefined
        633c:	203d2032 	.inst	0x203d2032 ; undefined
	...
        6348:	2d627062 	ldp	s2, s28, [x3, #-240]
        634c:	5441463e 	.inst	0x5441463e ; undefined
        6350:	32337a53 	orr	w19, w18, #0xffffefff
        6354:	00203d20 	.inst	0x00203d20 ; NYI
        6358:	2d627062 	ldp	s2, s28, [x3, #-240]
        635c:	7478653e 	.inst	0x7478653e ; undefined
        6360:	67616c46 	.inst	0x67616c46 ; undefined
        6364:	203d2073 	.inst	0x203d2073 ; undefined
	...
        6370:	2d627062 	ldp	s2, s28, [x3, #-240]
        6374:	5653463e 	.inst	0x5653463e ; undefined
        6378:	3d207265 	str	b5, [x19, #2076]
        637c:	00000020 	.inst	0x00000020 ; undefined
        6380:	2d627062 	ldp	s2, s28, [x3, #-240]
        6384:	6f6f723e 	fcmla	v30.8h, v17.8h, v15.h[1], #270
        6388:	756c4374 	.inst	0x756c4374 ; undefined
        638c:	203d2073 	.inst	0x203d2073 ; undefined
	...
        6398:	2d627062 	ldp	s2, s28, [x3, #-240]
        639c:	4953463e 	.inst	0x4953463e ; undefined
        63a0:	206f666e 	.inst	0x206f666e ; undefined
        63a4:	0000203d 	.inst	0x0000203d ; undefined
        63a8:	2d627062 	ldp	s2, s28, [x3, #-240]
        63ac:	426b623e 	.inst	0x426b623e ; undefined
        63b0:	53746f6f 	.inst	0x53746f6f ; undefined
        63b4:	203d2065 	.inst	0x203d2065 ; undefined
	...
        63c0:	2d627062 	ldp	s2, s28, [x3, #-240]
        63c4:	7365723e 	.inst	0x7365723e ; undefined
        63c8:	65767265 	fnmls	z5.h, p4/m, z19.h, z22.h
        63cc:	203d2064 	.inst	0x203d2064 ; undefined
	...
        63d8:	2d627062 	ldp	s2, s28, [x3, #-240]
        63dc:	5f53423e 	.inst	0x5f53423e ; undefined
        63e0:	4e767244 	sabdl2	v4.4s, v18.8h, v22.8h
        63e4:	3d206d75 	str	b21, [x11, #2075]
        63e8:	00000020 	.inst	0x00000020 ; undefined
        63ec:	00000000 	.inst	0x00000000 ; undefined
        63f0:	2d627062 	ldp	s2, s28, [x3, #-240]
        63f4:	5f53423e 	.inst	0x5f53423e ; undefined
        63f8:	65736552 	fnmls	z18.h, p1/m, z10.h, z19.h
        63fc:	64657672 	.inst	0x64657672 ; undefined
        6400:	203d2031 	.inst	0x203d2031 ; undefined
        6404:	00000000 	.inst	0x00000000 ; undefined
        6408:	2d627062 	ldp	s2, s28, [x3, #-240]
        640c:	5f53423e 	.inst	0x5f53423e ; undefined
        6410:	746f6f42 	.inst	0x746f6f42 ; undefined
        6414:	20676953 	.inst	0x20676953 ; undefined
        6418:	0000203d 	.inst	0x0000203d ; undefined
        641c:	00000000 	.inst	0x00000000 ; undefined
        6420:	2d627062 	ldp	s2, s28, [x3, #-240]
        6424:	5f53423e 	.inst	0x5f53423e ; undefined
        6428:	496c6f56 	.inst	0x496c6f56 ; undefined
        642c:	203d2044 	.inst	0x203d2044 ; undefined
	...
        6438:	2d627062 	ldp	s2, s28, [x3, #-240]
        643c:	5f53423e 	.inst	0x5f53423e ; undefined
        6440:	4c6c6f56 	.inst	0x4c6c6f56 ; undefined
        6444:	3d206261 	str	b1, [x19, #2072]
        6448:	00000020 	.inst	0x00000020 ; undefined
        644c:	00000000 	.inst	0x00000000 ; undefined
        6450:	2d627062 	ldp	s2, s28, [x3, #-240]
        6454:	5f53423e 	.inst	0x5f53423e ; undefined
        6458:	536c6946 	.inst	0x536c6946 ; undefined
        645c:	79547379 	ldrh	w25, [x27, #2616]
        6460:	3d206570 	str	b16, [x11, #2073]
        6464:	00000020 	.inst	0x00000020 ; undefined
        6468:	2d627062 	ldp	s2, s28, [x3, #-240]
        646c:	646e753e 	.inst	0x646e753e ; undefined
        6470:	6e696665 	umax	v5.8h, v19.8h, v9.8h
        6474:	3d206465 	str	b5, [x3, #2073]
        6478:	00000020 	.inst	0x00000020 ; undefined
        647c:	00000000 	.inst	0x00000000 ; undefined
        6480:	2d627062 	ldp	s2, s28, [x3, #-240]
        6484:	6769533e 	.inst	0x6769533e ; undefined
        6488:	7574616e 	.inst	0x7574616e ; undefined
        648c:	775f6572 	.inst	0x775f6572 ; undefined
        6490:	2064726f 	.inst	0x2064726f ; undefined
        6494:	0000203d 	.inst	0x0000203d ; undefined
        6498:	746e656c 	.inst	0x746e656c ; undefined
        649c:	6f2e7972 	.inst	0x6f2e7972 ; undefined
        64a0:	3d206472 	str	b18, [x3, #2073]
        64a4:	00000020 	.inst	0x00000020 ; undefined
        64a8:	746e656c 	.inst	0x746e656c ; undefined
        64ac:	6e2e7972 	.inst	0x6e2e7972 ; undefined
        64b0:	31656d61 	adds	w1, w11, #0x95b, lsl #12
        64b4:	00203d20 	.inst	0x00203d20 ; NYI
        64b8:	746e656c 	.inst	0x746e656c ; undefined
        64bc:	612e7972 	.inst	0x612e7972 ; undefined
        64c0:	20727474 	.inst	0x20727474 ; undefined
        64c4:	0000203d 	.inst	0x0000203d ; undefined
        64c8:	746e656c 	.inst	0x746e656c ; undefined
        64cc:	742e7972 	.inst	0x742e7972 ; undefined
        64d0:	20657079 	.inst	0x20657079 ; undefined
        64d4:	0000203d 	.inst	0x0000203d ; undefined
        64d8:	746e656c 	.inst	0x746e656c ; undefined
        64dc:	632e7972 	.inst	0x632e7972 ; undefined
        64e0:	75736b68 	.inst	0x75736b68 ; undefined
        64e4:	203d206d 	.inst	0x203d206d ; undefined
	...
        64f0:	746e656c 	.inst	0x746e656c ; undefined
        64f4:	6e2e7972 	.inst	0x6e2e7972 ; undefined
        64f8:	32656d61 	.inst	0x32656d61 ; undefined
        64fc:	00203d20 	.inst	0x00203d20 ; NYI
        6500:	746e656c 	.inst	0x746e656c ; undefined
        6504:	662e7972 	.inst	0x662e7972 ; undefined
        6508:	6c437473 	ldnp	d19, d29, [x3, #48]
        650c:	4f4c7375 	sqdmlsl2	v21.4s, v27.8h, v12.h[0]
        6510:	00203d20 	.inst	0x00203d20 ; NYI
        6514:	00000000 	.inst	0x00000000 ; undefined
        6518:	746e656c 	.inst	0x746e656c ; undefined
        651c:	6e2e7972 	.inst	0x6e2e7972 ; undefined
        6520:	33656d61 	.inst	0x33656d61 ; undefined
        6524:	00203d20 	.inst	0x00203d20 ; NYI
        6528:	746e6564 	.inst	0x746e6564 ; undefined
        652c:	6e2e7972 	.inst	0x6e2e7972 ; undefined
        6530:	20656d61 	.inst	0x20656d61 ; undefined
        6534:	0000203d 	.inst	0x0000203d ; undefined
        6538:	746e6564 	.inst	0x746e6564 ; undefined
        653c:	612e7972 	.inst	0x612e7972 ; undefined
        6540:	20727474 	.inst	0x20727474 ; undefined
        6544:	0000203d 	.inst	0x0000203d ; undefined
        6548:	746e6564 	.inst	0x746e6564 ; undefined
        654c:	4e2e7972 	.inst	0x4e2e7972 ; undefined
        6550:	73655254 	.inst	0x73655254 ; undefined
        6554:	00203d20 	.inst	0x00203d20 ; NYI
        6558:	746e6564 	.inst	0x746e6564 ; undefined
        655c:	632e7972 	.inst	0x632e7972 ; undefined
        6560:	69547472 	ldpsw	x18, x29, [x3, #160]
        6564:	6554656d 	fcmeq	p13.h, p1/z, z11.h, z20.h
        6568:	2068746e 	.inst	0x2068746e ; undefined
        656c:	0000203d 	.inst	0x0000203d ; undefined
        6570:	746e6564 	.inst	0x746e6564 ; undefined
        6574:	632e7972 	.inst	0x632e7972 ; undefined
        6578:	69547472 	ldpsw	x18, x29, [x3, #160]
        657c:	3d20656d 	str	b13, [x11, #2073]
        6580:	00000020 	.inst	0x00000020 ; undefined
        6584:	00000000 	.inst	0x00000000 ; undefined
        6588:	746e6564 	.inst	0x746e6564 ; undefined
        658c:	632e7972 	.inst	0x632e7972 ; undefined
        6590:	61447472 	.inst	0x61447472 ; undefined
        6594:	3d206574 	str	b20, [x11, #2073]
        6598:	00000020 	.inst	0x00000020 ; undefined
        659c:	00000000 	.inst	0x00000000 ; undefined
        65a0:	746e6564 	.inst	0x746e6564 ; undefined
        65a4:	6c2e7972 	stnp	d18, d30, [x11, #-288]
        65a8:	63417473 	.inst	0x63417473 ; undefined
        65ac:	74614463 	.inst	0x74614463 ; undefined
        65b0:	203d2061 	.inst	0x203d2061 ; undefined
        65b4:	00000000 	.inst	0x00000000 ; undefined
        65b8:	746e6564 	.inst	0x746e6564 ; undefined
        65bc:	662e7972 	.inst	0x662e7972 ; undefined
        65c0:	6c437473 	ldnp	d19, d29, [x3, #48]
        65c4:	49487375 	.inst	0x49487375 ; undefined
        65c8:	00203d20 	.inst	0x00203d20 ; NYI
        65cc:	00000000 	.inst	0x00000000 ; undefined
        65d0:	746e6564 	.inst	0x746e6564 ; undefined
        65d4:	772e7972 	.inst	0x772e7972 ; undefined
        65d8:	69547472 	ldpsw	x18, x29, [x3, #160]
        65dc:	3d20656d 	str	b13, [x11, #2073]
        65e0:	00000020 	.inst	0x00000020 ; undefined
        65e4:	00000000 	.inst	0x00000000 ; undefined
        65e8:	746e6564 	.inst	0x746e6564 ; undefined
        65ec:	772e7972 	.inst	0x772e7972 ; undefined
        65f0:	61447472 	.inst	0x61447472 ; undefined
        65f4:	3d206574 	str	b20, [x11, #2073]
        65f8:	00000020 	.inst	0x00000020 ; undefined
        65fc:	00000000 	.inst	0x00000000 ; undefined
        6600:	746e6564 	.inst	0x746e6564 ; undefined
        6604:	662e7972 	.inst	0x662e7972 ; undefined
        6608:	6c437473 	ldnp	d19, d29, [x3, #48]
        660c:	4f4c7375 	sqdmlsl2	v21.4s, v27.8h, v12.h[0]
        6610:	00203d20 	.inst	0x00203d20 ; NYI
        6614:	00000000 	.inst	0x00000000 ; undefined
        6618:	746e6564 	.inst	0x746e6564 ; undefined
        661c:	662e7972 	.inst	0x662e7972 ; undefined
        6620:	53656c69 	.inst	0x53656c69 ; undefined
        6624:	20657a69 	.inst	0x20657a69 ; undefined
        6628:	0000203d 	.inst	0x0000203d ; undefined
        662c:	00000000 	.inst	0x00000000 ; undefined
        6630:	746e656c 	.inst	0x746e656c ; undefined
        6634:	6e2e7972 	.inst	0x6e2e7972 ; undefined
        6638:	20656d61 	.inst	0x20656d61 ; undefined
        663c:	0000203d 	.inst	0x0000203d ; undefined
        6640:	464e495b 	.inst	0x464e495b ; undefined
        6644:	00205d4f 	.inst	0x00205d4f ; NYI
        6648:	636f7270 	.inst	0x636f7270 ; undefined
        664c:	69737365 	ldpsw	x5, x28, [x27, #-104]
        6650:	4620676e 	.inst	0x4620676e ; undefined
        6654:	455f5149 	.inst	0x455f5149 ; undefined
        6658:	0a20314c 	bic	w12, w10, w0, lsl #12
        665c:	00000000 	.inst	0x00000000 ; undefined
        6660:	5f434349 	.inst	0x5f434349 ; undefined
        6664:	5f525052 	.inst	0x5f525052 ; undefined
        6668:	20314c45 	.inst	0x20314c45 ; undefined
        666c:	0000203a 	.inst	0x0000203a ; undefined
        6670:	6f697250 	fcmla	v16.8h, v18.8h, v9.h[1], #270
        6674:	79697472 	ldrh	w18, [x3, #5306]
        6678:	00203d20 	.inst	0x00203d20 ; NYI
        667c:	00000000 	.inst	0x00000000 ; undefined
        6680:	0000002c 	.inst	0x0000002c ; undefined
        6684:	00000000 	.inst	0x00000000 ; undefined
        6688:	30534552 	adr	x18, 0xacf31
        668c:	3d20305f 	str	b31, [x2, #2060]
        6690:	00000020 	.inst	0x00000020 ; undefined
        6694:	00000000 	.inst	0x00000000 ; undefined
        6698:	5f434349 	.inst	0x5f434349 ; undefined
        669c:	30524149 	adr	x9, 0xaaec5
        66a0:	314c455f 	cmn	w10, #0x311, lsl #12
        66a4:	00203a20 	.inst	0x00203a20 ; NYI
        66a8:	49544e49 	.inst	0x49544e49 ; undefined
        66ac:	203d2044 	.inst	0x203d2044 ; undefined
	...
        66b8:	30534552 	adr	x18, 0xacf61
        66bc:	00203d20 	.inst	0x00203d20 ; NYI
        66c0:	636f7270 	.inst	0x636f7270 ; undefined
        66c4:	69737365 	ldpsw	x5, x28, [x27, #-104]
        66c8:	5320676e 	.inst	0x5320676e ; undefined
        66cc:	6f727245 	.inst	0x6f727245 ; undefined
        66d0:	314c4572 	adds	w18, w11, #0x311, lsl #12
        66d4:	00000a20 	.inst	0x00000a20 ; undefined
        66d8:	636f7270 	.inst	0x636f7270 ; undefined
        66dc:	69737365 	ldpsw	x5, x28, [x27, #-104]
        66e0:	4920676e 	.inst	0x4920676e ; undefined
        66e4:	455f5152 	.inst	0x455f5152 ; undefined
        66e8:	0a20314c 	bic	w12, w10, w0, lsl #12
        66ec:	00000000 	.inst	0x00000000 ; undefined
        66f0:	5f434349 	.inst	0x5f434349 ; undefined
        66f4:	5f524d50 	.inst	0x5f524d50 ; undefined
        66f8:	20314c45 	.inst	0x20314c45 ; undefined
        66fc:	0000203a 	.inst	0x0000203a ; undefined
        6700:	44434947 	.inst	0x44434947 ; undefined
        6704:	4153495f 	.inst	0x4153495f ; undefined
        6708:	56495443 	.inst	0x56495443 ; undefined
        670c:	20305245 	.inst	0x20305245 ; undefined
        6710:	0000203a 	.inst	0x0000203a ; undefined
        6714:	00000000 	.inst	0x00000000 ; undefined
        6718:	69746341 	ldpsw	x1, x24, [x26, #-96]
        671c:	20736576 	.inst	0x20736576 ; undefined
        6720:	0000203d 	.inst	0x0000203d ; undefined
        6724:	00000000 	.inst	0x00000000 ; undefined
        6728:	52434947 	.inst	0x52434947 ; undefined
        672c:	4153495f 	.inst	0x4153495f ; undefined
        6730:	56495443 	.inst	0x56495443 ; undefined
        6734:	20305245 	.inst	0x20305245 ; undefined
        6738:	0000203a 	.inst	0x0000203a ; undefined
        673c:	00000000 	.inst	0x00000000 ; undefined
        6740:	44434947 	.inst	0x44434947 ; undefined
        6744:	5053495f 	adr	xzr, 0xad06e
        6748:	52444e45 	.inst	0x52444e45 ; undefined
        674c:	203a2030 	.inst	0x203a2030 ; undefined
	...
        6758:	646e6550 	.inst	0x646e6550 ; undefined
        675c:	73676e69 	.inst	0x73676e69 ; undefined
        6760:	00203d20 	.inst	0x00203d20 ; NYI
        6764:	00000000 	.inst	0x00000000 ; undefined
        6768:	52434947 	.inst	0x52434947 ; undefined
        676c:	5053495f 	adr	xzr, 0xad096
        6770:	52444e45 	.inst	0x52444e45 ; undefined
        6774:	203a2030 	.inst	0x203a2030 ; undefined
	...
        6780:	5f525349 	.inst	0x5f525349 ; undefined
        6784:	20314c45 	.inst	0x20314c45 ; undefined
        6788:	0000203a 	.inst	0x0000203a ; undefined
        678c:	00000000 	.inst	0x00000000 ; undefined
        6790:	203d2046 	.inst	0x203d2046 ; undefined
        6794:	00000000 	.inst	0x00000000 ; undefined
        6798:	203d2049 	.inst	0x203d2049 ; undefined
        679c:	00000000 	.inst	0x00000000 ; undefined
        67a0:	203d2041 	.inst	0x203d2041 ; undefined
        67a4:	00000000 	.inst	0x00000000 ; undefined
        67a8:	30534552 	adr	x18, 0xad051
        67ac:	3d20315f 	str	b31, [x10, #2060]
        67b0:	00000020 	.inst	0x00000020 ; undefined
        67b4:	00000000 	.inst	0x00000000 ; undefined
        67b8:	5f434349 	.inst	0x5f434349 ; undefined
        67bc:	31524149 	adds	w9, w10, #0x490, lsl #12
        67c0:	314c455f 	cmn	w10, #0x311, lsl #12
        67c4:	00203a20 	.inst	0x00203a20 ; NYI
        67c8:	50544e43 	adr	x3, 0xaf192
        67cc:	4156435f 	.inst	0x4156435f ; undefined
        67d0:	4c455f4c 	.inst	0x4c455f4c ; undefined
        67d4:	203a2030 	.inst	0x203a2030 ; undefined
	...
        67e0:	706d6f43 	adr	x3, 0xe15cb
        67e4:	56657261 	.inst	0x56657261 ; undefined
        67e8:	65756c61 	fnmls	z1.h, p3/m, z3.h, z21.h
        67ec:	00203d20 	.inst	0x00203d20 ; NYI
        67f0:	636f7270 	.inst	0x636f7270 ; undefined
        67f4:	69737365 	ldpsw	x5, x28, [x27, #-104]
        67f8:	5320676e 	.inst	0x5320676e ; undefined
        67fc:	68636e79 	.inst	0x68636e79 ; undefined
        6800:	6f6e6f72 	.inst	0x6f6e6f72 ; undefined
        6804:	4c457375 	.inst	0x4c457375 ; undefined
        6808:	000a2031 	.inst	0x000a2031 ; undefined
        680c:	00000000 	.inst	0x00000000 ; undefined
        6810:	65707974 	fnmls	z20.h, p6/m, z11.h, z16.h
        6814:	0000003d 	.inst	0x0000003d ; undefined
        6818:	7365202c 	.inst	0x7365202c ; undefined
        681c:	00003d72 	.inst	0x00003d72 ; undefined
        6820:	726c652c 	.inst	0x726c652c ; undefined
        6824:	00203d20 	.inst	0x00203d20 ; NYI
        6828:	7073202c 	adr	x12, 0xecc2f
        682c:	3d207273 	str	b19, [x19, #2076]
        6830:	00000020 	.inst	0x00000020 ; undefined
        6834:	00000000 	.inst	0x00000000 ; undefined
        6838:	6166202c 	.inst	0x6166202c ; undefined
        683c:	203d2072 	.inst	0x203d2072 ; undefined
	...
        6848:	6e6b6e55 	umin	v21.8h, v18.8h, v11.8h
        684c:	006e776f 	.inst	0x006e776f ; undefined
        6850:	70617254 	adr	x20, 0xc969b
        6854:	20646570 	.inst	0x20646570 ; undefined
        6858:	2f494657 	.inst	0x2f494657 ; undefined
        685c:	00454657 	.inst	0x00454657 ; undefined
        6860:	656c6c49 	fnmls	z9.h, p3/m, z2.h, z12.h
        6864:	206c6167 	.inst	0x206c6167 ; undefined
        6868:	63657865 	.inst	0x63657865 ; undefined
        686c:	6f697475 	uqshl	v21.2d, v3.2d, #41
        6870:	0000006e 	.inst	0x0000006e ; undefined
        6874:	00000000 	.inst	0x00000000 ; undefined
        6878:	74737953 	.inst	0x74737953 ; undefined
        687c:	63206d65 	.inst	0x63206d65 ; undefined
        6880:	006c6c61 	.inst	0x006c6c61 ; undefined
        6884:	00000000 	.inst	0x00000000 ; undefined
        6888:	74736e49 	.inst	0x74736e49 ; undefined
        688c:	74637572 	.inst	0x74637572 ; undefined
        6890:	206e6f69 	.inst	0x206e6f69 ; undefined
        6894:	726f6261 	.inst	0x726f6261 ; undefined
        6898:	6c202c74 	stnp	d20, d11, [x3, #-512]
        689c:	7265776f 	.inst	0x7265776f ; undefined
        68a0:	004c4520 	.inst	0x004c4520 ; undefined
        68a4:	00000000 	.inst	0x00000000 ; undefined
        68a8:	74736e49 	.inst	0x74736e49 ; undefined
        68ac:	74637572 	.inst	0x74637572 ; undefined
        68b0:	206e6f69 	.inst	0x206e6f69 ; undefined
        68b4:	726f6261 	.inst	0x726f6261 ; undefined
        68b8:	73202c74 	.inst	0x73202c74 ; undefined
        68bc:	20656d61 	.inst	0x20656d61 ; undefined
        68c0:	00004c45 	.inst	0x00004c45 ; undefined
        68c4:	00000000 	.inst	0x00000000 ; undefined
        68c8:	74736e49 	.inst	0x74736e49 ; undefined
        68cc:	74637572 	.inst	0x74637572 ; undefined
        68d0:	206e6f69 	.inst	0x206e6f69 ; undefined
        68d4:	67696c61 	.inst	0x67696c61 ; undefined
        68d8:	6e656d6e 	umin	v14.8h, v11.8h, v5.8h
        68dc:	61662074 	.inst	0x61662074 ; undefined
        68e0:	00746c75 	.inst	0x00746c75 ; undefined
        68e4:	00000000 	.inst	0x00000000 ; undefined
        68e8:	61746144 	.inst	0x61746144 ; undefined
        68ec:	6f626120 	umlsl2	v0.4s, v9.8h, v2.h[2]
        68f0:	202c7472 	.inst	0x202c7472 ; undefined
        68f4:	65776f6c 	fnmls	z12.h, p3/m, z27.h, z23.h
        68f8:	4c452072 	.inst	0x4c452072 ; undefined
        68fc:	00000000 	.inst	0x00000000 ; undefined
        6900:	61746144 	.inst	0x61746144 ; undefined
        6904:	6f626120 	umlsl2	v0.4s, v9.8h, v2.h[2]
        6908:	202c7472 	.inst	0x202c7472 ; undefined
        690c:	656d6173 	fnmls	z19.h, p0/m, z11.h, z13.h
        6910:	004c4520 	.inst	0x004c4520 ; undefined
        6914:	00000000 	.inst	0x00000000 ; undefined
        6918:	63617453 	.inst	0x63617453 ; undefined
        691c:	6c61206b 	ldnp	d11, d8, [x3, #-496]
        6920:	6d6e6769 	ldp	d9, d25, [x27, #-288]
        6924:	20746e65 	.inst	0x20746e65 ; undefined
        6928:	6c756166 	ldnp	d6, d24, [x11, #-176]
        692c:	00000074 	.inst	0x00000074 ; undefined
        6930:	616f6c46 	.inst	0x616f6c46 ; undefined
        6934:	676e6974 	.inst	0x676e6974 ; undefined
        6938:	696f7020 	ldpsw	x0, x28, [x1, #-136]
        693c:	0000746e 	.inst	0x0000746e ; undefined
        6940:	72646441 	.inst	0x72646441 ; undefined
        6944:	20737365 	.inst	0x20737365 ; undefined
        6948:	657a6973 	fnmls	z19.h, p2/m, z11.h, z26.h
        694c:	75616620 	.inst	0x75616620 ; undefined
        6950:	000a746c 	.inst	0x000a746c ; undefined
        6954:	00000000 	.inst	0x00000000 ; undefined
        6958:	6e617254 	uabdl2	v20.4s, v18.8h, v1.8h
        695c:	74616c73 	.inst	0x74616c73 ; undefined
        6960:	206e6f69 	.inst	0x206e6f69 ; undefined
        6964:	6c756166 	ldnp	d6, d24, [x11, #-176]
        6968:	00000a74 	.inst	0x00000a74 ; undefined
        696c:	00000000 	.inst	0x00000000 ; undefined
        6970:	65636341 	fnmls	z1.h, p0/m, z26.h, z3.h
        6974:	66207373 	.inst	0x66207373 ; undefined
        6978:	2067616c 	.inst	0x2067616c ; undefined
        697c:	6c756166 	ldnp	d6, d24, [x11, #-176]
        6980:	00000a74 	.inst	0x00000a74 ; undefined
        6984:	00000000 	.inst	0x00000000 ; undefined
        6988:	6d726550 	ldp	d16, d25, [x10, #-224]
        698c:	69737369 	ldpsw	x9, x28, [x27, #-104]
        6990:	66206e6f 	.inst	0x66206e6f ; undefined
        6994:	746c7561 	.inst	0x746c7561 ; undefined
        6998:	0000000a 	.inst	0x0000000a ; undefined
        699c:	00000000 	.inst	0x00000000 ; undefined
        69a0:	20746120 	.inst	0x20746120 ; undefined
        69a4:	6576656c 	fnmls	z12.h, p1/m, z11.h, z22.h
        69a8:	0a30206c 	bic	w12, w3, w16, lsl #8
        69ac:	00000000 	.inst	0x00000000 ; undefined
        69b0:	20746120 	.inst	0x20746120 ; undefined
        69b4:	6576656c 	fnmls	z12.h, p1/m, z11.h, z22.h
        69b8:	0a31206c 	bic	w12, w3, w17, lsl #8
        69bc:	00000000 	.inst	0x00000000 ; undefined
        69c0:	20746120 	.inst	0x20746120 ; undefined
        69c4:	6576656c 	fnmls	z12.h, p1/m, z11.h, z22.h
        69c8:	0a32206c 	bic	w12, w3, w18, lsl #8
        69cc:	00000000 	.inst	0x00000000 ; undefined
        69d0:	20746120 	.inst	0x20746120 ; undefined
        69d4:	6576656c 	fnmls	z12.h, p1/m, z11.h, z22.h
        69d8:	0a33206c 	bic	w12, w3, w19, lsl #8
        69dc:	00000000 	.inst	0x00000000 ; undefined
        69e0:	5441465b 	.inst	0x5441465b ; undefined
        69e4:	205d4c41 	.inst	0x205d4c41 ; undefined
	...
        69f0:	746f4e20 	.inst	0x746f4e20 ; undefined
        69f4:	20746120 	.inst	0x20746120 ; undefined
        69f8:	20314c45 	.inst	0x20314c45 ; undefined
        69fc:	0000000a 	.inst	0x0000000a ; undefined
        6a00:	415f4449 	.inst	0x415f4449 ; undefined
        6a04:	4d343641 	.inst	0x4d343641 ; undefined
        6a08:	3052464d 	adr	x13, 0xab2d1
        6a0c:	314c455f 	cmn	w10, #0x311, lsl #12
        6a10:	00203a20 	.inst	0x00203a20 ; NYI
        6a14:	00000000 	.inst	0x00000000 ; undefined
        6a18:	61524150 	.inst	0x61524150 ; undefined
        6a1c:	2065676e 	.inst	0x2065676e ; undefined
        6a20:	0000203d 	.inst	0x0000203d ; undefined
        6a24:	00000000 	.inst	0x00000000 ; undefined
        6a28:	44495341 	.inst	0x44495341 ; undefined
        6a2c:	73746942 	.inst	0x73746942 ; undefined
        6a30:	00203d20 	.inst	0x00203d20 ; NYI
        6a34:	00000000 	.inst	0x00000000 ; undefined
        6a38:	45676942 	.inst	0x45676942 ; undefined
        6a3c:	3d20646e 	str	b14, [x3, #2073]
        6a40:	00000020 	.inst	0x00000020 ; undefined
        6a44:	00000000 	.inst	0x00000000 ; undefined
        6a48:	4d534e53 	.inst	0x4d534e53 ; undefined
        6a4c:	3d206d65 	str	b5, [x11, #2075]
        6a50:	00000020 	.inst	0x00000020 ; undefined
        6a54:	00000000 	.inst	0x00000000 ; undefined
        6a58:	45676942 	.inst	0x45676942 ; undefined
        6a5c:	4c45646e 	.inst	0x4c45646e ; undefined
        6a60:	203d2030 	.inst	0x203d2030 ; undefined
        6a64:	00000000 	.inst	0x00000000 ; undefined
        6a68:	61724754 	.inst	0x61724754 ; undefined
        6a6c:	2036316e 	.inst	0x2036316e ; undefined
        6a70:	0000203d 	.inst	0x0000203d ; undefined
        6a74:	00000000 	.inst	0x00000000 ; undefined
        6a78:	61724754 	.inst	0x61724754 ; undefined
        6a7c:	2034366e 	.inst	0x2034366e ; undefined
        6a80:	0000203d 	.inst	0x0000203d ; undefined
        6a84:	00000000 	.inst	0x00000000 ; undefined
        6a88:	61724754 	.inst	0x61724754 ; undefined
        6a8c:	3d20346e 	str	b14, [x3, #2061]
        6a90:	00000020 	.inst	0x00000020 ; undefined
        6a94:	00000000 	.inst	0x00000000 ; undefined
        6a98:	20424b34 	.inst	0x20424b34 ; undefined
        6a9c:	6e617267 	uabdl2	v7.4s, v19.8h, v1.8h
        6aa0:	20656c75 	.inst	0x20656c75 ; undefined
        6aa4:	6e207369 	uabdl2	v9.8h, v27.16b, v0.16b
        6aa8:	7320746f 	.inst	0x7320746f ; undefined
        6aac:	6f707075 	.inst	0x6f707075 ; undefined
        6ab0:	64657472 	.inst	0x64657472 ; undefined
        6ab4:	0000000a 	.inst	0x0000000a ; undefined
        6ab8:	61524150 	.inst	0x61524150 ; undefined
        6abc:	2065676e 	.inst	0x2065676e ; undefined
        6ac0:	20746f6e 	.inst	0x20746f6e ; undefined
        6ac4:	70707573 	adr	x19, 0xe7973
        6ac8:	6574726f 	fnmls	z15.h, p4/m, z19.h, z20.h
        6acc:	00000a64 	.inst	0x00000a64 ; undefined
        6ad0:	61524150 	.inst	0x61524150 ; undefined
        6ad4:	2065676e 	.inst	0x2065676e ; undefined
        6ad8:	35207369 	cbnz	w9, 0x47944
        6adc:	77202c32 	.inst	0x77202c32 ; undefined
        6ae0:	656e2065 	fmls	z5.h, p0/m, z3.h, z14.h
        6ae4:	74206465 	.inst	0x74206465 ; undefined
        6ae8:	6572206f 	fmls	z15.h, p0/m, z3.h, z18.h
        6aec:	65637564 	fnmls	z4.h, p5/m, z11.h, z3.h
        6af0:	20746920 	.inst	0x20746920 ; undefined
        6af4:	34206f74 	cbz	w20, 0x478e0
        6af8:	00000a38 	.inst	0x00000a38 ; undefined
        6afc:	00000000 	.inst	0x00000000 ; undefined
        6b00:	20646e65 	.inst	0x20646e65 ; undefined
        6b04:	6d20666f 	stp	d15, d25, [x19, #-512]
        6b08:	206e6961 	.inst	0x206e6961 ; undefined
        6b0c:	7265766f 	.inst	0x7265766f ; undefined
        6b10:	776f6c66 	.inst	0x776f6c66 ; undefined
        6b14:	6d202c73 	stp	d19, d11, [x3, #-512]
        6b18:	696e6165 	ldpsw	x5, x24, [x11, #-144]
        6b1c:	7420676e 	.inst	0x7420676e ; undefined
        6b20:	20746168 	.inst	0x20746168 ; undefined
        6b24:	6d207469 	stp	d9, d29, [x3, #-512]
        6b28:	6e207961 	sqneg	v1.16b, v11.16b
        6b2c:	6220746f 	.inst	0x6220746f ; undefined
        6b30:	6c662065 	ldnp	d5, d8, [x3, #-416]
        6b34:	65747461 	fnmls	z1.h, p5/m, z3.h, z20.h
        6b38:	616d206e 	.inst	0x616d206e ; undefined
        6b3c:	64657070 	.inst	0x64657070 ; undefined
        6b40:	00000a2e 	.inst	0x00000a2e ; undefined
        6b44:	00000000 	.inst	0x00000000 ; undefined
        6b48:	63637553 	.inst	0x63637553 ; undefined
        6b4c:	66737365 	.inst	0x66737365 ; undefined
        6b50:	796c6c75 	ldrh	w21, [x3, #5686]
        6b54:	74657320 	.inst	0x74657320 ; undefined
        6b58:	42545420 	.inst	0x42545420 ; undefined
        6b5c:	000a3052 	.inst	0x000a3052 ; undefined
        6b60:	63637553 	.inst	0x63637553 ; undefined
        6b64:	66737365 	.inst	0x66737365 ; undefined
        6b68:	796c6c75 	ldrh	w21, [x3, #5686]
        6b6c:	616e6520 	.inst	0x616e6520 ; undefined
        6b70:	64656c62 	.inst	0x64656c62 ; undefined
        6b74:	554d4d20 	.inst	0x554d4d20 ; undefined
        6b78:	0000000a 	.inst	0x0000000a ; undefined
        6b7c:	00000000 	.inst	0x00000000 ; undefined
        6b80:	20646e65 	.inst	0x20646e65 ; undefined
        6b84:	6e69616d 	rsubhn2	v13.8h, v11.4s, v9.4s
        6b88:	0000002e 	.inst	0x0000002e ; undefined
        6b8c:	00000000 	.inst	0x00000000 ; undefined
        6b90:	00000004 	.inst	0x00000004 ; undefined
        6b94:	00000014 	.inst	0x00000014 ; undefined
        6b98:	00000003 	.inst	0x00000003 ; undefined
        6b9c:	00554e47 	.inst	0x00554e47 ; undefined
        6ba0:	bf5caecb 	.inst	0xbf5caecb ; undefined
        6ba4:	e3bfe37b 	.inst	0xe3bfe37b ; undefined
        6ba8:	2a20e3aa 	.inst	0x2a20e3aa ; undefined
        6bac:	dbd67fc9 	.inst	0xdbd67fc9 ; undefined
        6bb0:	5961e703 	.inst	0x5961e703 ; undefined
	...
make[1]: 离开目录“/cygdrive/d/Pool/eclipse-workspace_aarch64/chap003/Debug-qemu_virt”
