	.arch armv8.2-a+crc
	.file	"FAT32EntryTable.cpp"
	.text
.Ltext0:
	.cfi_sections	.debug_frame
	.section	.text._ZN6VectorI10FAT32EntryED2Ev,"axG",@progbits,_ZN6VectorI10FAT32EntryED5Ev,comdat
	.align	2
	.weak	_ZN6VectorI10FAT32EntryED2Ev
	.type	_ZN6VectorI10FAT32EntryED2Ev, %function
_ZN6VectorI10FAT32EntryED2Ev:
.LFB1589:
	.file 1 "D:\\Pool\\eclipse-workspace_aarch64\\chap003\\include/templates_implementation/data_structures/Vector.h"
	.loc 1 53 0
	.cfi_startproc
.LVL0:
.LBB16:
	.loc 1 55 0
	ldr	x1, [x0]
	cbz	x1, .L4
.LBE16:
	.loc 1 53 0
	stp	x29, x30, [sp, -16]!
	.cfi_def_cfa_offset 16
	.cfi_offset 29, -16
	.cfi_offset 30, -8
	add	x29, sp, 0
	.cfi_def_cfa_register 29
.LBB17:
	.loc 1 57 0
	adrp	x0, :got:mman
.LVL1:
	ldr	x0, [x0, #:got_lo12:mman]
	bl	_ZN13MemoryManager10deallocateEPv
.LVL2:
.LBE17:
	.loc 1 60 0
	ldp	x29, x30, [sp], 16
	.cfi_restore 30
	.cfi_restore 29
	.cfi_def_cfa 31, 0
	ret
.LVL3:
.L4:
	ret
	.cfi_endproc
.LFE1589:
	.size	_ZN6VectorI10FAT32EntryED2Ev, .-_ZN6VectorI10FAT32EntryED2Ev
	.weak	_ZN6VectorI10FAT32EntryED1Ev
	.set	_ZN6VectorI10FAT32EntryED1Ev,_ZN6VectorI10FAT32EntryED2Ev
	.section	.text._ZN6VectorI10FAT32EntryEC2EOS1_,"axG",@progbits,_ZN6VectorI10FAT32EntryEC5EOS1_,comdat
	.align	2
	.weak	_ZN6VectorI10FAT32EntryEC2EOS1_
	.type	_ZN6VectorI10FAT32EntryEC2EOS1_, %function
_ZN6VectorI10FAT32EntryEC2EOS1_:
.LFB1593:
	.loc 1 32 0
	.cfi_startproc
.LVL4:
.LBB18:
	.loc 1 33 0
	ldr	x2, [x1]
	str	x2, [x0]
	ldr	x2, [x1, 8]
	str	x2, [x0, 8]
	ldr	x2, [x1, 16]
	str	x2, [x0, 16]
	.loc 1 35 0
	str	xzr, [x1]
	.loc 1 36 0
	str	xzr, [x1, 8]
	.loc 1 37 0
	str	xzr, [x1, 16]
.LBE18:
	.loc 1 38 0
	ret
	.cfi_endproc
.LFE1593:
	.size	_ZN6VectorI10FAT32EntryEC2EOS1_, .-_ZN6VectorI10FAT32EntryEC2EOS1_
	.weak	_ZN6VectorI10FAT32EntryEC1EOS1_
	.set	_ZN6VectorI10FAT32EntryEC1EOS1_,_ZN6VectorI10FAT32EntryEC2EOS1_
	.text
	.align	2
	.global	_ZN15FAT32EntryTableC2EO6VectorI10FAT32EntryER10ByteReaderP11FAT32ExtBPB
	.type	_ZN15FAT32EntryTableC2EO6VectorI10FAT32EntryER10ByteReaderP11FAT32ExtBPB, %function
_ZN15FAT32EntryTableC2EO6VectorI10FAT32EntryER10ByteReaderP11FAT32ExtBPB:
.LFB1352:
	.file 2 "../src/filesystem/fat/FAT32EntryTable.cpp"
	.loc 2 15 0
	.cfi_startproc
.LVL5:
	stp	x29, x30, [sp, -48]!
	.cfi_def_cfa_offset 48
	.cfi_offset 29, -48
	.cfi_offset 30, -40
	add	x29, sp, 0
	.cfi_def_cfa_register 29
	stp	x19, x20, [sp, 16]
	str	x21, [sp, 32]
	.cfi_offset 19, -32
	.cfi_offset 20, -24
	.cfi_offset 21, -16
	mov	x19, x0
	mov	x21, x2
	mov	x20, x3
.LBB19:
	.loc 2 16 0
	bl	_ZN6VectorI10FAT32EntryEC2EOS1_
.LVL6:
	str	x21, [x19, 24]
	str	x20, [x19, 32]
.LBE19:
	ldp	x19, x20, [sp, 16]
.LVL7:
	ldr	x21, [sp, 32]
.LVL8:
	ldp	x29, x30, [sp], 48
	.cfi_restore 30
	.cfi_restore 29
	.cfi_restore 21
	.cfi_restore 19
	.cfi_restore 20
	.cfi_def_cfa 31, 0
	ret
	.cfi_endproc
.LFE1352:
	.size	_ZN15FAT32EntryTableC2EO6VectorI10FAT32EntryER10ByteReaderP11FAT32ExtBPB, .-_ZN15FAT32EntryTableC2EO6VectorI10FAT32EntryER10ByteReaderP11FAT32ExtBPB
	.global	_ZN15FAT32EntryTableC1EO6VectorI10FAT32EntryER10ByteReaderP11FAT32ExtBPB
	.set	_ZN15FAT32EntryTableC1EO6VectorI10FAT32EntryER10ByteReaderP11FAT32ExtBPB,_ZN15FAT32EntryTableC2EO6VectorI10FAT32EntryER10ByteReaderP11FAT32ExtBPB
	.section	.text._ZNKSt8functionIFv10FAT32EntrymEEclES0_m,"axG",@progbits,_ZNKSt8functionIFv10FAT32EntrymEEclES0_m,comdat
	.align	2
	.weak	_ZNKSt8functionIFv10FAT32EntrymEEclES0_m
	.type	_ZNKSt8functionIFv10FAT32EntrymEEclES0_m, %function
_ZNKSt8functionIFv10FAT32EntrymEEclES0_m:
.LFB1595:
	.file 3 "d:\\installed\\gcc-linaro-7.2.1-2017.11-i686-mingw32_aarch64-elf\\aarch64-elf\\include\\c++\\7.2.1\\bits\\std_function.h"
	.loc 3 701 0
	.cfi_startproc
.LVL9:
	stp	x29, x30, [sp, -32]!
	.cfi_def_cfa_offset 32
	.cfi_offset 29, -32
	.cfi_offset 30, -24
	add	x29, sp, 0
	.cfi_def_cfa_register 29
	str	w1, [x29, 24]
	str	x2, [x29, 16]
.LVL10:
.LBB20:
.LBB21:
	.loc 3 279 0
	ldr	x1, [x0, 16]
.LVL11:
.LBE21:
.LBE20:
	.loc 3 704 0
	cbz	x1, .L13
	.loc 3 706 0
	ldr	x3, [x0, 24]
	add	x2, x29, 16
.LVL12:
	add	x1, x29, 24
	blr	x3
.LVL13:
	.loc 3 707 0
	ldp	x29, x30, [sp], 32
	.cfi_remember_state
	.cfi_restore 30
	.cfi_restore 29
	.cfi_def_cfa 31, 0
	ret
.LVL14:
.L13:
	.cfi_restore_state
	.loc 3 705 0
	bl	_ZSt25__throw_bad_function_callv
.LVL15:
	.cfi_endproc
.LFE1595:
	.size	_ZNKSt8functionIFv10FAT32EntrymEEclES0_m, .-_ZNKSt8functionIFv10FAT32EntrymEEclES0_m
	.section	.text._ZNK6VectorI10FAT32EntryEixEm,"axG",@progbits,_ZNK6VectorI10FAT32EntryEixEm,comdat
	.align	2
	.weak	_ZNK6VectorI10FAT32EntryEixEm
	.type	_ZNK6VectorI10FAT32EntryEixEm, %function
_ZNK6VectorI10FAT32EntryEixEm:
.LFB1598:
	.loc 1 63 0
	.cfi_startproc
.LVL16:
	.loc 1 65 0
	ldr	x0, [x0]
.LVL17:
	.loc 1 66 0
	add	x0, x0, x1, lsl 2
	ret
	.cfi_endproc
.LFE1598:
	.size	_ZNK6VectorI10FAT32EntryEixEm, .-_ZNK6VectorI10FAT32EntryEixEm
	.text
	.align	2
	.global	_ZNK15FAT32EntryTable4nextE10FAT32Entry
	.type	_ZNK15FAT32EntryTable4nextE10FAT32Entry, %function
_ZNK15FAT32EntryTable4nextE10FAT32Entry:
.LFB1355:
	.loc 2 28 0
	.cfi_startproc
.LVL18:
	stp	x29, x30, [sp, -48]!
	.cfi_def_cfa_offset 48
	.cfi_offset 29, -48
	.cfi_offset 30, -40
	add	x29, sp, 0
	.cfi_def_cfa_register 29
	str	x19, [sp, 16]
	.cfi_offset 19, -32
	mov	x19, x0
	add	x0, x29, 48
.LVL19:
	str	w1, [x0, -8]!
	.loc 2 29 0
	bl	_ZNK10FAT32Entry8getAsIntEv
.LVL20:
	uxtw	x1, w0
	mov	x0, x19
	bl	_ZNK6VectorI10FAT32EntryEixEm
.LVL21:
	.loc 2 30 0
	ldr	w0, [x0]
	ldr	x19, [sp, 16]
.LVL22:
	ldp	x29, x30, [sp], 48
	.cfi_restore 30
	.cfi_restore 29
	.cfi_restore 19
	.cfi_def_cfa 31, 0
	ret
	.cfi_endproc
.LFE1355:
	.size	_ZNK15FAT32EntryTable4nextE10FAT32Entry, .-_ZNK15FAT32EntryTable4nextE10FAT32Entry
	.align	2
	.global	_ZNK15FAT32EntryTable12foreachEntryESt8functionIFv10FAT32EntrymEES1_
	.type	_ZNK15FAT32EntryTable12foreachEntryESt8functionIFv10FAT32EntrymEES1_, %function
_ZNK15FAT32EntryTable12foreachEntryESt8functionIFv10FAT32EntrymEES1_:
.LFB1354:
	.loc 2 19 0
	.cfi_startproc
.LVL23:
	stp	x29, x30, [sp, -64]!
	.cfi_def_cfa_offset 64
	.cfi_offset 29, -64
	.cfi_offset 30, -56
	add	x29, sp, 0
	.cfi_def_cfa_register 29
	stp	x19, x20, [sp, 16]
	stp	x21, x22, [sp, 32]
	.cfi_offset 19, -48
	.cfi_offset 20, -40
	.cfi_offset 21, -32
	.cfi_offset 22, -24
	mov	x22, x0
	mov	x21, x1
	str	w2, [x29, 56]
.LVL24:
	.loc 2 20 0
	mov	x19, 0
.LVL25:
.L19:
	.loc 2 21 0
	add	x0, x29, 56
	bl	_ZNK10FAT32Entry6isLastEv
.LVL26:
	tst	w0, 255
	bne	.L17
	.loc 2 23 0
	add	x20, x19, 1
.LVL27:
	mov	x2, x19
	ldr	w1, [x29, 56]
	mov	x0, x21
	bl	_ZNKSt8functionIFv10FAT32EntrymEEclES0_m
.LVL28:
	.loc 2 24 0
	ldr	w1, [x29, 56]
	mov	x0, x22
	bl	_ZNK15FAT32EntryTable4nextE10FAT32Entry
.LVL29:
	str	w0, [x29, 56]
	.loc 2 23 0
	mov	x19, x20
	.loc 2 21 0
	b	.L19
.LVL30:
.L17:
	.loc 2 26 0
	ldp	x19, x20, [sp, 16]
.LVL31:
	ldp	x21, x22, [sp, 32]
.LVL32:
	ldp	x29, x30, [sp], 64
	.cfi_restore 30
	.cfi_restore 29
	.cfi_restore 21
	.cfi_restore 22
	.cfi_restore 19
	.cfi_restore 20
	.cfi_def_cfa 31, 0
	ret
	.cfi_endproc
.LFE1354:
	.size	_ZNK15FAT32EntryTable12foreachEntryESt8functionIFv10FAT32EntrymEES1_, .-_ZNK15FAT32EntryTable12foreachEntryESt8functionIFv10FAT32EntrymEES1_
	.align	2
	.global	_ZNK15FAT32EntryTable16locateFileOffsetE10FAT32Entrym
	.type	_ZNK15FAT32EntryTable16locateFileOffsetE10FAT32Entrym, %function
_ZNK15FAT32EntryTable16locateFileOffsetE10FAT32Entrym:
.LFB1356:
	.loc 2 32 0
	.cfi_startproc
.LVL33:
	stp	x29, x30, [sp, -64]!
	.cfi_def_cfa_offset 64
	.cfi_offset 29, -64
	.cfi_offset 30, -56
	add	x29, sp, 0
	.cfi_def_cfa_register 29
	stp	x19, x20, [sp, 16]
	str	x21, [sp, 32]
	.cfi_offset 19, -48
	.cfi_offset 20, -40
	.cfi_offset 21, -32
	mov	x21, x0
	str	w1, [x29, 56]
	mov	x20, x2
.LVL34:
.LBB22:
	.loc 2 33 0
	ldr	x0, [x0, 32]
.LVL35:
	bl	_ZNK11FAT32ExtBPB18getClusterByteSizeEv
.LVL36:
	udiv	x20, x20, x0
.LVL37:
	mov	x19, 0
.LVL38:
.L23:
	.loc 2 33 0 is_stmt 0 discriminator 9
	cmp	x19, x20
	beq	.L22
	.loc 2 33 0 discriminator 2
	add	x0, x29, 56
	bl	_ZNK10FAT32Entry6isLastEv
.LVL39:
	tst	w0, 255
	bne	.L22
	.loc 2 34 0 is_stmt 1
	ldr	w1, [x29, 56]
	mov	x0, x21
	bl	_ZNK15FAT32EntryTable4nextE10FAT32Entry
.LVL40:
	str	w0, [x29, 56]
	.loc 2 33 0
	add	x19, x19, 1
.LVL41:
	b	.L23
.L22:
.LBE22:
	.loc 2 36 0 discriminator 5
	ldr	w0, [x29, 56]
	ldp	x19, x20, [sp, 16]
.LVL42:
	ldr	x21, [sp, 32]
.LVL43:
	ldp	x29, x30, [sp], 64
	.cfi_restore 30
	.cfi_restore 29
	.cfi_restore 21
	.cfi_restore 19
	.cfi_restore 20
	.cfi_def_cfa 31, 0
	ret
	.cfi_endproc
.LFE1356:
	.size	_ZNK15FAT32EntryTable16locateFileOffsetE10FAT32Entrym, .-_ZNK15FAT32EntryTable16locateFileOffsetE10FAT32Entrym
	.section	.text._ZN6VectorI10FAT32EntryE7getDataEv,"axG",@progbits,_ZN6VectorI10FAT32EntryE7getDataEv,comdat
	.align	2
	.weak	_ZN6VectorI10FAT32EntryE7getDataEv
	.type	_ZN6VectorI10FAT32EntryE7getDataEv, %function
_ZN6VectorI10FAT32EntryE7getDataEv:
.LFB1700:
	.loc 1 91 0
	.cfi_startproc
.LVL44:
	.loc 1 94 0
	ldr	x0, [x0]
.LVL45:
	ret
	.cfi_endproc
.LFE1700:
	.size	_ZN6VectorI10FAT32EntryE7getDataEv, .-_ZN6VectorI10FAT32EntryE7getDataEv
	.section	.text._ZN13MemoryManager10allocateAsIP10FAT32EntryEET_m,"axG",@progbits,_ZN13MemoryManager10allocateAsIP10FAT32EntryEET_m,comdat
	.align	2
	.weak	_ZN13MemoryManager10allocateAsIP10FAT32EntryEET_m
	.type	_ZN13MemoryManager10allocateAsIP10FAT32EntryEET_m, %function
_ZN13MemoryManager10allocateAsIP10FAT32EntryEET_m:
.LFB1766:
	.file 4 "D:\\Pool\\eclipse-workspace_aarch64\\chap003\\include/MemoryManager.h"
	.loc 4 81 0
	.cfi_startproc
.LVL46:
	stp	x29, x30, [sp, -16]!
	.cfi_def_cfa_offset 16
	.cfi_offset 29, -16
	.cfi_offset 30, -8
	add	x29, sp, 0
	.cfi_def_cfa_register 29
	.loc 4 83 0
	bl	_ZN13MemoryManager8allocateEm
.LVL47:
	.loc 4 84 0
	ldp	x29, x30, [sp], 16
	.cfi_restore 30
	.cfi_restore 29
	.cfi_def_cfa 31, 0
	ret
	.cfi_endproc
.LFE1766:
	.size	_ZN13MemoryManager10allocateAsIP10FAT32EntryEET_m, .-_ZN13MemoryManager10allocateAsIP10FAT32EntryEET_m
	.section	.text._ZN6VectorI10FAT32EntryE14resizeCapacityEm,"axG",@progbits,_ZN6VectorI10FAT32EntryE14resizeCapacityEm,comdat
	.align	2
	.weak	_ZN6VectorI10FAT32EntryE14resizeCapacityEm
	.type	_ZN6VectorI10FAT32EntryE14resizeCapacityEm, %function
_ZN6VectorI10FAT32EntryE14resizeCapacityEm:
.LFB1731:
	.loc 1 167 0
	.cfi_startproc
.LVL48:
	.loc 1 169 0
	ldr	x2, [x0, 8]
	cmp	x2, x1
	beq	.L32
	.loc 1 167 0
	stp	x29, x30, [sp, -48]!
	.cfi_def_cfa_offset 48
	.cfi_offset 29, -48
	.cfi_offset 30, -40
	add	x29, sp, 0
	.cfi_def_cfa_register 29
	stp	x19, x20, [sp, 16]
	stp	x21, x22, [sp, 32]
	.cfi_offset 19, -32
	.cfi_offset 20, -24
	.cfi_offset 21, -16
	.cfi_offset 22, -8
	mov	x21, x1
	mov	x19, x0
	.loc 1 171 0
	lsl	x22, x1, 2
	adrp	x20, :got:mman
	ldr	x20, [x20, #:got_lo12:mman]
	mov	x2, x22
	ldr	x1, [x0]
.LVL49:
	mov	x0, x20
.LVL50:
	bl	_ZN13MemoryManager10reallocateEPvm
.LVL51:
	.loc 1 172 0
	mov	x1, x22
	mov	x0, x20
	bl	_ZN13MemoryManager10allocateAsIP10FAT32EntryEET_m
.LVL52:
	mov	x20, x0
.LVL53:
	.loc 1 173 0
	cbz	x0, .L33
.LBB23:
	.loc 1 176 0
	mov	x2, 0
.LVL54:
.L31:
	.loc 1 176 0 is_stmt 0 discriminator 3
	ldr	x0, [x19, 16]
	cmp	x0, x2
	beq	.L30
	.loc 1 177 0 is_stmt 1 discriminator 2
	ldr	x0, [x19]
	ldr	w0, [x0, x2, lsl 2]
	str	w0, [x20, x2, lsl 2]
	.loc 1 176 0 discriminator 2
	add	x2, x2, 1
.LVL55:
	b	.L31
.L30:
.LBE23:
	.loc 1 178 0
	ldr	x1, [x19]
	adrp	x0, :got:mman
	ldr	x0, [x0, #:got_lo12:mman]
	bl	_ZN13MemoryManager10deallocateEPv
.LVL56:
	.loc 1 181 0
	str	x20, [x19]
	.loc 1 182 0
	str	x21, [x19, 8]
	.loc 1 183 0
	mov	w0, 1
.L29:
	.loc 1 184 0
	ldp	x19, x20, [sp, 16]
.LVL57:
	ldp	x21, x22, [sp, 32]
.LVL58:
	ldp	x29, x30, [sp], 48
	.cfi_restore 30
	.cfi_restore 29
	.cfi_restore 21
	.cfi_restore 22
	.cfi_restore 19
	.cfi_restore 20
	.cfi_def_cfa 31, 0
	ret
.LVL59:
.L32:
	.loc 1 170 0
	mov	w0, 1
.LVL60:
	.loc 1 184 0
	ret
.LVL61:
.L33:
	.cfi_def_cfa 29, 48
	.cfi_offset 19, -32
	.cfi_offset 20, -24
	.cfi_offset 21, -16
	.cfi_offset 22, -8
	.cfi_offset 29, -48
	.cfi_offset 30, -40
	.loc 1 174 0
	mov	w0, 0
.LVL62:
	b	.L29
	.cfi_endproc
.LFE1731:
	.size	_ZN6VectorI10FAT32EntryE14resizeCapacityEm, .-_ZN6VectorI10FAT32EntryE14resizeCapacityEm
	.section	.text._ZN6VectorI10FAT32EntryEC2Em,"axG",@progbits,_ZN6VectorI10FAT32EntryEC5Em,comdat
	.align	2
	.weak	_ZN6VectorI10FAT32EntryEC2Em
	.type	_ZN6VectorI10FAT32EntryEC2Em, %function
_ZN6VectorI10FAT32EntryEC2Em:
.LFB1698:
	.loc 1 15 0
	.cfi_startproc
.LVL63:
	stp	x29, x30, [sp, -32]!
	.cfi_def_cfa_offset 32
	.cfi_offset 29, -32
	.cfi_offset 30, -24
	add	x29, sp, 0
	.cfi_def_cfa_register 29
	stp	x19, x20, [sp, 16]
	.cfi_offset 19, -16
	.cfi_offset 20, -8
	mov	x19, x0
	mov	x20, x1
.LBB24:
	.loc 1 16 0
	str	xzr, [x0]
	str	xzr, [x0, 8]
	str	xzr, [x0, 16]
	.loc 1 18 0
	cmp	x1, 8
	mov	x1, 8
.LVL64:
	csel	x1, x20, x1, cs
	bl	_ZN6VectorI10FAT32EntryE14resizeCapacityEm
.LVL65:
	tst	w0, 255
	beq	.L38
	.loc 1 20 0
	str	x20, [x19, 16]
.L38:
.LBE24:
	.loc 1 22 0
	ldp	x19, x20, [sp, 16]
.LVL66:
	ldp	x29, x30, [sp], 32
	.cfi_restore 30
	.cfi_restore 29
	.cfi_restore 19
	.cfi_restore 20
	.cfi_def_cfa 31, 0
	ret
	.cfi_endproc
.LFE1698:
	.size	_ZN6VectorI10FAT32EntryEC2Em, .-_ZN6VectorI10FAT32EntryEC2Em
	.weak	_ZN6VectorI10FAT32EntryEC1Em
	.set	_ZN6VectorI10FAT32EntryEC1Em,_ZN6VectorI10FAT32EntryEC2Em
	.section	.text._ZN10ByteReader4readI10FAT32EntryEE6VectorIT_Emm,"axG",@progbits,_ZN10ByteReader4readI10FAT32EntryEE6VectorIT_Emm,comdat
	.align	2
	.weak	_ZN10ByteReader4readI10FAT32EntryEE6VectorIT_Emm
	.type	_ZN10ByteReader4readI10FAT32EntryEE6VectorIT_Emm, %function
_ZN10ByteReader4readI10FAT32EntryEE6VectorIT_Emm:
.LFB1587:
	.file 5 "D:\\Pool\\eclipse-workspace_aarch64\\chap003\\include/templates_implementation/io/ByteReader.h"
	.loc 5 23 0
	.cfi_startproc
.LVL67:
	stp	x29, x30, [sp, -112]!
	.cfi_def_cfa_offset 112
	.cfi_offset 29, -112
	.cfi_offset 30, -104
	add	x29, sp, 0
	.cfi_def_cfa_register 29
	stp	x19, x20, [sp, 16]
	stp	x21, x22, [sp, 32]
	stp	x23, x24, [sp, 48]
	str	x25, [sp, 64]
	.cfi_offset 19, -96
	.cfi_offset 20, -88
	.cfi_offset 21, -80
	.cfi_offset 22, -72
	.cfi_offset 23, -64
	.cfi_offset 24, -56
	.cfi_offset 25, -48
	mov	x23, x8
	mov	x20, x0
	mov	x22, x1
	mov	x19, x2
	.loc 5 25 0
	add	x21, x29, 88
	mov	x1, x2
.LVL68:
	mov	x0, x21
.LVL69:
	bl	_ZN6VectorI10FAT32EntryEC1Em
.LVL70:
	.loc 5 26 0
	mov	x0, x21
	bl	_ZN6VectorI10FAT32EntryE7getDataEv
.LVL71:
	mov	x21, x0
.LVL72:
	.loc 5 27 0
	mov	x4, x0
	mov	x3, 0
	mov	w2, 1
	mov	x1, x22
	mov	x0, x20
.LVL73:
	bl	_ZN10ByteReader26adjustOneSecForReadOrWriteEmbPKcPc
.LVL74:
	mov	x24, x0
.LVL75:
	.loc 5 28 0
	lsl	x19, x19, 2
.LVL76:
	add	x25, x19, x22
.LVL77:
	.loc 5 29 0
	sub	x19, x19, x0
	mov	x0, x20
.LVL78:
	bl	_ZNK10ByteReader13getSectorSizeEv
.LVL79:
	udiv	x1, x25, x0
	msub	x0, x1, x0, x25
	sub	x19, x19, x0
.LVL80:
	.loc 5 30 0
	add	x4, x24, x19
	add	x4, x21, x4
	mov	x3, 0
	mov	w2, 0
	mov	x1, x25
	mov	x0, x20
	bl	_ZN10ByteReader26adjustOneSecForReadOrWriteEmbPKcPc
.LVL81:
	.loc 5 33 0
	cbnz	x19, .L44
.LVL82:
.L42:
	.loc 5 36 0
	add	x19, x29, 88
.LVL83:
	mov	x1, x19
	mov	x0, x23
	bl	_ZN6VectorI10FAT32EntryEC1EOS1_
.LVL84:
	.loc 5 25 0
	mov	x0, x19
	bl	_ZN6VectorI10FAT32EntryED1Ev
.LVL85:
	.loc 5 37 0
	mov	x0, x23
	ldp	x19, x20, [sp, 16]
.LVL86:
	ldp	x21, x22, [sp, 32]
	ldp	x23, x24, [sp, 48]
.LVL87:
	ldr	x25, [sp, 64]
	ldp	x29, x30, [sp], 112
	.cfi_remember_state
	.cfi_restore 30
	.cfi_restore 29
	.cfi_restore 25
	.cfi_restore 23
	.cfi_restore 24
	.cfi_restore 21
	.cfi_restore 22
	.cfi_restore 19
	.cfi_restore 20
	.cfi_def_cfa 31, 0
	ret
.LVL88:
.L44:
	.cfi_restore_state
	.loc 5 34 0
	ldr	x25, [x20]
.LVL89:
	add	x22, x22, x24
.LVL90:
	mov	x0, x20
	bl	_ZNK10ByteReader13getSectorSizeEv
.LVL91:
	udiv	x22, x22, x0
	add	x21, x21, x24
.LVL92:
	mov	x0, x20
	bl	_ZNK10ByteReader13getSectorSizeEv
.LVL93:
	udiv	x3, x19, x0
	mov	x2, x21
	mov	x1, x22
	mov	x0, x25
	bl	_ZN12SectorReader4readEmPvm
.LVL94:
	b	.L42
	.cfi_endproc
.LFE1587:
	.size	_ZN10ByteReader4readI10FAT32EntryEE6VectorIT_Emm, .-_ZN10ByteReader4readI10FAT32EntryEE6VectorIT_Emm
	.text
	.align	2
	.global	_ZN15FAT32EntryTableC2ER10ByteReaderP11FAT32ExtBPB
	.type	_ZN15FAT32EntryTableC2ER10ByteReaderP11FAT32ExtBPB, %function
_ZN15FAT32EntryTableC2ER10ByteReaderP11FAT32ExtBPB:
.LFB1348:
	.loc 2 10 0
	.cfi_startproc
.LVL95:
	stp	x29, x30, [sp, -96]!
	.cfi_def_cfa_offset 96
	.cfi_offset 29, -96
	.cfi_offset 30, -88
	add	x29, sp, 0
	.cfi_def_cfa_register 29
	stp	x19, x20, [sp, 16]
	stp	x21, x22, [sp, 32]
	str	x23, [sp, 48]
	.cfi_offset 19, -80
	.cfi_offset 20, -72
	.cfi_offset 21, -64
	.cfi_offset 22, -56
	.cfi_offset 23, -48
	mov	x20, x0
	mov	x23, x1
	mov	x19, x2
.LBB25:
	.loc 2 11 0
	ldrh	w22, [x2, 14]
	ldrh	w0, [x2, 11]
.LVL96:
	mul	w22, w22, w0
	mov	x0, x2
	bl	_ZNK11FAT32ExtBPB14uni_getFatSizeEv
.LVL97:
	ldrh	w2, [x19, 11]
	mul	x2, x0, x2
	add	x21, x29, 72
	mov	x8, x21
	lsr	x2, x2, 2
	sxtw	x1, w22
	mov	x0, x23
	bl	_ZN10ByteReader4readI10FAT32EntryEE6VectorIT_Emm
.LVL98:
	mov	x1, x21
	mov	x0, x20
	bl	_ZN6VectorI10FAT32EntryEC2EOS1_
.LVL99:
	mov	x0, x21
	bl	_ZN6VectorI10FAT32EntryED1Ev
.LVL100:
	str	x23, [x20, 24]
	str	x19, [x20, 32]
.LBE25:
	.loc 2 13 0
	ldp	x19, x20, [sp, 16]
.LVL101:
	ldp	x21, x22, [sp, 32]
	ldr	x23, [sp, 48]
.LVL102:
	ldp	x29, x30, [sp], 96
	.cfi_restore 30
	.cfi_restore 29
	.cfi_restore 23
	.cfi_restore 21
	.cfi_restore 22
	.cfi_restore 19
	.cfi_restore 20
	.cfi_def_cfa 31, 0
	ret
	.cfi_endproc
.LFE1348:
	.size	_ZN15FAT32EntryTableC2ER10ByteReaderP11FAT32ExtBPB, .-_ZN15FAT32EntryTableC2ER10ByteReaderP11FAT32ExtBPB
	.global	_ZN15FAT32EntryTableC1ER10ByteReaderP11FAT32ExtBPB
	.set	_ZN15FAT32EntryTableC1ER10ByteReaderP11FAT32ExtBPB,_ZN15FAT32EntryTableC2ER10ByteReaderP11FAT32ExtBPB
.Letext0:
	.file 6 "d:\\installed\\gcc-linaro-7.2.1-2017.11-i686-mingw32_aarch64-elf\\aarch64-elf\\include\\c++\\7.2.1\\cstddef"
	.file 7 "d:\\installed\\gcc-linaro-7.2.1-2017.11-i686-mingw32_aarch64-elf\\aarch64-elf\\include\\c++\\7.2.1\\cstdint"
	.file 8 "d:\\installed\\gcc-linaro-7.2.1-2017.11-i686-mingw32_aarch64-elf\\aarch64-elf\\include\\c++\\7.2.1\\type_traits"
	.file 9 "d:\\installed\\gcc-linaro-7.2.1-2017.11-i686-mingw32_aarch64-elf\\aarch64-elf\\include\\c++\\7.2.1\\aarch64-elf\\bits\\c++config.h"
	.file 10 "d:\\installed\\gcc-linaro-7.2.1-2017.11-i686-mingw32_aarch64-elf\\aarch64-elf\\include\\c++\\7.2.1\\bits\\exception_ptr.h"
	.file 11 "d:\\installed\\gcc-linaro-7.2.1-2017.11-i686-mingw32_aarch64-elf\\aarch64-elf\\include\\c++\\7.2.1\\new"
	.file 12 "d:\\installed\\gcc-linaro-7.2.1-2017.11-i686-mingw32_aarch64-elf\\aarch64-elf\\include\\c++\\7.2.1\\bits\\stl_pair.h"
	.file 13 "d:\\installed\\gcc-linaro-7.2.1-2017.11-i686-mingw32_aarch64-elf\\aarch64-elf\\include\\c++\\7.2.1\\debug\\debug.h"
	.file 14 "d:\\installed\\gcc-linaro-7.2.1-2017.11-i686-mingw32_aarch64-elf\\aarch64-elf\\include\\c++\\7.2.1\\cwchar"
	.file 15 "d:\\installed\\gcc-linaro-7.2.1-2017.11-i686-mingw32_aarch64-elf\\aarch64-elf\\include\\c++\\7.2.1\\clocale"
	.file 16 "d:\\installed\\gcc-linaro-7.2.1-2017.11-i686-mingw32_aarch64-elf\\aarch64-elf\\include\\c++\\7.2.1\\cctype"
	.file 17 "d:\\installed\\gcc-linaro-7.2.1-2017.11-i686-mingw32_aarch64-elf\\aarch64-elf\\include\\c++\\7.2.1\\bits\\std_abs.h"
	.file 18 "d:\\installed\\gcc-linaro-7.2.1-2017.11-i686-mingw32_aarch64-elf\\aarch64-elf\\include\\c++\\7.2.1\\cstdlib"
	.file 19 "d:\\installed\\gcc-linaro-7.2.1-2017.11-i686-mingw32_aarch64-elf\\aarch64-elf\\include\\c++\\7.2.1\\cstdio"
	.file 20 "d:\\installed\\gcc-linaro-7.2.1-2017.11-i686-mingw32_aarch64-elf\\aarch64-elf\\include\\c++\\7.2.1\\bits\\basic_string.h"
	.file 21 "d:\\installed\\gcc-linaro-7.2.1-2017.11-i686-mingw32_aarch64-elf\\aarch64-elf\\include\\c++\\7.2.1\\bits\\uses_allocator.h"
	.file 22 "d:\\installed\\gcc-linaro-7.2.1-2017.11-i686-mingw32_aarch64-elf\\aarch64-elf\\include\\c++\\7.2.1\\tuple"
	.file 23 "d:\\installed\\gcc-linaro-7.2.1-2017.11-i686-mingw32_aarch64-elf\\aarch64-elf\\include\\c++\\7.2.1\\functional"
	.file 24 "d:\\installed\\gcc-linaro-7.2.1-2017.11-i686-mingw32_aarch64-elf\\aarch64-elf\\include\\c++\\7.2.1\\cstring"
	.file 25 "d:\\installed\\gcc-linaro-7.2.1-2017.11-i686-mingw32_aarch64-elf\\aarch64-elf\\include\\c++\\7.2.1\\initializer_list"
	.file 26 "d:\\installed\\gcc-linaro-7.2.1-2017.11-i686-mingw32_aarch64-elf\\aarch64-elf\\include\\c++\\7.2.1\\bits\\stl_function.h"
	.file 27 "d:\\installed\\gcc-linaro-7.2.1-2017.11-i686-mingw32_aarch64-elf\\aarch64-elf\\include\\c++\\7.2.1\\bits\\move.h"
	.file 28 "d:\\installed\\gcc-linaro-7.2.1-2017.11-i686-mingw32_aarch64-elf\\aarch64-elf\\include\\c++\\7.2.1\\bits\\predefined_ops.h"
	.file 29 "d:\\installed\\gcc-linaro-7.2.1-2017.11-i686-mingw32_aarch64-elf\\aarch64-elf\\include\\c++\\7.2.1\\ext\\new_allocator.h"
	.file 30 "d:\\installed\\gcc-linaro-7.2.1-2017.11-i686-mingw32_aarch64-elf\\aarch64-elf\\include\\c++\\7.2.1\\ext\\numeric_traits.h"
	.file 31 "d:\\installed\\gcc-linaro-7.2.1-2017.11-i686-mingw32_aarch64-elf\\lib\\gcc\\aarch64-elf\\7.2.1\\include\\stddef.h"
	.file 32 "d:\\installed\\gcc-linaro-7.2.1-2017.11-i686-mingw32_aarch64-elf\\lib\\gcc\\aarch64-elf\\7.2.1\\include\\stdint-gcc.h"
	.file 33 "D:\\Pool\\eclipse-workspace_aarch64\\chap003\\include/def.h"
	.file 34 "D:\\Pool\\eclipse-workspace_aarch64\\chap003\\include/printk.h"
	.file 35 "D:\\Pool\\eclipse-workspace_aarch64\\chap003\\include/io/SectorReader.h"
	.file 36 "D:\\Pool\\eclipse-workspace_aarch64\\chap003\\include/MemoryChunk.h"
	.file 37 "d:\\installed\\gcc-linaro-7.2.1-2017.11-i686-mingw32_aarch64-elf\\aarch64-elf\\libc\\usr\\include\\sys\\lock.h"
	.file 38 "d:\\installed\\gcc-linaro-7.2.1-2017.11-i686-mingw32_aarch64-elf\\aarch64-elf\\libc\\usr\\include\\sys\\_types.h"
	.file 39 "d:\\installed\\gcc-linaro-7.2.1-2017.11-i686-mingw32_aarch64-elf\\aarch64-elf\\libc\\usr\\include\\sys\\reent.h"
	.file 40 "d:\\installed\\gcc-linaro-7.2.1-2017.11-i686-mingw32_aarch64-elf\\lib\\gcc\\aarch64-elf\\7.2.1\\include\\stdarg.h"
	.file 41 "<built-in>"
	.file 42 "d:\\installed\\gcc-linaro-7.2.1-2017.11-i686-mingw32_aarch64-elf\\aarch64-elf\\libc\\usr\\include\\wchar.h"
	.file 43 "d:\\installed\\gcc-linaro-7.2.1-2017.11-i686-mingw32_aarch64-elf\\aarch64-elf\\libc\\usr\\include\\locale.h"
	.file 44 "d:\\installed\\gcc-linaro-7.2.1-2017.11-i686-mingw32_aarch64-elf\\aarch64-elf\\libc\\usr\\include\\ctype.h"
	.file 45 "d:\\installed\\gcc-linaro-7.2.1-2017.11-i686-mingw32_aarch64-elf\\aarch64-elf\\libc\\usr\\include\\stdlib.h"
	.file 46 "d:\\installed\\gcc-linaro-7.2.1-2017.11-i686-mingw32_aarch64-elf\\aarch64-elf\\libc\\usr\\include\\stdio.h"
	.file 47 "d:\\installed\\gcc-linaro-7.2.1-2017.11-i686-mingw32_aarch64-elf\\aarch64-elf\\libc\\usr\\include\\sys\\errno.h"
	.file 48 "D:\\Pool\\eclipse-workspace_aarch64\\chap003\\include/filesystem/fat/FAT32Entry.h"
	.file 49 "D:\\Pool\\eclipse-workspace_aarch64\\chap003\\include/filesystem/fat/FAT_BPB.h"
	.file 50 "D:\\Pool\\eclipse-workspace_aarch64\\chap003\\include/filesystem/fat/FAT32ExtBPB.h"
	.file 51 "D:\\Pool\\eclipse-workspace_aarch64\\chap003\\include/io/ByteReader.h"
	.file 52 "d:\\installed\\gcc-linaro-7.2.1-2017.11-i686-mingw32_aarch64-elf\\aarch64-elf\\libc\\usr\\include\\string.h"
	.file 53 "D:\\Pool\\eclipse-workspace_aarch64\\chap003\\include/data_structures/Vector.h"
	.file 54 "D:\\Pool\\eclipse-workspace_aarch64\\chap003\\include/filesystem/fat/FAT32EntryTable.h"
	.file 55 "d:\\installed\\gcc-linaro-7.2.1-2017.11-i686-mingw32_aarch64-elf\\aarch64-elf\\include\\c++\\7.2.1\\bits\\functexcept.h"