	.arch armv8-a
	.file	"FATLongNameEntry.cpp"
	.text
.Ltext0:
	.cfi_sections	.debug_frame
	.align	2
	.global	_ZNK16FATLongNameEntry19uni_isLongNameEntryEv
	.type	_ZNK16FATLongNameEntry19uni_isLongNameEntryEv, %function
_ZNK16FATLongNameEntry19uni_isLongNameEntryEv:
.LFB123:
	.file 1 "../src/filesystem/fat/FATLongNameEntry.cpp"
	.loc 1 24 0
	.cfi_startproc
.LVL0:
	.loc 1 25 0
	ldrb	w0, [x0, 11]
.LVL1:
	and	w0, w0, 63
	cmp	w0, 15
	.loc 1 26 0
	cset	w0, eq
	ret
	.cfi_endproc
.LFE123:
	.size	_ZNK16FATLongNameEntry19uni_isLongNameEntryEv, .-_ZNK16FATLongNameEntry19uni_isLongNameEntryEv
	.align	2
	.global	_ZNK16FATLongNameEntry18getLastAppearEntryEv
	.type	_ZNK16FATLongNameEntry18getLastAppearEntryEv, %function
_ZNK16FATLongNameEntry18getLastAppearEntryEv:
.LFB124:
	.loc 1 30 0
	.cfi_startproc
.LVL2:
	stp	x29, x30, [sp, -32]!
	.cfi_def_cfa_offset 32
	.cfi_offset 29, -32
	.cfi_offset 30, -24
	add	x29, sp, 0
	.cfi_def_cfa_register 29
	stp	x19, x20, [sp, 16]
	.cfi_offset 19, -16
	.cfi_offset 20, -8
	mov	x20, x0
.LVL3:
	b	.L3
.LVL4:
.L4:
	.loc 1 32 0
	mov	x20, x19
.LVL5:
.L3:
	add	x19, x20, 32
.LVL6:
	mov	x0, x19
	bl	_ZNK16FATLongNameEntry19uni_isLongNameEntryEv
.LVL7:
	tst	w0, 255
	bne	.L4
	.loc 1 34 0
	mov	x0, x20
	ldp	x19, x20, [sp, 16]
.LVL8:
	ldp	x29, x30, [sp], 32
	.cfi_restore 30
	.cfi_restore 29
	.cfi_restore 19
	.cfi_restore 20
	.cfi_def_cfa 31, 0
	ret
	.cfi_endproc
.LFE124:
	.size	_ZNK16FATLongNameEntry18getLastAppearEntryEv, .-_ZNK16FATLongNameEntry18getLastAppearEntryEv
	.align	2
	.global	_ZNK16FATLongNameEntry22getOwnerDirectoryEntryEv
	.type	_ZNK16FATLongNameEntry22getOwnerDirectoryEntryEv, %function
_ZNK16FATLongNameEntry22getOwnerDirectoryEntryEv:
.LFB125:
	.loc 1 36 0
	.cfi_startproc
.LVL9:
	stp	x29, x30, [sp, -16]!
	.cfi_def_cfa_offset 16
	.cfi_offset 29, -16
	.cfi_offset 30, -8
	add	x29, sp, 0
	.cfi_def_cfa_register 29
	.loc 1 37 0
	bl	_ZNK16FATLongNameEntry18getLastAppearEntryEv
.LVL10:
	.loc 1 38 0
	add	x0, x0, 32
	ldp	x29, x30, [sp], 16
	.cfi_restore 30
	.cfi_restore 29
	.cfi_def_cfa 31, 0
	ret
	.cfi_endproc
.LFE125:
	.size	_ZNK16FATLongNameEntry22getOwnerDirectoryEntryEv, .-_ZNK16FATLongNameEntry22getOwnerDirectoryEntryEv
	.align	2
	.global	_ZN16FATLongNameEntry18getLastAppearEntryEv
	.type	_ZN16FATLongNameEntry18getLastAppearEntryEv, %function
_ZN16FATLongNameEntry18getLastAppearEntryEv:
.LFB126:
	.loc 1 40 0
	.cfi_startproc
.LVL11:
	stp	x29, x30, [sp, -16]!
	.cfi_def_cfa_offset 16
	.cfi_offset 29, -16
	.cfi_offset 30, -8
	add	x29, sp, 0
	.cfi_def_cfa_register 29
	.loc 1 41 0
	bl	_ZNK16FATLongNameEntry18getLastAppearEntryEv
.LVL12:
	.loc 1 42 0
	ldp	x29, x30, [sp], 16
	.cfi_restore 30
	.cfi_restore 29
	.cfi_def_cfa 31, 0
	ret
	.cfi_endproc
.LFE126:
	.size	_ZN16FATLongNameEntry18getLastAppearEntryEv, .-_ZN16FATLongNameEntry18getLastAppearEntryEv
	.align	2
	.global	_ZN16FATLongNameEntry22getOwnerDirectoryEntryEv
	.type	_ZN16FATLongNameEntry22getOwnerDirectoryEntryEv, %function
_ZN16FATLongNameEntry22getOwnerDirectoryEntryEv:
.LFB127:
	.loc 1 45 0
	.cfi_startproc
.LVL13:
	stp	x29, x30, [sp, -16]!
	.cfi_def_cfa_offset 16
	.cfi_offset 29, -16
	.cfi_offset 30, -8
	add	x29, sp, 0
	.cfi_def_cfa_register 29
	.loc 1 46 0
	bl	_ZNK16FATLongNameEntry22getOwnerDirectoryEntryEv
.LVL14:
	.loc 1 47 0
	ldp	x29, x30, [sp], 16
	.cfi_restore 30
	.cfi_restore 29
	.cfi_def_cfa 31, 0
	ret
	.cfi_endproc
.LFE127:
	.size	_ZN16FATLongNameEntry22getOwnerDirectoryEntryEv, .-_ZN16FATLongNameEntry22getOwnerDirectoryEntryEv
	.align	2
	.global	_ZN16FATLongNameEntry22unicodeCharToAsciiCharEPKv
	.type	_ZN16FATLongNameEntry22unicodeCharToAsciiCharEPKv, %function
_ZN16FATLongNameEntry22unicodeCharToAsciiCharEPKv:
.LFB132:
	.loc 1 125 0
	.cfi_startproc
.LVL15:
	.loc 1 127 0
	ldrb	w0, [x0]
.LVL16:
	ret
	.cfi_endproc
.LFE132:
	.size	_ZN16FATLongNameEntry22unicodeCharToAsciiCharEPKv, .-_ZN16FATLongNameEntry22unicodeCharToAsciiCharEPKv
	.align	2
	.global	_ZNK16FATLongNameEntry19lookupFirstNullCharEv
	.type	_ZNK16FATLongNameEntry19lookupFirstNullCharEv, %function
_ZNK16FATLongNameEntry19lookupFirstNullCharEv:
.LFB130:
	.loc 1 93 0
	.cfi_startproc
.LVL17:
	stp	x29, x30, [sp, -32]!
	.cfi_def_cfa_offset 32
	.cfi_offset 29, -32
	.cfi_offset 30, -24
	add	x29, sp, 0
	.cfi_def_cfa_register 29
	stp	x19, x20, [sp, 16]
	.cfi_offset 19, -16
	.cfi_offset 20, -8
	mov	x20, x0
.LVL18:
.LBB7:
	.loc 1 101 0
	mov	x19, 0
.LVL19:
.L16:
	.loc 1 101 0 is_stmt 0 discriminator 5
	cmp	x19, 10
	beq	.L20
.LBB8:
	.loc 1 101 0 discriminator 2
	add	x0, x20, 1
	add	x0, x0, x19
	bl	_ZN16FATLongNameEntry22unicodeCharToAsciiCharEPKv
.LVL20:
	sxtb	w0, w0
.LVL21:
	cbz	w0, .L13
.LBE8:
	.loc 1 101 0 discriminator 4
	add	x19, x19, 2
.LVL22:
	b	.L16
.LVL23:
.L20:
.LBE7:
.LBB9:
	.loc 1 102 0 is_stmt 1
	mov	x19, 0
.LVL24:
.L14:
	.loc 1 102 0 is_stmt 0 discriminator 5
	cmp	x19, 12
	beq	.L21
.LBB10:
	.loc 1 102 0 discriminator 2
	add	x0, x20, 14
	add	x0, x0, x19
	bl	_ZN16FATLongNameEntry22unicodeCharToAsciiCharEPKv
.LVL25:
	sxtb	w0, w0
.LVL26:
	cbz	w0, .L24
.LBE10:
	.loc 1 102 0 discriminator 4
	add	x19, x19, 2
.LVL27:
	b	.L14
.L24:
.LBB11:
	.loc 1 102 0 discriminator 3
	add	x19, x19, 10
.LVL28:
	b	.L13
.LVL29:
.L21:
.LBE11:
.LBE9:
.LBB12:
	.loc 1 103 0 is_stmt 1
	mov	x19, 0
.LVL30:
.L17:
	.loc 1 103 0 is_stmt 0 discriminator 5
	cmp	x19, 4
	beq	.L22
.LBB13:
	.loc 1 103 0 discriminator 2
	add	x0, x20, 28
	add	x0, x0, x19
	bl	_ZN16FATLongNameEntry22unicodeCharToAsciiCharEPKv
.LVL31:
	sxtb	w0, w0
.LVL32:
	cbz	w0, .L25
.LBE13:
	.loc 1 103 0 discriminator 4
	add	x19, x19, 2
.LVL33:
	b	.L17
.L25:
.LBB14:
	.loc 1 103 0 discriminator 3
	add	x19, x19, 22
.LVL34:
	b	.L13
.LVL35:
.L22:
.LBE14:
.LBE12:
	.loc 1 104 0 is_stmt 1
	mov	x19, -1
.LVL36:
.L13:
	.loc 1 106 0
	mov	x0, x19
	ldp	x19, x20, [sp, 16]
.LVL37:
	ldp	x29, x30, [sp], 32
	.cfi_restore 30
	.cfi_restore 29
	.cfi_restore 19
	.cfi_restore 20
	.cfi_def_cfa 31, 0
	ret
	.cfi_endproc
.LFE130:
	.size	_ZNK16FATLongNameEntry19lookupFirstNullCharEv, .-_ZNK16FATLongNameEntry19lookupFirstNullCharEv
	.section	.text._ZN6VectorIcED2Ev,"axG",@progbits,_ZN6VectorIcED5Ev,comdat
	.align	2
	.weak	_ZN6VectorIcED2Ev
	.type	_ZN6VectorIcED2Ev, %function
_ZN6VectorIcED2Ev:
.LFB134:
	.file 2 "D:\\Pool\\eclipse-workspace_aarch64\\chap003\\include/templates_implementation/data_structures/Vector.h"
	.loc 2 53 0
	.cfi_startproc
.LVL38:
.LBB15:
	.loc 2 55 0
	ldr	x1, [x0]
	cbz	x1, .L29
.LBE15:
	.loc 2 53 0
	stp	x29, x30, [sp, -16]!
	.cfi_def_cfa_offset 16
	.cfi_offset 29, -16
	.cfi_offset 30, -8
	add	x29, sp, 0
	.cfi_def_cfa_register 29
.LBB16:
	.loc 2 57 0
	adrp	x0, mman
.LVL39:
	add	x0, x0, :lo12:mman
	bl	_ZN13MemoryManager10deallocateEPv
.LVL40:
.LBE16:
	.loc 2 60 0
	ldp	x29, x30, [sp], 16
	.cfi_restore 30
	.cfi_restore 29
	.cfi_def_cfa 31, 0
	ret
.LVL41:
.L29:
	ret
	.cfi_endproc
.LFE134:
	.size	_ZN6VectorIcED2Ev, .-_ZN6VectorIcED2Ev
	.weak	_ZN6VectorIcED1Ev
	.set	_ZN6VectorIcED1Ev,_ZN6VectorIcED2Ev
	.section	.text._ZNK9VectorRefIcE7getDataEv,"axG",@progbits,_ZNK9VectorRefIcE7getDataEv,comdat
	.align	2
	.weak	_ZNK9VectorRefIcE7getDataEv
	.type	_ZNK9VectorRefIcE7getDataEv, %function
_ZNK9VectorRefIcE7getDataEv:
.LFB137:
	.file 3 "D:\\Pool\\eclipse-workspace_aarch64\\chap003\\include/templates_implementation/data_structures/VectorRef.h"
	.loc 3 23 0
	.cfi_startproc
.LVL42:
	.loc 3 26 0
	ldr	x0, [x0]
.LVL43:
	ret
	.cfi_endproc
.LFE137:
	.size	_ZNK9VectorRefIcE7getDataEv, .-_ZNK9VectorRefIcE7getDataEv
	.section	.text._ZNK9VectorRefIcE7getSizeEv,"axG",@progbits,_ZNK9VectorRefIcE7getSizeEv,comdat
	.align	2
	.weak	_ZNK9VectorRefIcE7getSizeEv
	.type	_ZNK9VectorRefIcE7getSizeEv, %function
_ZNK9VectorRefIcE7getSizeEv:
.LFB138:
	.loc 3 29 0
	.cfi_startproc
.LVL44:
	.loc 3 32 0
	ldr	x0, [x0, 8]
.LVL45:
	ret
	.cfi_endproc
.LFE138:
	.size	_ZNK9VectorRefIcE7getSizeEv, .-_ZNK9VectorRefIcE7getSizeEv
	.section	.text._ZN9VectorRefIcE7setDataEPKc,"axG",@progbits,_ZN9VectorRefIcE7setDataEPKc,comdat
	.align	2
	.weak	_ZN9VectorRefIcE7setDataEPKc
	.type	_ZN9VectorRefIcE7setDataEPKc, %function
_ZN9VectorRefIcE7setDataEPKc:
.LFB139:
	.loc 3 36 0
	.cfi_startproc
.LVL46:
	.loc 3 38 0
	str	x1, [x0]
	.loc 3 39 0
	ret
	.cfi_endproc
.LFE139:
	.size	_ZN9VectorRefIcE7setDataEPKc, .-_ZN9VectorRefIcE7setDataEPKc
	.section	.text._ZN9VectorRefIcE7setSizeEm,"axG",@progbits,_ZN9VectorRefIcE7setSizeEm,comdat
	.align	2
	.weak	_ZN9VectorRefIcE7setSizeEm
	.type	_ZN9VectorRefIcE7setSizeEm, %function
_ZN9VectorRefIcE7setSizeEm:
.LFB140:
	.loc 3 41 0
	.cfi_startproc
.LVL47:
	.loc 3 43 0
	str	x1, [x0, 8]
	.loc 3 44 0
	ret
	.cfi_endproc
.LFE140:
	.size	_ZN9VectorRefIcE7setSizeEm, .-_ZN9VectorRefIcE7setSizeEm
	.section	.text._ZNK9VectorRefIcEixEm,"axG",@progbits,_ZNK9VectorRefIcEixEm,comdat
	.align	2
	.weak	_ZNK9VectorRefIcEixEm
	.type	_ZNK9VectorRefIcEixEm, %function
_ZNK9VectorRefIcEixEm:
.LFB141:
	.loc 3 47 0
	.cfi_startproc
.LVL48:
	.loc 3 49 0
	ldr	x0, [x0]
.LVL49:
	.loc 3 50 0
	add	x0, x0, x1
	ret
	.cfi_endproc
.LFE141:
	.size	_ZNK9VectorRefIcEixEm, .-_ZNK9VectorRefIcEixEm
	.text
	.align	2
	.global	_ZN16FATLongNameEntry27unicodeNameMatchesAsciiNameEPKcmRK9StringRefb
	.type	_ZN16FATLongNameEntry27unicodeNameMatchesAsciiNameEPKcmRK9StringRefb, %function
_ZN16FATLongNameEntry27unicodeNameMatchesAsciiNameEPKcmRK9StringRefb:
.LFB131:
	.loc 1 108 0
	.cfi_startproc
.LVL50:
	stp	x29, x30, [sp, -64]!
	.cfi_def_cfa_offset 64
	.cfi_offset 29, -64
	.cfi_offset 30, -56
	add	x29, sp, 0
	.cfi_def_cfa_register 29
	stp	x19, x20, [sp, 16]
	stp	x21, x22, [sp, 32]
	stp	x23, x24, [sp, 48]
	.cfi_offset 19, -48
	.cfi_offset 20, -40
	.cfi_offset 21, -32
	.cfi_offset 22, -24
	.cfi_offset 23, -16
	.cfi_offset 24, -8
	mov	x23, x0
	mov	x22, x1
	mov	x21, x2
	and	w24, w3, 255
.LVL51:
	.loc 1 111 0
	mov	x19, 0
.LVL52:
.L40:
.LBB17:
	.loc 1 112 0 discriminator 1
	cmp	x19, x22
	beq	.L38
.LBB18:
	.loc 1 114 0
	add	x0, x23, x19
	bl	_ZN16FATLongNameEntry22unicodeCharToAsciiCharEPKv
.LVL53:
	sxtb	w20, w0
.LVL54:
	.loc 1 115 0
	lsr	x1, x19, 1
	mov	x0, x21
.LVL55:
	bl	_ZNK9VectorRefIcEixEm
.LVL56:
	ldrsb	w0, [x0]
.LVL57:
	.loc 1 116 0
	cmp	w20, w0
	bne	.L41
	.loc 1 118 0
	cbz	w0, .L42
.LBE18:
	.loc 1 112 0
	add	x19, x19, 2
.LVL58:
	b	.L40
.LVL59:
.L38:
.LBE17:
	.loc 1 121 0
	lsr	x1, x19, 1
	mov	x0, x21
	bl	_ZNK9VectorRefIcEixEm
.LVL60:
	ldrsb	w0, [x0]
	cbnz	w0, .L39
	mov	w24, 1
.LVL61:
	b	.L39
.LVL62:
.L41:
.LBB21:
.LBB19:
	.loc 1 117 0
	mov	w24, 0
.LVL63:
.L39:
.LBE19:
.LBE21:
	.loc 1 122 0
	mov	w0, w24
	ldp	x19, x20, [sp, 16]
.LVL64:
	ldp	x21, x22, [sp, 32]
.LVL65:
	ldp	x23, x24, [sp, 48]
.LVL66:
	ldp	x29, x30, [sp], 64
	.cfi_remember_state
	.cfi_restore 30
	.cfi_restore 29
	.cfi_restore 23
	.cfi_restore 24
	.cfi_restore 21
	.cfi_restore 22
	.cfi_restore 19
	.cfi_restore 20
	.cfi_def_cfa 31, 0
	ret
.LVL67:
.L42:
	.cfi_restore_state
.LBB22:
.LBB20:
	.loc 1 119 0
	mov	w24, 1
	b	.L39
.LBE20:
.LBE22:
	.cfi_endproc
.LFE131:
	.size	_ZN16FATLongNameEntry27unicodeNameMatchesAsciiNameEPKcmRK9StringRefb, .-_ZN16FATLongNameEntry27unicodeNameMatchesAsciiNameEPKcmRK9StringRefb
	.align	2
	.global	_ZNK16FATLongNameEntry19nameEqulasAsciiNameERK9StringRefb
	.type	_ZNK16FATLongNameEntry19nameEqulasAsciiNameERK9StringRefb, %function
_ZNK16FATLongNameEntry19nameEqulasAsciiNameERK9StringRefb:
.LFB128:
	.loc 1 50 0
	.cfi_startproc
.LVL68:
	stp	x29, x30, [sp, -96]!
	.cfi_def_cfa_offset 96
	.cfi_offset 29, -96
	.cfi_offset 30, -88
	add	x29, sp, 0
	.cfi_def_cfa_register 29
	stp	x19, x20, [sp, 16]
	str	x21, [sp, 32]
	.cfi_offset 19, -80
	.cfi_offset 20, -72
	.cfi_offset 21, -64
	mov	x19, x0
	mov	x20, x1
	and	w21, w2, 255
	.loc 1 51 0
	bl	_ZNK16FATLongNameEntry19lookupFirstNullCharEv
.LVL69:
	.loc 1 52 0
	cmp	x0, 9
	bls	.L53
	.loc 1 54 0
	cmp	x0, 21
	bhi	.L54
	mov	w0, 2
.LVL70:
	b	.L46
.LVL71:
.L53:
	.loc 1 52 0
	mov	w0, 1
.LVL72:
.L46:
	.loc 1 56 0 discriminator 3
	cmp	w0, 2
	beq	.L48
	cmp	w0, 3
	beq	.L49
	cmp	w0, 1
	beq	.L58
	.loc 1 68 0
	mov	w0, 0
.LVL73:
	b	.L47
.LVL74:
.L54:
	.loc 1 54 0
	mov	w0, 3
.LVL75:
	b	.L46
.LVL76:
.L58:
	.loc 1 59 0
	mov	w3, w21
	mov	x2, x20
	mov	x1, 10
	add	x0, x19, 1
.LVL77:
	bl	_ZN16FATLongNameEntry27unicodeNameMatchesAsciiNameEPKcmRK9StringRefb
.LVL78:
	and	w0, w0, 255
.L47:
	.loc 1 69 0
	ldp	x19, x20, [sp, 16]
.LVL79:
	ldr	x21, [sp, 32]
.LVL80:
	ldp	x29, x30, [sp], 96
	.cfi_remember_state
	.cfi_restore 30
	.cfi_restore 29
	.cfi_restore 21
	.cfi_restore 19
	.cfi_restore 20
	.cfi_def_cfa 31, 0
	ret
.LVL81:
.L48:
	.cfi_restore_state
	.loc 1 62 0
	mov	w3, 1
	mov	x2, x20
	mov	x1, 10
	add	x0, x19, 1
.LVL82:
	bl	_ZN16FATLongNameEntry27unicodeNameMatchesAsciiNameEPKcmRK9StringRefb
.LVL83:
	ands	w0, w0, 255
	beq	.L47
	.loc 1 62 0 is_stmt 0 discriminator 1
	mov	x0, x20
	bl	_ZNK9VectorRefIcE7getDataEv
.LVL84:
	mov	x1, 5
	bl	_Z9strOffsetPKcm
.LVL85:
	mov	x1, x0
	add	x0, x29, 48
	bl	_ZN9StringRefC1EPKv
.LVL86:
	mov	w3, w21
	add	x2, x29, 48
	mov	x1, 12
	add	x0, x19, 14
	bl	_ZN16FATLongNameEntry27unicodeNameMatchesAsciiNameEPKcmRK9StringRefb
.LVL87:
	and	w0, w0, 255
	b	.L47
.LVL88:
.L49:
	.loc 1 65 0 is_stmt 1
	mov	w3, 1
	mov	x2, x20
	mov	x1, 10
	add	x0, x19, 1
.LVL89:
	bl	_ZN16FATLongNameEntry27unicodeNameMatchesAsciiNameEPKcmRK9StringRefb
.LVL90:
	ands	w0, w0, 255
	beq	.L47
	.loc 1 65 0 is_stmt 0 discriminator 1
	mov	x0, x20
	bl	_ZNK9VectorRefIcE7getDataEv
.LVL91:
	mov	x1, 5
	bl	_Z9strOffsetPKcm
.LVL92:
	mov	x1, x0
	add	x0, x29, 64
	bl	_ZN9StringRefC1EPKv
.LVL93:
	mov	w3, 1
	add	x2, x29, 64
	mov	x1, 12
	add	x0, x19, 14
	bl	_ZN16FATLongNameEntry27unicodeNameMatchesAsciiNameEPKcmRK9StringRefb
.LVL94:
	ands	w0, w0, 255
	beq	.L47
	.loc 1 65 0 discriminator 3
	mov	x0, x20
	bl	_ZNK9VectorRefIcE7getDataEv
.LVL95:
	mov	x1, 11
	bl	_Z9strOffsetPKcm
.LVL96:
	mov	x1, x0
	add	x0, x29, 80
	bl	_ZN9StringRefC1EPKv
.LVL97:
	mov	w3, w21
	add	x2, x29, 80
	mov	x1, 4
	add	x0, x19, 28
	bl	_ZN16FATLongNameEntry27unicodeNameMatchesAsciiNameEPKcmRK9StringRefb
.LVL98:
	and	w0, w0, 255
	b	.L47
	.cfi_endproc
.LFE128:
	.size	_ZNK16FATLongNameEntry19nameEqulasAsciiNameERK9StringRefb, .-_ZNK16FATLongNameEntry19nameEqulasAsciiNameERK9StringRefb
	.align	2
	.global	_ZNK16FATLongNameEntry23nameEqulasAsciiNameUptoEPKS_RK9StringRefb
	.type	_ZNK16FATLongNameEntry23nameEqulasAsciiNameUptoEPKS_RK9StringRefb, %function
_ZNK16FATLongNameEntry23nameEqulasAsciiNameUptoEPKS_RK9StringRefb:
.LFB129:
	.loc 1 71 0 is_stmt 1
	.cfi_startproc
.LVL99:
	stp	x29, x30, [sp, -64]!
	.cfi_def_cfa_offset 64
	.cfi_offset 29, -64
	.cfi_offset 30, -56
	add	x29, sp, 0
	.cfi_def_cfa_register 29
	stp	x19, x20, [sp, 16]
	str	x21, [sp, 32]
	.cfi_offset 19, -48
	.cfi_offset 20, -40
	.cfi_offset 21, -32
	mov	x19, x0
	mov	x20, x1
	and	w21, w3, 255
.LVL100:
	.loc 1 73 0
	ldp	x0, x1, [x2]
.LVL101:
	stp	x0, x1, [x29, 48]
	b	.L60
.LVL102:
.L63:
.LBB23:
	.loc 1 85 0
	adrp	x1, EMPTY_STR
	add	x1, x1, :lo12:EMPTY_STR
	add	x0, x29, 48
	bl	_ZN9VectorRefIcE7setDataEPKc
.LVL103:
	.loc 1 86 0
	mov	x1, 0
	add	x0, x29, 48
	bl	_ZN9VectorRefIcE7setSizeEm
.LVL104:
.L60:
.LBE23:
	.loc 1 74 0
	cmp	x19, x20
	beq	.L61
.LBB24:
	.loc 1 76 0
	mov	w2, 1
	add	x1, x29, 48
	mov	x0, x19
	bl	_ZNK16FATLongNameEntry19nameEqulasAsciiNameERK9StringRefb
.LVL105:
	ands	w0, w0, 255
	beq	.L62
	.loc 1 78 0
	sub	x19, x19, #32
.LVL106:
	.loc 1 80 0
	add	x0, x29, 48
	bl	_ZNK9VectorRefIcE7getSizeEv
.LVL107:
	cmp	x0, 13
	bls	.L63
	.loc 1 82 0
	add	x0, x29, 48
	bl	_ZNK9VectorRefIcE7getDataEv
.LVL108:
	add	x1, x0, 13
	add	x0, x29, 48
	bl	_ZN9VectorRefIcE7setDataEPKc
.LVL109:
	.loc 1 83 0
	add	x0, x29, 48
	bl	_ZNK9VectorRefIcE7getSizeEv
.LVL110:
	sub	x1, x0, #13
	add	x0, x29, 48
	bl	_ZN9VectorRefIcE7setSizeEm
.LVL111:
	b	.L60
.LVL112:
.L61:
.LBE24:
	.loc 1 89 0
	mov	w2, w21
	add	x1, x29, 48
	mov	x0, x19
	bl	_ZNK16FATLongNameEntry19nameEqulasAsciiNameERK9StringRefb
.LVL113:
	and	w0, w0, 255
.L62:
	.loc 1 90 0
	ldp	x19, x20, [sp, 16]
.LVL114:
	ldr	x21, [sp, 32]
.LVL115:
	ldp	x29, x30, [sp], 64
	.cfi_restore 30
	.cfi_restore 29
	.cfi_restore 21
	.cfi_restore 19
	.cfi_restore 20
	.cfi_def_cfa 31, 0
	ret
	.cfi_endproc
.LFE129:
	.size	_ZNK16FATLongNameEntry23nameEqulasAsciiNameUptoEPKS_RK9StringRefb, .-_ZNK16FATLongNameEntry23nameEqulasAsciiNameUptoEPKS_RK9StringRefb
	.section	.text._ZN6VectorIcE18getIncrementalSizeEm,"axG",@progbits,_ZN6VectorIcE18getIncrementalSizeEm,comdat
	.align	2
	.weak	_ZN6VectorIcE18getIncrementalSizeEm
	.type	_ZN6VectorIcE18getIncrementalSizeEm, %function
_ZN6VectorIcE18getIncrementalSizeEm:
.LFB144:
	.loc 2 209 0
	.cfi_startproc
.LVL116:
	.loc 2 211 0
	add	x0, x0, x0, lsl 1
.LVL117:
	.loc 2 212 0
	lsr	x0, x0, 1
	ret
	.cfi_endproc
.LFE144:
	.size	_ZN6VectorIcE18getIncrementalSizeEm, .-_ZN6VectorIcE18getIncrementalSizeEm
	.section	.text._ZN13MemoryManager10allocateAsIPcEET_m,"axG",@progbits,_ZN13MemoryManager10allocateAsIPcEET_m,comdat
	.align	2
	.weak	_ZN13MemoryManager10allocateAsIPcEET_m
	.type	_ZN13MemoryManager10allocateAsIPcEET_m, %function
_ZN13MemoryManager10allocateAsIPcEET_m:
.LFB145:
	.file 4 "D:\\Pool\\eclipse-workspace_aarch64\\chap003\\include/MemoryManager.h"
	.loc 4 81 0
	.cfi_startproc
.LVL118:
	stp	x29, x30, [sp, -16]!
	.cfi_def_cfa_offset 16
	.cfi_offset 29, -16
	.cfi_offset 30, -8
	add	x29, sp, 0
	.cfi_def_cfa_register 29
	.loc 4 83 0
	bl	_ZN13MemoryManager8allocateEm
.LVL119:
	.loc 4 84 0
	ldp	x29, x30, [sp], 16
	.cfi_restore 30
	.cfi_restore 29
	.cfi_def_cfa 31, 0
	ret
	.cfi_endproc
.LFE145:
	.size	_ZN13MemoryManager10allocateAsIPcEET_m, .-_ZN13MemoryManager10allocateAsIPcEET_m
	.section	.text._ZN6VectorIcE14resizeCapacityEm,"axG",@progbits,_ZN6VectorIcE14resizeCapacityEm,comdat
	.align	2
	.weak	_ZN6VectorIcE14resizeCapacityEm
	.type	_ZN6VectorIcE14resizeCapacityEm, %function
_ZN6VectorIcE14resizeCapacityEm:
.LFB143:
	.loc 2 167 0
	.cfi_startproc
.LVL120:
	.loc 2 169 0
	ldr	x2, [x0, 8]
	cmp	x2, x1
	beq	.L73
	.loc 2 167 0
	stp	x29, x30, [sp, -48]!
	.cfi_def_cfa_offset 48
	.cfi_offset 29, -48
	.cfi_offset 30, -40
	add	x29, sp, 0
	.cfi_def_cfa_register 29
	stp	x19, x20, [sp, 16]
	str	x21, [sp, 32]
	.cfi_offset 19, -32
	.cfi_offset 20, -24
	.cfi_offset 21, -16
	mov	x21, x1
	mov	x19, x0
	.loc 2 171 0
	adrp	x20, mman
	add	x20, x20, :lo12:mman
	mov	x2, x1
	ldr	x1, [x0]
.LVL121:
	mov	x0, x20
.LVL122:
	bl	_ZN13MemoryManager10reallocateEPvm
.LVL123:
	.loc 2 172 0
	mov	x1, x21
	mov	x0, x20
	bl	_ZN13MemoryManager10allocateAsIPcEET_m
.LVL124:
	mov	x20, x0
.LVL125:
	.loc 2 173 0
	cbz	x0, .L74
.LBB25:
	.loc 2 176 0
	mov	x2, 0
.LVL126:
.L72:
	.loc 2 176 0 is_stmt 0 discriminator 3
	ldr	x0, [x19, 16]
	cmp	x0, x2
	beq	.L71
	.loc 2 177 0 is_stmt 1 discriminator 2
	ldr	x0, [x19]
	ldrsb	w0, [x0, x2]
	strb	w0, [x20, x2]
	.loc 2 176 0 discriminator 2
	add	x2, x2, 1
.LVL127:
	b	.L72
.L71:
.LBE25:
	.loc 2 178 0
	ldr	x1, [x19]
	adrp	x0, mman
	add	x0, x0, :lo12:mman
	bl	_ZN13MemoryManager10deallocateEPv
.LVL128:
	.loc 2 181 0
	str	x20, [x19]
	.loc 2 182 0
	str	x21, [x19, 8]
	.loc 2 183 0
	mov	w0, 1
.L70:
	.loc 2 184 0
	ldp	x19, x20, [sp, 16]
.LVL129:
	ldr	x21, [sp, 32]
.LVL130:
	ldp	x29, x30, [sp], 48
	.cfi_restore 30
	.cfi_restore 29
	.cfi_restore 21
	.cfi_restore 19
	.cfi_restore 20
	.cfi_def_cfa 31, 0
	ret
.LVL131:
.L73:
	.loc 2 170 0
	mov	w0, 1
.LVL132:
	.loc 2 184 0
	ret
.LVL133:
.L74:
	.cfi_def_cfa 29, 48
	.cfi_offset 19, -32
	.cfi_offset 20, -24
	.cfi_offset 21, -16
	.cfi_offset 29, -48
	.cfi_offset 30, -40
	.loc 2 174 0
	mov	w0, 0
.LVL134:
	b	.L70
	.cfi_endproc
.LFE143:
	.size	_ZN6VectorIcE14resizeCapacityEm, .-_ZN6VectorIcE14resizeCapacityEm
	.section	.text._ZN6VectorIcE24adjustCapacityForOneMoreEv,"axG",@progbits,_ZN6VectorIcE24adjustCapacityForOneMoreEv,comdat
	.align	2
	.weak	_ZN6VectorIcE24adjustCapacityForOneMoreEv
	.type	_ZN6VectorIcE24adjustCapacityForOneMoreEv, %function
_ZN6VectorIcE24adjustCapacityForOneMoreEv:
.LFB142:
	.loc 2 187 0
	.cfi_startproc
.LVL135:
	.loc 2 189 0
	ldr	x1, [x0, 16]
	add	x1, x1, 1
	ldr	x2, [x0, 8]
	cmp	x1, x2
	bhi	.L86
	.loc 2 191 0
	mov	w0, 1
.LVL136:
	.loc 2 192 0
	ret
.LVL137:
.L86:
	.loc 2 187 0
	stp	x29, x30, [sp, -32]!
	.cfi_def_cfa_offset 32
	.cfi_offset 29, -32
	.cfi_offset 30, -24
	add	x29, sp, 0
	.cfi_def_cfa_register 29
	str	x19, [sp, 16]
	.cfi_offset 19, -16
	mov	x19, x0
	.loc 2 190 0
	mov	x0, x2
.LVL138:
	bl	_ZN6VectorIcE18getIncrementalSizeEm
.LVL139:
	mov	x1, x0
	mov	x0, x19
	bl	_ZN6VectorIcE14resizeCapacityEm
.LVL140:
	and	w0, w0, 255
	.loc 2 192 0
	ldr	x19, [sp, 16]
.LVL141:
	ldp	x29, x30, [sp], 32
	.cfi_restore 30
	.cfi_restore 29
	.cfi_restore 19
	.cfi_def_cfa 31, 0
	ret
	.cfi_endproc
.LFE142:
	.size	_ZN6VectorIcE24adjustCapacityForOneMoreEv, .-_ZN6VectorIcE24adjustCapacityForOneMoreEv
	.section	.text._ZN6VectorIcE8pushBackEc,"axG",@progbits,_ZN6VectorIcE8pushBackEc,comdat
	.align	2
	.weak	_ZN6VectorIcE8pushBackEc
	.type	_ZN6VectorIcE8pushBackEc, %function
_ZN6VectorIcE8pushBackEc:
.LFB136:
	.loc 2 81 0
	.cfi_startproc
.LVL142:
	stp	x29, x30, [sp, -32]!
	.cfi_def_cfa_offset 32
	.cfi_offset 29, -32
	.cfi_offset 30, -24
	add	x29, sp, 0
	.cfi_def_cfa_register 29
	stp	x19, x20, [sp, 16]
	.cfi_offset 19, -16
	.cfi_offset 20, -8
	mov	x19, x0
	sxtb	w20, w1
	.loc 2 83 0
	bl	_ZN6VectorIcE24adjustCapacityForOneMoreEv
.LVL143:
	tst	w0, 255
	beq	.L87
	.loc 2 85 0
	ldr	x0, [x19, 16]
	add	x1, x0, 1
	str	x1, [x19, 16]
	.loc 2 86 0
	ldr	x1, [x19]
	strb	w20, [x1, x0]
.L87:
	.loc 2 88 0
	ldp	x19, x20, [sp, 16]
.LVL144:
	ldp	x29, x30, [sp], 32
	.cfi_restore 30
	.cfi_restore 29
	.cfi_restore 19
	.cfi_restore 20
	.cfi_def_cfa 31, 0
	ret
	.cfi_endproc
.LFE136:
	.size	_ZN6VectorIcE8pushBackEc, .-_ZN6VectorIcE8pushBackEc
	.text
	.align	2
	.global	_ZNK16FATLongNameEntry14getAsAsciiNameEb
	.type	_ZNK16FATLongNameEntry14getAsAsciiNameEb, %function
_ZNK16FATLongNameEntry14getAsAsciiNameEb:
.LFB118:
	.loc 1 7 0
	.cfi_startproc
.LVL145:
	stp	x29, x30, [sp, -80]!
	.cfi_def_cfa_offset 80
	.cfi_offset 29, -80
	.cfi_offset 30, -72
	add	x29, sp, 0
	.cfi_def_cfa_register 29
	stp	x19, x20, [sp, 16]
	stp	x21, x22, [sp, 32]
	.cfi_offset 19, -64
	.cfi_offset 20, -56
	.cfi_offset 21, -48
	.cfi_offset 22, -40
	mov	x22, x8
	mov	x21, x0
	and	w19, w1, 255
	.loc 1 8 0
	mov	x1, 0
.LVL146:
	add	x0, x29, 56
.LVL147:
	bl	_ZN6StringC1Em
.LVL148:
	.loc 1 11 0
	cbz	w19, .L100
	.loc 1 9 0
	mov	x19, 0
.LVL149:
.L92:
	.loc 1 12 0 discriminator 8
	cmp	x19, 9
	bhi	.L91
	.loc 1 12 0 is_stmt 0 discriminator 1
	add	x0, x21, 1
	add	x0, x0, x19
	bl	_ZN16FATLongNameEntry22unicodeCharToAsciiCharEPKv
.LVL150:
	sxtb	w0, w0
	cmp	w0, 32
	bne	.L91
	.loc 1 12 0
	add	x19, x19, 2
.LVL151:
	b	.L92
.LVL152:
.L100:
	.loc 1 9 0 is_stmt 1
	mov	x19, 0
.LVL153:
.L91:
	.loc 1 9 0 is_stmt 0 discriminator 8
	mov	w20, 0
.LVL154:
.L97:
	.loc 1 13 0 is_stmt 1 discriminator 8
	cmp	x19, 10
	beq	.L93
	.loc 1 13 0 is_stmt 0 discriminator 1
	add	x0, x21, 1
	add	x0, x0, x19
	bl	_ZN16FATLongNameEntry22unicodeCharToAsciiCharEPKv
.LVL155:
	sxtb	w20, w0
.LVL156:
	cbz	w20, .L93
	.loc 1 14 0 is_stmt 1
	mov	w1, w0
	add	x0, x29, 56
.LVL157:
	bl	_ZN6VectorIcE8pushBackEc
.LVL158:
	.loc 1 13 0
	add	x19, x19, 2
.LVL159:
	b	.L97
.LVL160:
.L93:
	.loc 1 15 0 discriminator 4
	cbnz	w20, .L101
.LVL161:
.L96:
	.loc 1 18 0
	cbz	w20, .L98
	.loc 1 19 0
	mov	x19, 0
.LVL162:
.L99:
	.loc 1 19 0 is_stmt 0 discriminator 9
	cmp	x19, 4
	beq	.L98
	.loc 1 19 0 discriminator 2
	add	x0, x21, 28
	add	x0, x0, x19
	bl	_ZN16FATLongNameEntry22unicodeCharToAsciiCharEPKv
.LVL163:
	sxtb	w1, w0
.LVL164:
	cbz	w1, .L98
	.loc 1 20 0 is_stmt 1
	mov	w1, w0
	add	x0, x29, 56
.LVL165:
	bl	_ZN6VectorIcE8pushBackEc
.LVL166:
	.loc 1 19 0
	add	x19, x19, 2
.LVL167:
	b	.L99
.LVL168:
.L101:
	.loc 1 16 0
	mov	x19, 0
.LVL169:
.L95:
	.loc 1 16 0 is_stmt 0 discriminator 9
	cmp	x19, 12
	beq	.L96
	.loc 1 16 0 discriminator 2
	add	x0, x21, 14
	add	x0, x0, x19
	bl	_ZN16FATLongNameEntry22unicodeCharToAsciiCharEPKv
.LVL170:
	sxtb	w20, w0
.LVL171:
	cbz	w20, .L96
	.loc 1 17 0 is_stmt 1
	mov	w1, w0
	add	x0, x29, 56
.LVL172:
	bl	_ZN6VectorIcE8pushBackEc
.LVL173:
	.loc 1 16 0
	add	x19, x19, 2
.LVL174:
	b	.L95
.LVL175:
.L98:
	.loc 1 21 0
	add	x1, x29, 56
	mov	x0, x22
	bl	_ZN6StringC1EOS_
.LVL176:
.LBB26:
.LBB27:
	.file 5 "D:\\Pool\\eclipse-workspace_aarch64\\chap003\\include/data_structures/String.h"
	.loc 5 14 0
	add	x0, x29, 56
.LVL177:
	bl	_ZN6VectorIcED2Ev
.LVL178:
.LBE27:
.LBE26:
	.loc 1 22 0
	mov	x0, x22
	ldp	x19, x20, [sp, 16]
.LVL179:
	ldp	x21, x22, [sp, 32]
.LVL180:
	ldp	x29, x30, [sp], 80
	.cfi_restore 30
	.cfi_restore 29
	.cfi_restore 21
	.cfi_restore 22
	.cfi_restore 19
	.cfi_restore 20
	.cfi_def_cfa 31, 0
	ret
	.cfi_endproc
.LFE118:
	.size	_ZNK16FATLongNameEntry14getAsAsciiNameEb, .-_ZNK16FATLongNameEntry14getAsAsciiNameEb
.Letext0:
	.file 6 "d:\\installed\\gcc-linaro-7.2.1-2017.11-i686-mingw32_aarch64-elf\\aarch64-elf\\include\\c++\\7.2.1\\cstddef"
	.file 7 "d:\\installed\\gcc-linaro-7.2.1-2017.11-i686-mingw32_aarch64-elf\\aarch64-elf\\include\\c++\\7.2.1\\cstdint"
	.file 8 "d:\\installed\\gcc-linaro-7.2.1-2017.11-i686-mingw32_aarch64-elf\\aarch64-elf\\include\\c++\\7.2.1\\aarch64-elf\\bits\\c++config.h"
	.file 9 "d:\\installed\\gcc-linaro-7.2.1-2017.11-i686-mingw32_aarch64-elf\\aarch64-elf\\include\\c++\\7.2.1\\type_traits"
	.file 10 "d:\\installed\\gcc-linaro-7.2.1-2017.11-i686-mingw32_aarch64-elf\\aarch64-elf\\include\\c++\\7.2.1\\bits\\stl_pair.h"
	.file 11 "d:\\installed\\gcc-linaro-7.2.1-2017.11-i686-mingw32_aarch64-elf\\lib\\gcc\\aarch64-elf\\7.2.1\\include\\stddef.h"
	.file 12 "d:\\installed\\gcc-linaro-7.2.1-2017.11-i686-mingw32_aarch64-elf\\lib\\gcc\\aarch64-elf\\7.2.1\\include\\stdint-gcc.h"
	.file 13 "D:\\Pool\\eclipse-workspace_aarch64\\chap003\\include/def.h"
	.file 14 "D:\\Pool\\eclipse-workspace_aarch64\\chap003\\include/generic_util.h"
	.file 15 "D:\\Pool\\eclipse-workspace_aarch64\\chap003\\include/printk.h"
	.file 16 "D:\\Pool\\eclipse-workspace_aarch64\\chap003\\include/MemoryChunk.h"
	.file 17 "D:\\Pool\\eclipse-workspace_aarch64\\chap003\\include/data_structures/Vector.h"
	.file 18 "D:\\Pool\\eclipse-workspace_aarch64\\chap003\\include/data_structures/VectorRef.h"
	.file 19 "D:\\Pool\\eclipse-workspace_aarch64\\chap003\\include/data_structures/StringRef.h"
	.file 20 "D:\\Pool\\eclipse-workspace_aarch64\\chap003\\include/filesystem/fat/FATDirEntry.h"
	.file 21 "d:\\installed\\gcc-linaro-7.2.1-2017.11-i686-mingw32_aarch64-elf\\aarch64-elf\\include\\c++\\7.2.1\\bits\\move.h"
	.file 22 "D:\\Pool\\eclipse-workspace_aarch64\\chap003\\include/filesystem/fat/FATLongNameEntry.h"
	.file 23 "<built-in>"