	.arch armv8.2-a+crc
	.file	"main_virtual_memory.cpp"
	.text
.Ltext0:
	.cfi_sections	.debug_frame
	.section	.text._ZN16IntegerFormatterILi16EEC2Em,"axG",@progbits,_ZN16IntegerFormatterILi16EEC5Em,comdat
	.align	2
	.weak	_ZN16IntegerFormatterILi16EEC2Em
	.type	_ZN16IntegerFormatterILi16EEC2Em, %function
_ZN16IntegerFormatterILi16EEC2Em:
.LFB144:
	.file 1 "D:\\Pool\\eclipse-workspace_aarch64\\chap003\\include/templates_implementation/IntegerFormatter.h"
	.loc 1 16 0
	.cfi_startproc
.LVL0:
.LBB60:
	.loc 1 17 0
	str	x1, [x0]
.LBE60:
	ret
	.cfi_endproc
.LFE144:
	.size	_ZN16IntegerFormatterILi16EEC2Em, .-_ZN16IntegerFormatterILi16EEC2Em
	.weak	_ZN16IntegerFormatterILi16EEC1Em
	.set	_ZN16IntegerFormatterILi16EEC1Em,_ZN16IntegerFormatterILi16EEC2Em
	.section	.text._ZNK16IntegerFormatterILi16EE6formatEv,"axG",@progbits,_ZNK16IntegerFormatterILi16EE6formatEv,comdat
	.align	2
	.weak	_ZNK16IntegerFormatterILi16EE6formatEv
	.type	_ZNK16IntegerFormatterILi16EE6formatEv, %function
_ZNK16IntegerFormatterILi16EE6formatEv:
.LFB147:
	.loc 1 24 0
	.cfi_startproc
.LVL1:
	stp	x29, x30, [sp, -32]!
	.cfi_def_cfa_offset 32
	.cfi_offset 29, -32
	.cfi_offset 30, -24
	add	x29, sp, 0
	.cfi_def_cfa_register 29
	str	x19, [sp, 16]
	.cfi_offset 19, -16
	.loc 1 26 0
	adrp	x19, koutBuf
	add	x19, x19, :lo12:koutBuf
	mov	x3, 65
	mov	x2, x19
	mov	w1, 16
	ldr	x0, [x0]
.LVL2:
	bl	_Z4itosmjPcm
.LVL3:
	.loc 1 28 0
	mov	x0, x19
	ldr	x19, [sp, 16]
	ldp	x29, x30, [sp], 32
	.cfi_restore 30
	.cfi_restore 29
	.cfi_restore 19
	.cfi_def_cfa 31, 0
	ret
	.cfi_endproc
.LFE147:
	.size	_ZNK16IntegerFormatterILi16EE6formatEv, .-_ZNK16IntegerFormatterILi16EE6formatEv
	.section	.text._ZlsILi16EER6OutputS1_RK16IntegerFormatterIXT_EE,"axG",@progbits,_ZlsILi16EER6OutputS1_RK16IntegerFormatterIXT_EE,comdat
	.align	2
	.weak	_ZlsILi16EER6OutputS1_RK16IntegerFormatterIXT_EE
	.type	_ZlsILi16EER6OutputS1_RK16IntegerFormatterIXT_EE, %function
_ZlsILi16EER6OutputS1_RK16IntegerFormatterIXT_EE:
.LFB146:
	.loc 1 31 0
	.cfi_startproc
.LVL4:
	stp	x29, x30, [sp, -32]!
	.cfi_def_cfa_offset 32
	.cfi_offset 29, -32
	.cfi_offset 30, -24
	add	x29, sp, 0
	.cfi_def_cfa_register 29
	str	x19, [sp, 16]
	.cfi_offset 19, -16
	mov	x19, x0
	.loc 1 33 0
	mov	x0, x1
.LVL5:
	bl	_ZNK16IntegerFormatterILi16EE6formatEv
.LVL6:
	mov	x1, x0
	mov	x0, x19
	bl	_ZN6OutputlsEPKc
.LVL7:
	.loc 1 35 0
	mov	x0, x19
	ldr	x19, [sp, 16]
.LVL8:
	ldp	x29, x30, [sp], 32
	.cfi_restore 30
	.cfi_restore 29
	.cfi_restore 19
	.cfi_def_cfa 31, 0
	ret
	.cfi_endproc
.LFE146:
	.size	_ZlsILi16EER6OutputS1_RK16IntegerFormatterIXT_EE, .-_ZlsILi16EER6OutputS1_RK16IntegerFormatterIXT_EE
	.text
	.align	2
	.global	main
	.type	main, %function
main:
.LFB142:
	.file 2 "../src/arch/qemu_virt/main_virtual_memory.cpp"
	.loc 2 21 0
	.cfi_startproc
	stp	x29, x30, [sp, -240]!
	.cfi_def_cfa_offset 240
	.cfi_offset 29, -240
	.cfi_offset 30, -232
	add	x29, sp, 0
	.cfi_def_cfa_register 29
	str	x22, [sp, 40]
	.cfi_offset 22, -200
.LBB61:
.LBB62:
	.file 3 "D:\\Pool\\eclipse-workspace_aarch64\\chap003\\include/arch/common_aarch64/system_common_registers.h"
	.loc 3 25 0
	// Start of user assembly
// 25 "D:\Pool\eclipse-workspace_aarch64\chap003\include/arch/common_aarch64/system_common_registers.h" 1
	mrs x0,CurrentEL
	
// 0 "" 2
.LVL9:
	// End of user assembly
.LBE62:
.LBE61:
	.loc 2 24 0
	and	w0, w0, 12
.LVL10:
	cmp	w0, 4
	beq	.L7
	.loc 2 26 0
	adrp	x1, .LC3
	add	x1, x1, :lo12:.LC3
	adrp	x0, kout
	add	x0, x0, :lo12:kout
	bl	_ZN6OutputlsEPKc
.LVL11:
	adrp	x1, .LC4
	add	x1, x1, :lo12:.LC4
	bl	_ZN6OutputlsEPKc
.LVL12:
	.loc 2 27 0
	mov	w22, 1
.L6:
	.loc 2 273 0
	mov	w0, w22
	ldr	x22, [sp, 40]
	ldp	x29, x30, [sp], 240
	.cfi_remember_state
	.cfi_restore 30
	.cfi_restore 29
	.cfi_restore 22
	.cfi_def_cfa 31, 0
	ret
.L7:
	.cfi_restore_state
	stp	x19, x20, [x29, 16]
	.cfi_offset 20, -216
	.cfi_offset 19, -224
	str	x21, [x29, 32]
	.cfi_offset 21, -208
	.loc 2 34 0
	mov	x1, 0
.LVL13:
	adrp	x0, ExceptionVectorEL1
	add	x0, x0, :lo12:ExceptionVectorEL1
	bfi	x1, x0, 0, 64
.LVL14:
.LBB63:
.LBB64:
	.loc 3 75 0
	// Start of user assembly
// 75 "D:\Pool\eclipse-workspace_aarch64\chap003\include/arch/common_aarch64/system_common_registers.h" 1
	msr VBAR_EL1,x1 
	
// 0 "" 2
.LVL15:
	// End of user assembly
.LBE64:
.LBE63:
.LBB65:
.LBB66:
	.loc 3 540 0
	// Start of user assembly
// 540 "D:\Pool\eclipse-workspace_aarch64\chap003\include/arch/common_aarch64/system_common_registers.h" 1
	mrs x19,ID_AA64MMFR0_EL1
	
// 0 "" 2
.LVL16:
	// End of user assembly
.LBE66:
.LBE65:
.LBB67:
.LBB68:
	.loc 3 524 0
	adrp	x1, .LC5
.LVL17:
	add	x1, x1, :lo12:.LC5
	adrp	x0, kout
	add	x0, x0, :lo12:kout
	bl	_ZN6OutputlsEPKc
.LVL18:
	.loc 3 525 0
	adrp	x1, .LC6
	add	x1, x1, :lo12:.LC6
	bl	_ZN6OutputlsEPKc
.LVL19:
	ubfx	x1, x19, 0, 4
	and	w21, w1, 255
	and	x1, x1, 15
	bl	_ZN6OutputlsEm
.LVL20:
	adrp	x20, .LC7
	add	x20, x20, :lo12:.LC7
	mov	x1, x20
	bl	_ZN6OutputlsEPKc
.LVL21:
	.loc 3 526 0
	adrp	x1, .LC8
	add	x1, x1, :lo12:.LC8
	bl	_ZN6OutputlsEPKc
.LVL22:
	ubfx	x1, x19, 4, 4
	bl	_ZN6OutputlsEm
.LVL23:
	mov	x1, x20
	bl	_ZN6OutputlsEPKc
.LVL24:
	.loc 3 527 0
	adrp	x1, .LC9
	add	x1, x1, :lo12:.LC9
	bl	_ZN6OutputlsEPKc
.LVL25:
	ubfx	x1, x19, 8, 4
	bl	_ZN6OutputlsEm
.LVL26:
	mov	x1, x20
	bl	_ZN6OutputlsEPKc
.LVL27:
	.loc 3 528 0
	adrp	x1, .LC10
	add	x1, x1, :lo12:.LC10
	bl	_ZN6OutputlsEPKc
.LVL28:
	ubfx	x1, x19, 12, 4
	bl	_ZN6OutputlsEm
.LVL29:
	mov	x1, x20
	bl	_ZN6OutputlsEPKc
.LVL30:
	.loc 3 529 0
	adrp	x1, .LC11
	add	x1, x1, :lo12:.LC11
	bl	_ZN6OutputlsEPKc
.LVL31:
	ubfx	x1, x19, 16, 4
	bl	_ZN6OutputlsEm
.LVL32:
	mov	x1, x20
	bl	_ZN6OutputlsEPKc
.LVL33:
	.loc 3 530 0
	adrp	x1, .LC12
	add	x1, x1, :lo12:.LC12
	bl	_ZN6OutputlsEPKc
.LVL34:
	mov	x22, x0
	ubfx	x1, x19, 20, 4
	add	x0, x29, 192
	bl	_ZN16IntegerFormatterILi16EEC1Em
.LVL35:
	add	x1, x29, 192
	mov	x0, x22
	bl	_ZlsILi16EER6OutputS1_RK16IntegerFormatterIXT_EE
.LVL36:
	mov	x1, x20
	bl	_ZN6OutputlsEPKc
.LVL37:
	.loc 3 531 0
	adrp	x1, .LC13
	add	x1, x1, :lo12:.LC13
	bl	_ZN6OutputlsEPKc
.LVL38:
	mov	x22, x0
	ubfx	x1, x19, 24, 4
	add	x0, x29, 184
	bl	_ZN16IntegerFormatterILi16EEC1Em
.LVL39:
	add	x1, x29, 184
	mov	x0, x22
	bl	_ZlsILi16EER6OutputS1_RK16IntegerFormatterIXT_EE
.LVL40:
	mov	x1, x20
	bl	_ZN6OutputlsEPKc
.LVL41:
	.loc 3 532 0
	adrp	x1, .LC14
	add	x1, x1, :lo12:.LC14
	bl	_ZN6OutputlsEPKc
.LVL42:
	mov	x22, x0
	lsr	w1, w19, 28
	add	x0, x29, 176
	bl	_ZN16IntegerFormatterILi16EEC1Em
.LVL43:
	add	x1, x29, 176
	mov	x0, x22
	bl	_ZlsILi16EER6OutputS1_RK16IntegerFormatterIXT_EE
.LVL44:
	mov	x1, x20
	bl	_ZN6OutputlsEPKc
.LVL45:
	.loc 3 533 0
	adrp	x1, .LC15
	add	x1, x1, :lo12:.LC15
	bl	_ZN6OutputlsEPKc
.LVL46:
	lsr	x1, x19, 32
	bl	_ZN6OutputlsEm
.LVL47:
	.loc 3 534 0
	adrp	x1, .LC16
	add	x1, x1, :lo12:.LC16
	bl	_ZN6OutputlsEPKc
.LVL48:
.LBE68:
.LBE67:
	.loc 2 40 0
	lsr	w19, w19, 24
.LVL49:
	tst	w19, 240
	bne	.L19
	.loc 2 46 0
	adrp	x0, .LANCHOR0
	add	x0, x0, :lo12:.LANCHOR0
	ldp	x2, x3, [x0]
	stp	x2, x3, [x29, 128]
	ldr	x1, [x0, 16]
	str	x1, [x29, 144]
	ldr	w1, [x0, 24]
	str	w1, [x29, 152]
	.loc 2 49 0
	add	x1, x0, 32
	ldp	x2, x3, [x0, 32]
	stp	x2, x3, [x29, 96]
	ldr	x0, [x0, 48]
	str	x0, [x29, 112]
	ldr	w0, [x1, 24]
	str	w0, [x29, 120]
	.loc 2 51 0
	cmp	w21, 6
	bhi	.L20
	.loc 2 56 0
	mov	w0, w21
.LVL50:
	.loc 2 57 0
	add	x1, x29, 128
	ldr	w1, [x1, w21, sxtw 2]
	cmp	w1, 52
	beq	.L21
.L11:
	.loc 2 63 0
	add	x1, x29, 96
	ldr	w22, [x1, w0, sxtw 2]
	cbnz	w22, .L22
.LBB69:
.LBB70:
	.loc 3 406 0
	// Start of user assembly
// 406 "D:\Pool\eclipse-workspace_aarch64\chap003\include/arch/common_aarch64/system_common_registers.h" 1
	mrs x19,TCR_EL1
	
// 0 "" 2
.LVL51:
	// End of user assembly
.LBE70:
.LBE69:
	.loc 2 72 0
	and	x19, x19, -412316860417
.LVL52:
	.loc 2 74 0
	and	w1, w0, 7
	bfi	x19, x1, 32, 3
.LVL53:
	.loc 2 76 0
	add	x1, x29, 128
	ldr	w1, [x1, w0, sxtw 2]
	mov	w0, 64
.LVL54:
	sub	w0, w0, w1
	and	w0, w0, 63
	bfi	x19, x0, 16, 6
	bfi	x19, x0, 0, 6
	.loc 2 77 0
	and	x19, x19, -4194305
.LVL55:
	.loc 2 78 0
	and	x19, x19, -49153
	.loc 2 79 0
	mov	x0, 2
	bfi	x19, x0, 30, 2
.LVL56:
	.loc 2 80 0
	bfi	x19, x0, 28, 2
	bfi	x19, x0, 12, 2
	.loc 2 81 0
	mov	x0, 1
	bfi	x19, x0, 24, 2
	bfi	x19, x0, 8, 2
	.loc 2 82 0
	bfi	x19, x0, 26, 2
	bfi	x19, x0, 10, 2
	.loc 2 83 0
	and	x19, x19, -8388609
.LVL57:
	and	x19, x19, -129
.LVL58:
.LBB71:
.LBB72:
	.loc 3 408 0
	// Start of user assembly
// 408 "D:\Pool\eclipse-workspace_aarch64\chap003\include/arch/common_aarch64/system_common_registers.h" 1
	msr TCR_EL1,x19 
	
// 0 "" 2
.LVL59:
	// End of user assembly
.LBE72:
.LBE71:
	.loc 2 96 0
	mov	x0, 65280
.LVL60:
	.loc 2 97 0
	mov	x1, 68
	bfi	x0, x1, 24, 8
.LVL61:
.LBB73:
.LBB74:
	.loc 3 759 0
	// Start of user assembly
// 759 "D:\Pool\eclipse-workspace_aarch64\chap003\include/arch/common_aarch64/system_common_registers.h" 1
	msr MAIR_EL1,x0 
	
// 0 "" 2
.LVL62:
	// End of user assembly
.LBE74:
.LBE73:
	.loc 2 111 0
	adrp	x0, mainEnd
.LVL63:
	add	x0, x0, :lo12:mainEnd
	cmp	xzr, x0, lsr 30
	bne	.L23
	stp	x23, x24, [x29, 48]
	.cfi_offset 24, -184
	.cfi_offset 23, -192
	stp	x25, x26, [x29, 64]
	.cfi_offset 26, -168
	.cfi_offset 25, -176
	str	x27, [x29, 80]
	.cfi_offset 27, -160
.LVL64:
	.loc 2 124 0
	adrp	x1, L0Table
	add	x20, x1, :lo12:L0Table
	ldrb	w0, [x1, #:lo12:L0Table]
	.loc 2 125 0
	orr	w0, w0, 3
	strb	w0, [x1, #:lo12:L0Table]
	.loc 2 126 0
	ldrb	w0, [x20, 6]
	and	w0, w0, -16
	strb	w0, [x20, 6]
	.loc 2 127 0
	ldrb	w0, [x20, 7]
	and	w0, w0, 127
	strb	w0, [x20, 7]
	.loc 2 128 0
	adrp	x2, L1Table
	add	x19, x2, :lo12:L1Table
	ubfx	x3, x19, 12, 36
	ldr	x0, [x20]
	bfi	x0, x3, 12, 36
	str	x0, [x20]
	.loc 2 129 0
	lsr	x3, x0, 56
	.loc 2 132 0
	and	w4, w0, 3
	strb	w4, [x1, #:lo12:L0Table]
	ubfx	x1, x0, 8, 8
	and	w1, w1, -16
	strb	w1, [x20, 1]
	.loc 2 133 0
	ubfx	x0, x0, 48, 4
	strb	w0, [x20, 6]
	and	w0, w3, -128
	strb	w0, [x20, 7]
.LVL65:
	.loc 2 150 0
	ldrb	w0, [x2, #:lo12:L1Table]
	and	w0, w0, -3
	.loc 2 152 0
	strb	wzr, [x19, 4]
	strb	wzr, [x19, 5]
	.loc 2 153 0
	ldrb	w1, [x19, 1]
	orr	w1, w1, 4
	.loc 2 154 0
	orr	w0, w0, 32
	mov	w3, 1
	bfi	w0, w3, 2, 3
	.loc 2 155 0
	orr	w0, w0, w3
	.loc 2 162 0
	and	w0, w0, 63
	strb	w0, [x2, #:lo12:L1Table]
	.loc 2 164 0
	and	w0, w1, -9
	mov	w1, 2
	bfi	w0, w1, 0, 2
	.loc 2 165 0
	ldrb	w1, [x19, 7]
	.loc 2 166 0
	and	w0, w0, 15
	strb	w0, [x19, 1]
	strb	wzr, [x19, 2]
	strb	wzr, [x19, 3]
	.loc 2 168 0
	mov	w0, 16
	strb	w0, [x19, 6]
	and	w0, w1, 120
	strb	w0, [x19, 7]
	.loc 2 173 0
	ldr	x0, [x19]
	mov	x1, 1
	bfi	x0, x1, 30, 18
	str	x0, [x19, 8]
	.loc 2 176 0
	mov	x25, 0
.LVL66:
	.loc 2 186 0
	ubfx	x0, x20, 1, 47
	bfi	x25, x0, 1, 47
.LVL67:
	.loc 2 193 0
	mov	x24, 0
.LVL68:
	.loc 2 194 0
	bfi	x24, x0, 1, 47
.LVL69:
.LBB75:
.LBB76:
	.loc 3 627 0
	// Start of user assembly
// 627 "D:\Pool\eclipse-workspace_aarch64\chap003\include/arch/common_aarch64/system_common_registers.h" 1
	msr TTBR0_EL1,x25 
	
// 0 "" 2
.LVL70:
	// End of user assembly
.LBE76:
.LBE75:
.LBB77:
.LBB78:
	.loc 3 650 0
	// Start of user assembly
// 650 "D:\Pool\eclipse-workspace_aarch64\chap003\include/arch/common_aarch64/system_common_registers.h" 1
	msr TTBR1_EL1,x24 
	
// 0 "" 2
.LVL71:
	// End of user assembly
.LBE78:
.LBE77:
	.loc 2 200 0
	// Start of user assembly
// 200 "../src/arch/qemu_virt/main_virtual_memory.cpp" 1
	isb 
	
// 0 "" 2
	.loc 2 204 0
	// End of user assembly
	adrp	x21, kout
	add	x21, x21, :lo12:kout
	adrp	x1, .LC23
	add	x1, x1, :lo12:.LC23
	mov	x0, x21
	bl	_ZN6OutputlsEPKc
.LVL72:
	mov	x23, x0
	mov	x1, x20
	add	x0, x29, 160
	bl	_ZN16IntegerFormatterILi16EEC1Em
.LVL73:
	add	x1, x29, 160
	mov	x0, x23
	bl	_ZlsILi16EER6OutputS1_RK16IntegerFormatterIXT_EE
.LVL74:
	adrp	x23, .LC16
	add	x23, x23, :lo12:.LC16
	mov	x1, x23
	bl	_ZN6OutputlsEPKc
.LVL75:
	.loc 2 205 0
	adrp	x1, .LC24
	add	x1, x1, :lo12:.LC24
	mov	x0, x21
	bl	_ZN6OutputlsEPKc
.LVL76:
	mov	x20, x0
	mov	x1, x19
	add	x0, x29, 168
	bl	_ZN16IntegerFormatterILi16EEC1Em
.LVL77:
	add	x1, x29, 168
	mov	x0, x20
	bl	_ZlsILi16EER6OutputS1_RK16IntegerFormatterIXT_EE
.LVL78:
	mov	x1, x23
	bl	_ZN6OutputlsEPKc
.LVL79:
.LBB79:
.LBB80:
	.loc 3 626 0
	// Start of user assembly
// 626 "D:\Pool\eclipse-workspace_aarch64\chap003\include/arch/common_aarch64/system_common_registers.h" 1
	mrs x25,TTBR0_EL1
	
// 0 "" 2
.LVL80:
	// End of user assembly
.LBE80:
.LBE79:
.LBB81:
.LBB82:
	.loc 3 615 0
	adrp	x1, .LC25
	add	x1, x1, :lo12:.LC25
	mov	x0, x21
	bl	_ZN6OutputlsEPKc
.LVL81:
	.loc 3 616 0
	adrp	x27, .LC26
	add	x27, x27, :lo12:.LC26
	mov	x1, x27
	bl	_ZN6OutputlsEPKc
.LVL82:
	and	x1, x25, 1
	bl	_ZN6OutputlsEm
.LVL83:
	adrp	x20, .LC7
	add	x20, x20, :lo12:.LC7
	mov	x1, x20
	bl	_ZN6OutputlsEPKc
.LVL84:
	.loc 3 617 0
	adrp	x26, .LC27
	add	x26, x26, :lo12:.LC27
	mov	x1, x26
	bl	_ZN6OutputlsEPKc
.LVL85:
	mov	x19, x0
	ubfx	x1, x25, 1, 47
	add	x0, x29, 232
	bl	_ZN16IntegerFormatterILi16EEC1Em
.LVL86:
	add	x1, x29, 232
	mov	x0, x19
	bl	_ZlsILi16EER6OutputS1_RK16IntegerFormatterIXT_EE
.LVL87:
	mov	x1, x20
	bl	_ZN6OutputlsEPKc
.LVL88:
	.loc 3 618 0
	adrp	x19, .LC28
	add	x19, x19, :lo12:.LC28
	mov	x1, x19
	bl	_ZN6OutputlsEPKc
.LVL89:
	lsr	x1, x25, 48
	bl	_ZN6OutputlsEm
.LVL90:
	.loc 3 619 0
	mov	x1, x23
	bl	_ZN6OutputlsEPKc
.LVL91:
.LBE82:
.LBE81:
.LBB83:
.LBB84:
	.loc 3 649 0
	// Start of user assembly
// 649 "D:\Pool\eclipse-workspace_aarch64\chap003\include/arch/common_aarch64/system_common_registers.h" 1
	mrs x24,TTBR1_EL1
	
// 0 "" 2
.LVL92:
	// End of user assembly
.LBE84:
.LBE83:
.LBB85:
.LBB86:
	.loc 3 638 0
	adrp	x1, .LC29
	add	x1, x1, :lo12:.LC29
	mov	x0, x21
	bl	_ZN6OutputlsEPKc
.LVL93:
	.loc 3 639 0
	mov	x1, x27
	bl	_ZN6OutputlsEPKc
.LVL94:
	and	x1, x24, 1
	bl	_ZN6OutputlsEm
.LVL95:
	mov	x1, x20
	bl	_ZN6OutputlsEPKc
.LVL96:
	.loc 3 640 0
	mov	x1, x26
	bl	_ZN6OutputlsEPKc
.LVL97:
	mov	x25, x0
.LVL98:
	ubfx	x1, x24, 1, 47
	add	x0, x29, 224
	bl	_ZN16IntegerFormatterILi16EEC1Em
.LVL99:
	add	x1, x29, 224
	mov	x0, x25
	bl	_ZlsILi16EER6OutputS1_RK16IntegerFormatterIXT_EE
.LVL100:
	mov	x1, x20
	bl	_ZN6OutputlsEPKc
.LVL101:
	.loc 3 641 0
	mov	x1, x19
	bl	_ZN6OutputlsEPKc
.LVL102:
	lsr	x1, x24, 48
	bl	_ZN6OutputlsEm
.LVL103:
	.loc 3 642 0
	mov	x1, x23
	bl	_ZN6OutputlsEPKc
.LVL104:
.LBE86:
.LBE85:
.LBB87:
.LBB88:
	.loc 3 407 0
	// Start of user assembly
// 407 "D:\Pool\eclipse-workspace_aarch64\chap003\include/arch/common_aarch64/system_common_registers.h" 1
	mrs x19,TCR_EL1
	
// 0 "" 2
.LVL105:
	// End of user assembly
.LBE88:
.LBE87:
.LBB89:
.LBB90:
	.loc 3 364 0
	adrp	x1, .LC30
	add	x1, x1, :lo12:.LC30
	mov	x0, x21
	bl	_ZN6OutputlsEPKc
.LVL106:
	.loc 3 365 0
	adrp	x1, .LC31
	add	x1, x1, :lo12:.LC31
	bl	_ZN6OutputlsEPKc
.LVL107:
	and	x1, x19, 63
	bl	_ZN6OutputlsEm
.LVL108:
	mov	x1, x20
	bl	_ZN6OutputlsEPKc
.LVL109:
	.loc 3 366 0
	adrp	x1, .LC32
	add	x1, x1, :lo12:.LC32
	bl	_ZN6OutputlsEPKc
.LVL110:
	ubfx	x1, x19, 6, 1
	bl	_ZN6OutputlsEm
.LVL111:
	mov	x1, x20
	bl	_ZN6OutputlsEPKc
.LVL112:
	.loc 3 367 0
	adrp	x1, .LC33
	add	x1, x1, :lo12:.LC33
	bl	_ZN6OutputlsEPKc
.LVL113:
	ubfx	x1, x19, 7, 1
	bl	_ZN6OutputlsEm
.LVL114:
	mov	x1, x20
	bl	_ZN6OutputlsEPKc
.LVL115:
	.loc 3 368 0
	adrp	x1, .LC34
	add	x1, x1, :lo12:.LC34
	bl	_ZN6OutputlsEPKc
.LVL116:
	ubfx	x1, x19, 8, 2
	bl	_ZN6OutputlsEm
.LVL117:
	mov	x1, x20
	bl	_ZN6OutputlsEPKc
.LVL118:
	.loc 3 369 0
	adrp	x1, .LC35
	add	x1, x1, :lo12:.LC35
	bl	_ZN6OutputlsEPKc
.LVL119:
	ubfx	x1, x19, 10, 2
	bl	_ZN6OutputlsEm
.LVL120:
	mov	x1, x20
	bl	_ZN6OutputlsEPKc
.LVL121:
	.loc 3 370 0
	adrp	x1, .LC36
	add	x1, x1, :lo12:.LC36
	bl	_ZN6OutputlsEPKc
.LVL122:
	ubfx	x1, x19, 12, 2
	bl	_ZN6OutputlsEm
.LVL123:
	mov	x1, x20
	bl	_ZN6OutputlsEPKc
.LVL124:
	.loc 3 371 0
	adrp	x1, .LC37
	add	x1, x1, :lo12:.LC37
	bl	_ZN6OutputlsEPKc
.LVL125:
	ubfx	x1, x19, 14, 2
	bl	_ZN6OutputlsEm
.LVL126:
	mov	x1, x20
	bl	_ZN6OutputlsEPKc
.LVL127:
	.loc 3 372 0
	adrp	x1, .LC38
	add	x1, x1, :lo12:.LC38
	bl	_ZN6OutputlsEPKc
.LVL128:
	ubfx	x1, x19, 16, 6
	bl	_ZN6OutputlsEm
.LVL129:
	mov	x1, x20
	bl	_ZN6OutputlsEPKc
.LVL130:
	.loc 3 373 0
	adrp	x1, .LC39
	add	x1, x1, :lo12:.LC39
	bl	_ZN6OutputlsEPKc
.LVL131:
	ubfx	x1, x19, 22, 1
	bl	_ZN6OutputlsEm
.LVL132:
	mov	x1, x20
	bl	_ZN6OutputlsEPKc
.LVL133:
	.loc 3 374 0
	adrp	x1, .LC40
	add	x1, x1, :lo12:.LC40
	bl	_ZN6OutputlsEPKc
.LVL134:
	ubfx	x1, x19, 23, 1
	bl	_ZN6OutputlsEm
.LVL135:
	mov	x1, x20
	bl	_ZN6OutputlsEPKc
.LVL136:
	.loc 3 375 0
	adrp	x1, .LC41
	add	x1, x1, :lo12:.LC41
	bl	_ZN6OutputlsEPKc
.LVL137:
	ubfx	x1, x19, 24, 2
	bl	_ZN6OutputlsEm
.LVL138:
	mov	x1, x20
	bl	_ZN6OutputlsEPKc
.LVL139:
	.loc 3 376 0
	adrp	x1, .LC42
	add	x1, x1, :lo12:.LC42
	bl	_ZN6OutputlsEPKc
.LVL140:
	ubfx	x1, x19, 26, 2
	bl	_ZN6OutputlsEm
.LVL141:
	mov	x1, x20
	bl	_ZN6OutputlsEPKc
.LVL142:
	.loc 3 377 0
	adrp	x1, .LC43
	add	x1, x1, :lo12:.LC43
	bl	_ZN6OutputlsEPKc
.LVL143:
	ubfx	x1, x19, 28, 2
	bl	_ZN6OutputlsEm
.LVL144:
	mov	x1, x20
	bl	_ZN6OutputlsEPKc
.LVL145:
	.loc 3 378 0
	adrp	x1, .LC44
	add	x1, x1, :lo12:.LC44
	bl	_ZN6OutputlsEPKc
.LVL146:
	lsr	w1, w19, 30
	bl	_ZN6OutputlsEm
.LVL147:
	mov	x1, x20
	bl	_ZN6OutputlsEPKc
.LVL148:
	.loc 3 379 0
	adrp	x1, .LC45
	add	x1, x1, :lo12:.LC45
	bl	_ZN6OutputlsEPKc
.LVL149:
	ubfx	x1, x19, 32, 3
	bl	_ZN6OutputlsEm
.LVL150:
	mov	x1, x20
	bl	_ZN6OutputlsEPKc
.LVL151:
	.loc 3 380 0
	adrp	x1, .LC46
	add	x1, x1, :lo12:.LC46
	bl	_ZN6OutputlsEPKc
.LVL152:
	ubfx	x1, x19, 35, 1
	bl	_ZN6OutputlsEm
.LVL153:
	mov	x1, x20
	bl	_ZN6OutputlsEPKc
.LVL154:
	.loc 3 381 0
	adrp	x1, .LC47
	add	x1, x1, :lo12:.LC47
	bl	_ZN6OutputlsEPKc
.LVL155:
	ubfx	x1, x19, 36, 1
	bl	_ZN6OutputlsEm
.LVL156:
	mov	x1, x20
	bl	_ZN6OutputlsEPKc
.LVL157:
	.loc 3 382 0
	adrp	x1, .LC48
	add	x1, x1, :lo12:.LC48
	bl	_ZN6OutputlsEPKc
.LVL158:
	ubfx	x1, x19, 37, 1
	bl	_ZN6OutputlsEm
.LVL159:
	mov	x1, x20
	bl	_ZN6OutputlsEPKc
.LVL160:
	.loc 3 383 0
	adrp	x1, .LC49
	add	x1, x1, :lo12:.LC49
	bl	_ZN6OutputlsEPKc
.LVL161:
	ubfx	x1, x19, 38, 1
	bl	_ZN6OutputlsEm
.LVL162:
	mov	x1, x20
	bl	_ZN6OutputlsEPKc
.LVL163:
	.loc 3 384 0
	adrp	x1, .LC50
	add	x1, x1, :lo12:.LC50
	bl	_ZN6OutputlsEPKc
.LVL164:
	ubfx	x1, x19, 39, 1
	bl	_ZN6OutputlsEm
.LVL165:
	mov	x1, x20
	bl	_ZN6OutputlsEPKc
.LVL166:
	.loc 3 385 0
	adrp	x1, .LC51
	add	x1, x1, :lo12:.LC51
	bl	_ZN6OutputlsEPKc
.LVL167:
	ubfx	x1, x19, 40, 1
	bl	_ZN6OutputlsEm
.LVL168:
	mov	x1, x20
	bl	_ZN6OutputlsEPKc
.LVL169:
	.loc 3 386 0
	adrp	x1, .LC52
	add	x1, x1, :lo12:.LC52
	bl	_ZN6OutputlsEPKc
.LVL170:
	ubfx	x1, x19, 41, 1
	bl	_ZN6OutputlsEm
.LVL171:
	mov	x1, x20
	bl	_ZN6OutputlsEPKc
.LVL172:
	.loc 3 387 0
	adrp	x1, .LC53
	add	x1, x1, :lo12:.LC53
	bl	_ZN6OutputlsEPKc
.LVL173:
	ubfx	x1, x19, 42, 1
	bl	_ZN6OutputlsEm
.LVL174:
	mov	x1, x20
	bl	_ZN6OutputlsEPKc
.LVL175:
	.loc 3 388 0
	adrp	x1, .LC54
	add	x1, x1, :lo12:.LC54
	bl	_ZN6OutputlsEPKc
.LVL176:
	ubfx	x1, x19, 43, 1
	bl	_ZN6OutputlsEm
.LVL177:
	mov	x1, x20
	bl	_ZN6OutputlsEPKc
.LVL178:
	.loc 3 389 0
	adrp	x1, .LC55
	add	x1, x1, :lo12:.LC55
	bl	_ZN6OutputlsEPKc
.LVL179:
	ubfx	x1, x19, 44, 1
	bl	_ZN6OutputlsEm
.LVL180:
	mov	x1, x20
	bl	_ZN6OutputlsEPKc
.LVL181:
	.loc 3 390 0
	adrp	x1, .LC56
	add	x1, x1, :lo12:.LC56
	bl	_ZN6OutputlsEPKc
.LVL182:
	ubfx	x1, x19, 45, 1
	bl	_ZN6OutputlsEm
.LVL183:
	mov	x1, x20
	bl	_ZN6OutputlsEPKc
.LVL184:
	.loc 3 391 0
	adrp	x1, .LC57
	add	x1, x1, :lo12:.LC57
	bl	_ZN6OutputlsEPKc
.LVL185:
	ubfx	x1, x19, 46, 1
	bl	_ZN6OutputlsEm
.LVL186:
	mov	x1, x20
	bl	_ZN6OutputlsEPKc
.LVL187:
	.loc 3 392 0
	adrp	x1, .LC58
	add	x1, x1, :lo12:.LC58
	bl	_ZN6OutputlsEPKc
.LVL188:
	ubfx	x1, x19, 47, 1
	bl	_ZN6OutputlsEm
.LVL189:
	mov	x1, x20
	bl	_ZN6OutputlsEPKc
.LVL190:
	.loc 3 393 0
	adrp	x1, .LC59
	add	x1, x1, :lo12:.LC59
	bl	_ZN6OutputlsEPKc
.LVL191:
	ubfx	x1, x19, 48, 1
	bl	_ZN6OutputlsEm
.LVL192:
	mov	x1, x20
	bl	_ZN6OutputlsEPKc
.LVL193:
	.loc 3 394 0
	adrp	x1, .LC60
	add	x1, x1, :lo12:.LC60
	bl	_ZN6OutputlsEPKc
.LVL194:
	ubfx	x1, x19, 49, 1
	bl	_ZN6OutputlsEm
.LVL195:
	mov	x1, x20
	bl	_ZN6OutputlsEPKc
.LVL196:
	.loc 3 395 0
	adrp	x1, .LC61
	add	x1, x1, :lo12:.LC61
	bl	_ZN6OutputlsEPKc
.LVL197:
	ubfx	x1, x19, 50, 1
	bl	_ZN6OutputlsEm
.LVL198:
	mov	x1, x20
	bl	_ZN6OutputlsEPKc
.LVL199:
	.loc 3 396 0
	adrp	x1, .LC62
	add	x1, x1, :lo12:.LC62
	bl	_ZN6OutputlsEPKc
.LVL200:
	ubfx	x1, x19, 51, 2
	bl	_ZN6OutputlsEm
.LVL201:
	mov	x1, x20
	bl	_ZN6OutputlsEPKc
.LVL202:
	.loc 3 397 0
	adrp	x1, .LC63
	add	x1, x1, :lo12:.LC63
	bl	_ZN6OutputlsEPKc
.LVL203:
	ubfx	x1, x19, 53, 1
	bl	_ZN6OutputlsEm
.LVL204:
	mov	x1, x20
	bl	_ZN6OutputlsEPKc
.LVL205:
	.loc 3 398 0
	adrp	x1, .LC64
	add	x1, x1, :lo12:.LC64
	bl	_ZN6OutputlsEPKc
.LVL206:
	ubfx	x1, x19, 54, 1
	bl	_ZN6OutputlsEm
.LVL207:
	mov	x21, x20
	mov	x1, x20
	bl	_ZN6OutputlsEPKc
.LVL208:
	.loc 3 399 0
	adrp	x1, .LC65
	add	x1, x1, :lo12:.LC65
	bl	_ZN6OutputlsEPKc
.LVL209:
	lsr	x1, x19, 55
	bl	_ZN6OutputlsEm
.LVL210:
	.loc 3 400 0
	mov	x24, x23
.LVL211:
	mov	x1, x23
	bl	_ZN6OutputlsEPKc
.LVL212:
.LBE90:
.LBE89:
.LBB91:
.LBB92:
	.file 4 "D:\\Pool\\eclipse-workspace_aarch64\\chap003\\include/arch/common_aarch64/vmsa_descriptors.h"
	.loc 4 22 0
	adrp	x23, kout
	add	x23, x23, :lo12:kout
	adrp	x1, .LC66
	add	x1, x1, :lo12:.LC66
	mov	x0, x23
	bl	_ZN6OutputlsEPKc
.LVL213:
	.loc 4 23 0
	adrp	x1, .LC67
	add	x1, x1, :lo12:.LC67
	bl	_ZN6OutputlsEPKc
.LVL214:
	adrp	x25, L0Table
	add	x20, x25, :lo12:L0Table
	ldrb	w1, [x25, #:lo12:L0Table]
	and	x1, x1, 1
	bl	_ZN6OutputlsEm
.LVL215:
	mov	x1, x21
	bl	_ZN6OutputlsEPKc
.LVL216:
	.loc 4 24 0
	adrp	x1, .LC68
	add	x1, x1, :lo12:.LC68
	bl	_ZN6OutputlsEPKc
.LVL217:
	ldrb	w1, [x25, #:lo12:L0Table]
	ubfx	x1, x1, 1, 1
	bl	_ZN6OutputlsEm
.LVL218:
	mov	x1, x21
	bl	_ZN6OutputlsEPKc
.LVL219:
	.loc 4 25 0
	adrp	x1, .LC69
	add	x1, x1, :lo12:.LC69
	bl	_ZN6OutputlsEPKc
.LVL220:
	ldrh	w1, [x20]
	ubfx	x1, x1, 2, 10
	bl	_ZN6OutputlsEm
.LVL221:
	mov	x1, x21
	bl	_ZN6OutputlsEPKc
.LVL222:
	.loc 4 26 0
	adrp	x1, .LC70
	add	x1, x1, :lo12:.LC70
	bl	_ZN6OutputlsEPKc
.LVL223:
	mov	x25, x0
	ldrb	w1, [x20, 1]
	ubfx	x0, x1, 4, 4
	ldrb	w1, [x20, 2]
	orr	x1, x0, x1, lsl 4
	ldrb	w0, [x20, 3]
	orr	x1, x1, x0, lsl 12
	ldrb	w0, [x20, 4]
	orr	x0, x1, x0, lsl 20
	ldrb	w1, [x20, 5]
	orr	x1, x0, x1, lsl 28
	add	x0, x29, 216
	bl	_ZN16IntegerFormatterILi16EEC1Em
.LVL224:
	add	x1, x29, 216
	mov	x0, x25
	bl	_ZlsILi16EER6OutputS1_RK16IntegerFormatterIXT_EE
.LVL225:
	mov	x1, x21
	bl	_ZN6OutputlsEPKc
.LVL226:
	.loc 4 27 0
	adrp	x1, .LC15
	add	x1, x1, :lo12:.LC15
	bl	_ZN6OutputlsEPKc
.LVL227:
	ldrb	w1, [x20, 6]
	and	x1, x1, 15
	bl	_ZN6OutputlsEm
.LVL228:
	mov	x1, x21
	bl	_ZN6OutputlsEPKc
.LVL229:
	.loc 4 28 0
	adrp	x1, .LC71
	add	x1, x1, :lo12:.LC71
	bl	_ZN6OutputlsEPKc
.LVL230:
	ldrh	w1, [x20, 6]
	ubfx	x1, x1, 4, 7
	bl	_ZN6OutputlsEm
.LVL231:
	mov	x1, x21
	bl	_ZN6OutputlsEPKc
.LVL232:
	.loc 4 29 0
	adrp	x1, .LC72
	add	x1, x1, :lo12:.LC72
	bl	_ZN6OutputlsEPKc
.LVL233:
	ldrb	w1, [x20, 7]
	ubfx	x1, x1, 3, 1
	bl	_ZN6OutputlsEm
.LVL234:
	mov	x1, x21
	bl	_ZN6OutputlsEPKc
.LVL235:
	.loc 4 30 0
	adrp	x1, .LC73
	add	x1, x1, :lo12:.LC73
	bl	_ZN6OutputlsEPKc
.LVL236:
	ldrb	w1, [x20, 7]
	ubfx	x1, x1, 4, 1
	bl	_ZN6OutputlsEm
.LVL237:
	mov	x1, x21
	bl	_ZN6OutputlsEPKc
.LVL238:
	.loc 4 31 0
	adrp	x1, .LC74
	add	x1, x1, :lo12:.LC74
	bl	_ZN6OutputlsEPKc
.LVL239:
	ldrb	w1, [x20, 7]
	ubfx	x1, x1, 5, 2
	bl	_ZN6OutputlsEm
.LVL240:
	mov	x1, x21
	bl	_ZN6OutputlsEPKc
.LVL241:
	.loc 4 32 0
	adrp	x1, .LC75
	add	x1, x1, :lo12:.LC75
	bl	_ZN6OutputlsEPKc
.LVL242:
	ldrb	w1, [x20, 7]
	ubfx	x1, x1, 7, 1
	bl	_ZN6OutputlsEm
.LVL243:
	.loc 4 33 0
	mov	x1, x24
	bl	_ZN6OutputlsEPKc
.LVL244:
.LBE92:
.LBE91:
.LBB93:
.LBB94:
	.loc 4 85 0
	adrp	x1, .LC76
	add	x1, x1, :lo12:.LC76
	mov	x0, x23
	bl	_ZN6OutputlsEPKc
.LVL245:
	.loc 4 86 0
	adrp	x0, L1Table
	ldrb	w0, [x0, #:lo12:L1Table]
	tbnz	x0, 1, .L14
	.loc 4 89 0
	adrp	x1, .LC77
	add	x1, x1, :lo12:.LC77
	mov	x0, x23
	bl	_ZN6OutputlsEPKc
.LVL246:
	adrp	x23, L1Table
	add	x21, x23, :lo12:L1Table
	ldrb	w1, [x23, #:lo12:L1Table]
	and	x1, x1, 1
	bl	_ZN6OutputlsEm
.LVL247:
	adrp	x20, .LC7
	add	x20, x20, :lo12:.LC7
	mov	x1, x20
	bl	_ZN6OutputlsEPKc
.LVL248:
	.loc 4 90 0
	adrp	x1, .LC78
	add	x1, x1, :lo12:.LC78
	bl	_ZN6OutputlsEPKc
.LVL249:
	ldrb	w1, [x23, #:lo12:L1Table]
	ubfx	x1, x1, 1, 1
	bl	_ZN6OutputlsEm
.LVL250:
	mov	x1, x20
	bl	_ZN6OutputlsEPKc
.LVL251:
	.loc 4 91 0
	adrp	x1, .LC79
	add	x1, x1, :lo12:.LC79
	bl	_ZN6OutputlsEPKc
.LVL252:
	ldrb	w1, [x23, #:lo12:L1Table]
	ubfx	x1, x1, 2, 3
	bl	_ZN6OutputlsEm
.LVL253:
	mov	x1, x20
	bl	_ZN6OutputlsEPKc
.LVL254:
	.loc 4 92 0
	adrp	x1, .LC80
	add	x1, x1, :lo12:.LC80
	bl	_ZN6OutputlsEPKc
.LVL255:
	ldrb	w1, [x23, #:lo12:L1Table]
	ubfx	x1, x1, 5, 1
	bl	_ZN6OutputlsEm
.LVL256:
	mov	x1, x20
	bl	_ZN6OutputlsEPKc
.LVL257:
	.loc 4 93 0
	adrp	x1, .LC81
	add	x1, x1, :lo12:.LC81
	bl	_ZN6OutputlsEPKc
.LVL258:
	ldrb	w1, [x23, #:lo12:L1Table]
	ubfx	x1, x1, 6, 2
	bl	_ZN6OutputlsEm
.LVL259:
	mov	x1, x20
	bl	_ZN6OutputlsEPKc
.LVL260:
	.loc 4 94 0
	adrp	x1, .LC82
	add	x1, x1, :lo12:.LC82
	bl	_ZN6OutputlsEPKc
.LVL261:
	ldrb	w1, [x21, 1]
	and	x1, x1, 3
	bl	_ZN6OutputlsEm
.LVL262:
	mov	x1, x20
	bl	_ZN6OutputlsEPKc
.LVL263:
	.loc 4 95 0
	adrp	x1, .LC83
	add	x1, x1, :lo12:.LC83
	bl	_ZN6OutputlsEPKc
.LVL264:
	ldrb	w1, [x21, 1]
	ubfx	x1, x1, 2, 1
	bl	_ZN6OutputlsEm
.LVL265:
	mov	x1, x20
	bl	_ZN6OutputlsEPKc
.LVL266:
	.loc 4 96 0
	adrp	x1, .LC84
	add	x1, x1, :lo12:.LC84
	bl	_ZN6OutputlsEPKc
.LVL267:
	ldrb	w1, [x21, 1]
	ubfx	x1, x1, 3, 1
	bl	_ZN6OutputlsEm
.LVL268:
	mov	x1, x20
	bl	_ZN6OutputlsEPKc
.LVL269:
	.loc 4 97 0
	adrp	x1, .LC85
	add	x1, x1, :lo12:.LC85
	bl	_ZN6OutputlsEPKc
.LVL270:
	ldr	w1, [x21]
	ubfx	x1, x1, 12, 18
	bl	_ZN6OutputlsEm
.LVL271:
	mov	x1, x20
	bl	_ZN6OutputlsEPKc
.LVL272:
	.loc 4 98 0
	adrp	x1, .LC86
	add	x1, x1, :lo12:.LC86
	bl	_ZN6OutputlsEPKc
.LVL273:
	mov	x23, x0
	ldrb	w0, [x21, 3]
	ubfx	x1, x0, 6, 2
	ldrb	w0, [x21, 4]
	orr	x0, x1, x0, lsl 2
	ldrb	w1, [x21, 5]
	orr	x1, x0, x1, lsl 10
	add	x0, x29, 208
	bl	_ZN16IntegerFormatterILi16EEC1Em
.LVL274:
	add	x1, x29, 208
	mov	x0, x23
	bl	_ZlsILi16EER6OutputS1_RK16IntegerFormatterIXT_EE
.LVL275:
	mov	x1, x20
	bl	_ZN6OutputlsEPKc
.LVL276:
	.loc 4 99 0
	adrp	x1, .LC87
	add	x1, x1, :lo12:.LC87
	bl	_ZN6OutputlsEPKc
.LVL277:
	ldrb	w1, [x21, 6]
	and	x1, x1, 15
	bl	_ZN6OutputlsEm
.LVL278:
	mov	x1, x20
	bl	_ZN6OutputlsEPKc
.LVL279:
	.loc 4 100 0
	adrp	x1, .LC88
	add	x1, x1, :lo12:.LC88
	bl	_ZN6OutputlsEPKc
.LVL280:
	ldrb	w1, [x21, 6]
	ubfx	x1, x1, 4, 1
	bl	_ZN6OutputlsEm
.LVL281:
	mov	x1, x20
	bl	_ZN6OutputlsEPKc
.LVL282:
	.loc 4 101 0
	adrp	x1, .LC89
	add	x1, x1, :lo12:.LC89
	bl	_ZN6OutputlsEPKc
.LVL283:
	ldrb	w1, [x21, 6]
	ubfx	x1, x1, 5, 1
	bl	_ZN6OutputlsEm
.LVL284:
	mov	x1, x20
	bl	_ZN6OutputlsEPKc
.LVL285:
	.loc 4 102 0
	adrp	x1, .LC90
	add	x1, x1, :lo12:.LC90
	bl	_ZN6OutputlsEPKc
.LVL286:
	ldrb	w1, [x21, 6]
	ubfx	x1, x1, 6, 1
	bl	_ZN6OutputlsEm
.LVL287:
	mov	x1, x20
	bl	_ZN6OutputlsEPKc
.LVL288:
	.loc 4 103 0
	adrp	x1, .LC91
	add	x1, x1, :lo12:.LC91
	bl	_ZN6OutputlsEPKc
.LVL289:
	ldrh	w1, [x21, 6]
	ubfx	x1, x1, 7, 4
	bl	_ZN6OutputlsEm
.LVL290:
	mov	x1, x20
	bl	_ZN6OutputlsEPKc
.LVL291:
	.loc 4 104 0
	adrp	x1, .LC92
	add	x1, x1, :lo12:.LC92
	bl	_ZN6OutputlsEPKc
.LVL292:
	ldrb	w1, [x21, 7]
	ubfx	x1, x1, 3, 4
	bl	_ZN6OutputlsEm
.LVL293:
	mov	x1, x20
	bl	_ZN6OutputlsEPKc
.LVL294:
	.loc 4 105 0
	adrp	x1, .LC93
	add	x1, x1, :lo12:.LC93
	bl	_ZN6OutputlsEPKc
.LVL295:
	ldrb	w1, [x21, 7]
	ubfx	x1, x1, 7, 1
	bl	_ZN6OutputlsEm
.LVL296:
.L15:
	.loc 4 121 0
	adrp	x23, .LC16
	add	x23, x23, :lo12:.LC16
	adrp	x21, kout
	add	x21, x21, :lo12:kout
	mov	x1, x23
	mov	x0, x21
	bl	_ZN6OutputlsEPKc
.LVL297:
.LBE94:
.LBE93:
.LBB96:
.LBB97:
	.loc 3 902 0
	// Start of user assembly
// 902 "D:\Pool\eclipse-workspace_aarch64\chap003\include/arch/common_aarch64/system_common_registers.h" 1
	mrs x20,SCTLR_EL1
	
// 0 "" 2
.LVL298:
	// End of user assembly
.LBE97:
.LBE96:
.LBB98:
.LBB99:
	.loc 3 864 0
	adrp	x1, .LC104
	add	x1, x1, :lo12:.LC104
	mov	x0, x21
	bl	_ZN6OutputlsEPKc
.LVL299:
	.loc 3 865 0
	adrp	x1, .LC105
	add	x1, x1, :lo12:.LC105
	bl	_ZN6OutputlsEPKc
.LVL300:
	and	w1, w20, 1
	bl	_ZN6OutputlsEj
.LVL301:
	adrp	x21, .LC7
	add	x21, x21, :lo12:.LC7
	mov	x1, x21
	bl	_ZN6OutputlsEPKc
.LVL302:
	.loc 3 866 0
	adrp	x1, .LC106
	add	x1, x1, :lo12:.LC106
	bl	_ZN6OutputlsEPKc
.LVL303:
	ubfx	x1, x20, 1, 1
	bl	_ZN6OutputlsEj
.LVL304:
	mov	x1, x21
	bl	_ZN6OutputlsEPKc
.LVL305:
	.loc 3 867 0
	adrp	x1, .LC107
	add	x1, x1, :lo12:.LC107
	bl	_ZN6OutputlsEPKc
.LVL306:
	ubfx	x1, x20, 2, 1
	bl	_ZN6OutputlsEj
.LVL307:
	mov	x1, x21
	bl	_ZN6OutputlsEPKc
.LVL308:
	.loc 3 868 0
	adrp	x1, .LC108
	add	x1, x1, :lo12:.LC108
	bl	_ZN6OutputlsEPKc
.LVL309:
	ubfx	x1, x20, 3, 1
	bl	_ZN6OutputlsEj
.LVL310:
	mov	x1, x21
	bl	_ZN6OutputlsEPKc
.LVL311:
	.loc 3 869 0
	adrp	x1, .LC109
	add	x1, x1, :lo12:.LC109
	bl	_ZN6OutputlsEPKc
.LVL312:
	ubfx	x1, x20, 4, 1
	bl	_ZN6OutputlsEj
.LVL313:
	mov	x1, x21
	bl	_ZN6OutputlsEPKc
.LVL314:
	.loc 3 870 0
	adrp	x1, .LC110
	add	x1, x1, :lo12:.LC110
	bl	_ZN6OutputlsEPKc
.LVL315:
	ubfx	x1, x20, 5, 1
	bl	_ZN6OutputlsEj
.LVL316:
	mov	x1, x21
	bl	_ZN6OutputlsEPKc
.LVL317:
	.loc 3 871 0
	adrp	x1, .LC32
	add	x1, x1, :lo12:.LC32
	bl	_ZN6OutputlsEPKc
.LVL318:
	ubfx	x1, x20, 6, 1
	bl	_ZN6OutputlsEj
.LVL319:
	mov	x1, x21
	bl	_ZN6OutputlsEPKc
.LVL320:
	.loc 3 872 0
	adrp	x1, .LC111
	add	x1, x1, :lo12:.LC111
	bl	_ZN6OutputlsEPKc
.LVL321:
	ubfx	x1, x20, 7, 1
	bl	_ZN6OutputlsEj
.LVL322:
	mov	x1, x21
	bl	_ZN6OutputlsEPKc
.LVL323:
	.loc 3 873 0
	adrp	x1, .LC112
	add	x1, x1, :lo12:.LC112
	bl	_ZN6OutputlsEPKc
.LVL324:
	ubfx	x1, x20, 8, 1
	bl	_ZN6OutputlsEj
.LVL325:
	mov	x1, x21
	bl	_ZN6OutputlsEPKc
.LVL326:
	.loc 3 874 0
	adrp	x1, .LC113
	add	x1, x1, :lo12:.LC113
	bl	_ZN6OutputlsEPKc
.LVL327:
	ubfx	x1, x20, 9, 1
	bl	_ZN6OutputlsEj
.LVL328:
	mov	x1, x21
	bl	_ZN6OutputlsEPKc
.LVL329:
	.loc 3 875 0
	adrp	x1, .LC46
	add	x1, x1, :lo12:.LC46
	bl	_ZN6OutputlsEPKc
.LVL330:
	ubfx	x1, x20, 10, 1
	bl	_ZN6OutputlsEj
.LVL331:
	mov	x1, x21
	bl	_ZN6OutputlsEPKc
.LVL332:
	.loc 3 876 0
	adrp	x1, .LC114
	add	x1, x1, :lo12:.LC114
	bl	_ZN6OutputlsEPKc
.LVL333:
	ubfx	x1, x20, 11, 1
	bl	_ZN6OutputlsEj
.LVL334:
	mov	x1, x21
	bl	_ZN6OutputlsEPKc
.LVL335:
	.loc 3 877 0
	adrp	x1, .LC115
	add	x1, x1, :lo12:.LC115
	bl	_ZN6OutputlsEPKc
.LVL336:
	ubfx	x1, x20, 12, 1
	bl	_ZN6OutputlsEj
.LVL337:
	mov	x1, x21
	bl	_ZN6OutputlsEPKc
.LVL338:
	.loc 3 878 0
	adrp	x1, .LC65
	add	x1, x1, :lo12:.LC65
	bl	_ZN6OutputlsEPKc
.LVL339:
	ubfx	x1, x20, 13, 1
	bl	_ZN6OutputlsEj
.LVL340:
	mov	x1, x21
	bl	_ZN6OutputlsEPKc
.LVL341:
	.loc 3 879 0
	adrp	x1, .LC116
	add	x1, x1, :lo12:.LC116
	bl	_ZN6OutputlsEPKc
.LVL342:
	ubfx	x1, x20, 14, 1
	bl	_ZN6OutputlsEj
.LVL343:
	mov	x1, x21
	bl	_ZN6OutputlsEPKc
.LVL344:
	.loc 3 880 0
	adrp	x1, .LC117
	add	x1, x1, :lo12:.LC117
	bl	_ZN6OutputlsEPKc
.LVL345:
	ubfx	x1, x20, 15, 1
	bl	_ZN6OutputlsEj
.LVL346:
	mov	x1, x21
	bl	_ZN6OutputlsEPKc
.LVL347:
	.loc 3 881 0
	adrp	x1, .LC118
	add	x1, x1, :lo12:.LC118
	bl	_ZN6OutputlsEPKc
.LVL348:
	ubfx	x1, x20, 16, 1
	bl	_ZN6OutputlsEj
.LVL349:
	mov	x1, x21
	bl	_ZN6OutputlsEPKc
.LVL350:
	.loc 3 882 0
	adrp	x1, .LC119
	add	x1, x1, :lo12:.LC119
	bl	_ZN6OutputlsEPKc
.LVL351:
	ubfx	x1, x20, 17, 1
	bl	_ZN6OutputlsEj
.LVL352:
	mov	x1, x21
	bl	_ZN6OutputlsEPKc
.LVL353:
	.loc 3 883 0
	adrp	x1, .LC120
	add	x1, x1, :lo12:.LC120
	bl	_ZN6OutputlsEPKc
.LVL354:
	ubfx	x1, x20, 18, 1
	bl	_ZN6OutputlsEj
.LVL355:
	mov	x1, x21
	bl	_ZN6OutputlsEPKc
.LVL356:
	.loc 3 884 0
	adrp	x1, .LC121
	add	x1, x1, :lo12:.LC121
	bl	_ZN6OutputlsEPKc
.LVL357:
	ubfx	x1, x20, 19, 1
	bl	_ZN6OutputlsEj
.LVL358:
	mov	x1, x21
	bl	_ZN6OutputlsEPKc
.LVL359:
	.loc 3 885 0
	adrp	x1, .LC122
	add	x1, x1, :lo12:.LC122
	bl	_ZN6OutputlsEPKc
.LVL360:
	ubfx	x1, x20, 20, 1
	bl	_ZN6OutputlsEj
.LVL361:
	mov	x1, x21
	bl	_ZN6OutputlsEPKc
.LVL362:
	.loc 3 886 0
	adrp	x1, .LC123
	add	x1, x1, :lo12:.LC123
	bl	_ZN6OutputlsEPKc
.LVL363:
	ubfx	x1, x20, 21, 1
	bl	_ZN6OutputlsEj
.LVL364:
	mov	x1, x21
	bl	_ZN6OutputlsEPKc
.LVL365:
	.loc 3 887 0
	adrp	x1, .LC124
	add	x1, x1, :lo12:.LC124
	bl	_ZN6OutputlsEPKc
.LVL366:
	ubfx	x1, x20, 22, 1
	bl	_ZN6OutputlsEj
.LVL367:
	mov	x1, x21
	bl	_ZN6OutputlsEPKc
.LVL368:
	.loc 3 888 0
	adrp	x1, .LC125
	add	x1, x1, :lo12:.LC125
	bl	_ZN6OutputlsEPKc
.LVL369:
	ubfx	x1, x20, 23, 1
	bl	_ZN6OutputlsEj
.LVL370:
	mov	x1, x21
	bl	_ZN6OutputlsEPKc
.LVL371:
	.loc 3 889 0
	adrp	x1, .LC126
	add	x1, x1, :lo12:.LC126
	bl	_ZN6OutputlsEPKc
.LVL372:
	ubfx	x1, x20, 24, 1
	bl	_ZN6OutputlsEj
.LVL373:
	mov	x1, x21
	bl	_ZN6OutputlsEPKc
.LVL374:
	.loc 3 890 0
	adrp	x1, .LC127
	add	x1, x1, :lo12:.LC127
	bl	_ZN6OutputlsEPKc
.LVL375:
	ubfx	x1, x20, 25, 1
	bl	_ZN6OutputlsEj
.LVL376:
	mov	x1, x21
	bl	_ZN6OutputlsEPKc
.LVL377:
	.loc 3 891 0
	adrp	x1, .LC128
	add	x1, x1, :lo12:.LC128
	bl	_ZN6OutputlsEPKc
.LVL378:
	ubfx	x1, x20, 26, 1
	bl	_ZN6OutputlsEj
.LVL379:
	mov	x1, x21
	bl	_ZN6OutputlsEPKc
.LVL380:
	.loc 3 892 0
	adrp	x1, .LC129
	add	x1, x1, :lo12:.LC129
	bl	_ZN6OutputlsEPKc
.LVL381:
	ubfx	x1, x20, 27, 1
	bl	_ZN6OutputlsEj
.LVL382:
	mov	x1, x21
	bl	_ZN6OutputlsEPKc
.LVL383:
	.loc 3 893 0
	adrp	x1, .LC130
	add	x1, x1, :lo12:.LC130
	bl	_ZN6OutputlsEPKc
.LVL384:
	ubfx	x1, x20, 28, 1
	bl	_ZN6OutputlsEj
.LVL385:
	mov	x1, x21
	bl	_ZN6OutputlsEPKc
.LVL386:
	.loc 3 894 0
	adrp	x1, .LC131
	add	x1, x1, :lo12:.LC131
	bl	_ZN6OutputlsEPKc
.LVL387:
	ubfx	x1, x20, 29, 1
	bl	_ZN6OutputlsEj
.LVL388:
	mov	x1, x21
	bl	_ZN6OutputlsEPKc
.LVL389:
	.loc 3 895 0
	adrp	x1, .LC132
	add	x1, x1, :lo12:.LC132
	bl	_ZN6OutputlsEPKc
.LVL390:
	lsr	w1, w20, 30
	bl	_ZN6OutputlsEj
.LVL391:
	.loc 3 896 0
	mov	x1, x23
	bl	_ZN6OutputlsEPKc
.LVL392:
.LBE99:
.LBE98:
.LBB100:
.LBB101:
	.loc 3 505 0
	// Start of user assembly
// 505 "D:\Pool\eclipse-workspace_aarch64\chap003\include/arch/common_aarch64/system_common_registers.h" 1
	mrs x0,ID_AA64MMFR1_EL1
	
// 0 "" 2
.LVL393:
	// End of user assembly
.LBE101:
.LBE100:
	.loc 2 219 0
	ubfx	x0, x0, 16, 8
.LVL394:
	tst	w0, 240
	bne	.L16
	.loc 2 221 0
	adrp	x1, .LC19
	add	x1, x1, :lo12:.LC19
	adrp	x0, kout
	add	x0, x0, :lo12:kout
	bl	_ZN6OutputlsEPKc
.LVL395:
	adrp	x1, .LC133
	add	x1, x1, :lo12:.LC133
	bl	_ZN6OutputlsEPKc
.LVL396:
.L17:
.LBB102:
.LBB103:
	.loc 3 902 0
	// Start of user assembly
// 902 "D:\Pool\eclipse-workspace_aarch64\chap003\include/arch/common_aarch64/system_common_registers.h" 1
	mrs x0,SCTLR_EL1
	
// 0 "" 2
.LVL397:
	// End of user assembly
.LBE103:
.LBE102:
	.loc 2 241 0
	and	w0, w0, -50331649
.LVL398:
	.loc 2 242 0
	and	w0, w0, -524289
	.loc 2 243 0
	orr	w0, w0, 4096
	.loc 2 245 0
	and	w0, w0, -25
	.loc 2 246 0
	orr	w0, w0, 4
	.loc 2 247 0
	and	w0, w0, -3
	.loc 2 248 0
	orr	w0, w0, 1
.LVL399:
.LBB104:
.LBB105:
	.loc 3 904 0
	// Start of user assembly
// 904 "D:\Pool\eclipse-workspace_aarch64\chap003\include/arch/common_aarch64/system_common_registers.h" 1
	msr SCTLR_EL1,x0 
	
// 0 "" 2
.LVL400:
	// End of user assembly
.LBE105:
.LBE104:
	.loc 2 251 0
	// Start of user assembly
// 251 "../src/arch/qemu_virt/main_virtual_memory.cpp" 1
	isb 
	
// 0 "" 2
.LVL401:
	// End of user assembly
.LBB106:
.LBB107:
	.loc 3 903 0
	// Start of user assembly
// 903 "D:\Pool\eclipse-workspace_aarch64\chap003\include/arch/common_aarch64/system_common_registers.h" 1
	mrs x20,SCTLR_EL1
	
// 0 "" 2
.LVL402:
	// End of user assembly
.LBE107:
.LBE106:
.LBB108:
.LBB109:
	.loc 3 864 0
	adrp	x23, kout
	add	x23, x23, :lo12:kout
	adrp	x1, .LC104
	add	x1, x1, :lo12:.LC104
	mov	x0, x23
	bl	_ZN6OutputlsEPKc
.LVL403:
	.loc 3 865 0
	adrp	x1, .LC105
	add	x1, x1, :lo12:.LC105
	bl	_ZN6OutputlsEPKc
.LVL404:
	and	w1, w20, 1
	bl	_ZN6OutputlsEj
.LVL405:
	adrp	x21, .LC7
	add	x21, x21, :lo12:.LC7
	mov	x1, x21
	bl	_ZN6OutputlsEPKc
.LVL406:
	.loc 3 866 0
	adrp	x1, .LC106
	add	x1, x1, :lo12:.LC106
	bl	_ZN6OutputlsEPKc
.LVL407:
	ubfx	x1, x20, 1, 1
	bl	_ZN6OutputlsEj
.LVL408:
	mov	x1, x21
	bl	_ZN6OutputlsEPKc
.LVL409:
	.loc 3 867 0
	adrp	x1, .LC107
	add	x1, x1, :lo12:.LC107
	bl	_ZN6OutputlsEPKc
.LVL410:
	ubfx	x1, x20, 2, 1
	bl	_ZN6OutputlsEj
.LVL411:
	mov	x1, x21
	bl	_ZN6OutputlsEPKc
.LVL412:
	.loc 3 868 0
	adrp	x1, .LC108
	add	x1, x1, :lo12:.LC108
	bl	_ZN6OutputlsEPKc
.LVL413:
	ubfx	x1, x20, 3, 1
	bl	_ZN6OutputlsEj
.LVL414:
	mov	x1, x21
	bl	_ZN6OutputlsEPKc
.LVL415:
	.loc 3 869 0
	adrp	x1, .LC109
	add	x1, x1, :lo12:.LC109
	bl	_ZN6OutputlsEPKc
.LVL416:
	ubfx	x1, x20, 4, 1
	bl	_ZN6OutputlsEj
.LVL417:
	mov	x1, x21
	bl	_ZN6OutputlsEPKc
.LVL418:
	.loc 3 870 0
	adrp	x1, .LC110
	add	x1, x1, :lo12:.LC110
	bl	_ZN6OutputlsEPKc
.LVL419:
	ubfx	x1, x20, 5, 1
	bl	_ZN6OutputlsEj
.LVL420:
	mov	x1, x21
	bl	_ZN6OutputlsEPKc
.LVL421:
	.loc 3 871 0
	adrp	x1, .LC32
	add	x1, x1, :lo12:.LC32
	bl	_ZN6OutputlsEPKc
.LVL422:
	ubfx	x1, x20, 6, 1
	bl	_ZN6OutputlsEj
.LVL423:
	mov	x1, x21
	bl	_ZN6OutputlsEPKc
.LVL424:
	.loc 3 872 0
	adrp	x1, .LC111
	add	x1, x1, :lo12:.LC111
	bl	_ZN6OutputlsEPKc
.LVL425:
	ubfx	x1, x20, 7, 1
	bl	_ZN6OutputlsEj
.LVL426:
	mov	x1, x21
	bl	_ZN6OutputlsEPKc
.LVL427:
	.loc 3 873 0
	adrp	x1, .LC112
	add	x1, x1, :lo12:.LC112
	bl	_ZN6OutputlsEPKc
.LVL428:
	ubfx	x1, x20, 8, 1
	bl	_ZN6OutputlsEj
.LVL429:
	mov	x1, x21
	bl	_ZN6OutputlsEPKc
.LVL430:
	.loc 3 874 0
	adrp	x1, .LC113
	add	x1, x1, :lo12:.LC113
	bl	_ZN6OutputlsEPKc
.LVL431:
	ubfx	x1, x20, 9, 1
	bl	_ZN6OutputlsEj
.LVL432:
	mov	x1, x21
	bl	_ZN6OutputlsEPKc
.LVL433:
	.loc 3 875 0
	adrp	x1, .LC46
	add	x1, x1, :lo12:.LC46
	bl	_ZN6OutputlsEPKc
.LVL434:
	ubfx	x1, x20, 10, 1
	bl	_ZN6OutputlsEj
.LVL435:
	mov	x1, x21
	bl	_ZN6OutputlsEPKc
.LVL436:
	.loc 3 876 0
	adrp	x1, .LC114
	add	x1, x1, :lo12:.LC114
	bl	_ZN6OutputlsEPKc
.LVL437:
	ubfx	x1, x20, 11, 1
	bl	_ZN6OutputlsEj
.LVL438:
	mov	x1, x21
	bl	_ZN6OutputlsEPKc
.LVL439:
	.loc 3 877 0
	adrp	x1, .LC115
	add	x1, x1, :lo12:.LC115
	bl	_ZN6OutputlsEPKc
.LVL440:
	ubfx	x1, x20, 12, 1
	bl	_ZN6OutputlsEj
.LVL441:
	mov	x1, x21
	bl	_ZN6OutputlsEPKc
.LVL442:
	.loc 3 878 0
	adrp	x1, .LC65
	add	x1, x1, :lo12:.LC65
	bl	_ZN6OutputlsEPKc
.LVL443:
	ubfx	x1, x20, 13, 1
	bl	_ZN6OutputlsEj
.LVL444:
	mov	x1, x21
	bl	_ZN6OutputlsEPKc
.LVL445:
	.loc 3 879 0
	adrp	x1, .LC116
	add	x1, x1, :lo12:.LC116
	bl	_ZN6OutputlsEPKc
.LVL446:
	ubfx	x1, x20, 14, 1
	bl	_ZN6OutputlsEj
.LVL447:
	mov	x1, x21
	bl	_ZN6OutputlsEPKc
.LVL448:
	.loc 3 880 0
	adrp	x1, .LC117
	add	x1, x1, :lo12:.LC117
	bl	_ZN6OutputlsEPKc
.LVL449:
	ubfx	x1, x20, 15, 1
	bl	_ZN6OutputlsEj
.LVL450:
	mov	x1, x21
	bl	_ZN6OutputlsEPKc
.LVL451:
	.loc 3 881 0
	adrp	x1, .LC118
	add	x1, x1, :lo12:.LC118
	bl	_ZN6OutputlsEPKc
.LVL452:
	ubfx	x1, x20, 16, 1
	bl	_ZN6OutputlsEj
.LVL453:
	mov	x1, x21
	bl	_ZN6OutputlsEPKc
.LVL454:
	.loc 3 882 0
	adrp	x1, .LC119
	add	x1, x1, :lo12:.LC119
	bl	_ZN6OutputlsEPKc
.LVL455:
	ubfx	x1, x20, 17, 1
	bl	_ZN6OutputlsEj
.LVL456:
	mov	x1, x21
	bl	_ZN6OutputlsEPKc
.LVL457:
	.loc 3 883 0
	adrp	x1, .LC120
	add	x1, x1, :lo12:.LC120
	bl	_ZN6OutputlsEPKc
.LVL458:
	ubfx	x1, x20, 18, 1
	bl	_ZN6OutputlsEj
.LVL459:
	mov	x1, x21
	bl	_ZN6OutputlsEPKc
.LVL460:
	.loc 3 884 0
	adrp	x1, .LC121
	add	x1, x1, :lo12:.LC121
	bl	_ZN6OutputlsEPKc
.LVL461:
	ubfx	x1, x20, 19, 1
	bl	_ZN6OutputlsEj
.LVL462:
	mov	x1, x21
	bl	_ZN6OutputlsEPKc
.LVL463:
	.loc 3 885 0
	adrp	x1, .LC122
	add	x1, x1, :lo12:.LC122
	bl	_ZN6OutputlsEPKc
.LVL464:
	ubfx	x1, x20, 20, 1
	bl	_ZN6OutputlsEj
.LVL465:
	mov	x1, x21
	bl	_ZN6OutputlsEPKc
.LVL466:
	.loc 3 886 0
	adrp	x1, .LC123
	add	x1, x1, :lo12:.LC123
	bl	_ZN6OutputlsEPKc
.LVL467:
	ubfx	x1, x20, 21, 1
	bl	_ZN6OutputlsEj
.LVL468:
	mov	x1, x21
	bl	_ZN6OutputlsEPKc
.LVL469:
	.loc 3 887 0
	adrp	x1, .LC124
	add	x1, x1, :lo12:.LC124
	bl	_ZN6OutputlsEPKc
.LVL470:
	ubfx	x1, x20, 22, 1
	bl	_ZN6OutputlsEj
.LVL471:
	mov	x1, x21
	bl	_ZN6OutputlsEPKc
.LVL472:
	.loc 3 888 0
	adrp	x1, .LC125
	add	x1, x1, :lo12:.LC125
	bl	_ZN6OutputlsEPKc
.LVL473:
	ubfx	x1, x20, 23, 1
	bl	_ZN6OutputlsEj
.LVL474:
	mov	x1, x21
	bl	_ZN6OutputlsEPKc
.LVL475:
	.loc 3 889 0
	adrp	x1, .LC126
	add	x1, x1, :lo12:.LC126
	bl	_ZN6OutputlsEPKc
.LVL476:
	ubfx	x1, x20, 24, 1
	bl	_ZN6OutputlsEj
.LVL477:
	mov	x1, x21
	bl	_ZN6OutputlsEPKc
.LVL478:
	.loc 3 890 0
	adrp	x1, .LC127
	add	x1, x1, :lo12:.LC127
	bl	_ZN6OutputlsEPKc
.LVL479:
	ubfx	x1, x20, 25, 1
	bl	_ZN6OutputlsEj
.LVL480:
	mov	x1, x21
	bl	_ZN6OutputlsEPKc
.LVL481:
	.loc 3 891 0
	adrp	x1, .LC128
	add	x1, x1, :lo12:.LC128
	bl	_ZN6OutputlsEPKc
.LVL482:
	ubfx	x1, x20, 26, 1
	bl	_ZN6OutputlsEj
.LVL483:
	mov	x1, x21
	bl	_ZN6OutputlsEPKc
.LVL484:
	.loc 3 892 0
	adrp	x1, .LC129
	add	x1, x1, :lo12:.LC129
	bl	_ZN6OutputlsEPKc
.LVL485:
	ubfx	x1, x20, 27, 1
	bl	_ZN6OutputlsEj
.LVL486:
	mov	x1, x21
	bl	_ZN6OutputlsEPKc
.LVL487:
	.loc 3 893 0
	adrp	x1, .LC130
	add	x1, x1, :lo12:.LC130
	bl	_ZN6OutputlsEPKc
.LVL488:
	ubfx	x1, x20, 28, 1
	bl	_ZN6OutputlsEj
.LVL489:
	mov	x1, x21
	bl	_ZN6OutputlsEPKc
.LVL490:
	.loc 3 894 0
	adrp	x1, .LC131
	add	x1, x1, :lo12:.LC131
	bl	_ZN6OutputlsEPKc
.LVL491:
	ubfx	x1, x20, 29, 1
	bl	_ZN6OutputlsEj
.LVL492:
	mov	x1, x21
	bl	_ZN6OutputlsEPKc
.LVL493:
	.loc 3 895 0
	adrp	x1, .LC132
	add	x1, x1, :lo12:.LC132
	bl	_ZN6OutputlsEPKc
.LVL494:
	lsr	w1, w20, 30
	bl	_ZN6OutputlsEj
.LVL495:
	.loc 3 896 0
	adrp	x1, .LC16
	add	x1, x1, :lo12:.LC16
	bl	_ZN6OutputlsEPKc
.LVL496:
.LBE109:
.LBE108:
	.loc 2 255 0
	adrp	x20, .LC19
.LVL497:
	add	x20, x20, :lo12:.LC19
	mov	x1, x20
	mov	x0, x23
	bl	_ZN6OutputlsEPKc
.LVL498:
	adrp	x1, .LC136
	add	x1, x1, :lo12:.LC136
	bl	_ZN6OutputlsEPKc
.LVL499:
	.loc 2 261 0
	ubfx	w19, w19, 16, 6
.LVL500:
.LBB110:
.LBB111:
	.loc 2 12 0
	mov	w0, 64
	sub	w19, w0, w19
	mov	x0, -1
	lsr	x0, x0, x19
	lsl	x0, x0, x19
.LBE111:
.LBE110:
	.loc 2 261 0
	adrp	x1, afterMMUSet
	add	x1, x1, :lo12:afterMMUSet
	orr	x0, x0, x1
	mov	x1, 0
.LVL501:
	bfi	x1, x0, 0, 64
.LVL502:
.LBB112:
.LBB113:
	.loc 3 321 0
	// Start of user assembly
// 321 "D:\Pool\eclipse-workspace_aarch64\chap003\include/arch/common_aarch64/system_common_registers.h" 1
	br x1
	
// 0 "" 2
.LVL503:
	// End of user assembly
.LBE113:
.LBE112:
	.loc 2 265 0
	// Start of user assembly
// 265 "../src/arch/qemu_virt/main_virtual_memory.cpp" 1
	afterMMUSet:
	
// 0 "" 2
	.loc 2 266 0
	// End of user assembly
	mov	x1, x20
.LVL504:
	mov	x0, x23
	bl	_ZN6OutputlsEPKc
.LVL505:
	adrp	x1, .LC137
	add	x1, x1, :lo12:.LC137
	bl	_ZN6OutputlsEPKc
.LVL506:
	.loc 2 267 0
	mov	x1, x20
	mov	x0, x23
	bl	_ZN6OutputlsEPKc
.LVL507:
	adrp	x1, .LC138
	add	x1, x1, :lo12:.LC138
	bl	_ZN6OutputlsEPKc
.LVL508:
	.loc 2 270 0
	// Start of user assembly
// 270 "../src/arch/qemu_virt/main_virtual_memory.cpp" 1
	mainEnd:
	
// 0 "" 2
	// End of user assembly
	ldp	x19, x20, [x29, 16]
	.cfi_restore 20
	.cfi_restore 19
	ldr	x21, [x29, 32]
	.cfi_restore 21
	ldp	x23, x24, [x29, 48]
	.cfi_restore 24
	.cfi_restore 23
	ldp	x25, x26, [x29, 64]
	.cfi_restore 26
	.cfi_restore 25
	ldr	x27, [x29, 80]
	.cfi_restore 27
	.loc 2 272 0
	b	.L6
.LVL509:
.L19:
	.cfi_offset 19, -224
	.cfi_offset 20, -216
	.cfi_offset 21, -208
	.loc 2 42 0
	adrp	x1, .LC3
	add	x1, x1, :lo12:.LC3
	adrp	x0, kout
	add	x0, x0, :lo12:kout
	bl	_ZN6OutputlsEPKc
.LVL510:
	adrp	x1, .LC17
	add	x1, x1, :lo12:.LC17
	bl	_ZN6OutputlsEPKc
.LVL511:
	.loc 2 43 0
	mov	w22, 1
	ldp	x19, x20, [x29, 16]
	.cfi_remember_state
	.cfi_restore 20
	.cfi_restore 19
	ldr	x21, [x29, 32]
	.cfi_restore 21
	b	.L6
.L20:
	.cfi_restore_state
	.loc 2 53 0
	adrp	x1, .LC3
	add	x1, x1, :lo12:.LC3
	adrp	x0, kout
	add	x0, x0, :lo12:kout
	bl	_ZN6OutputlsEPKc
.LVL512:
	adrp	x1, .LC18
	add	x1, x1, :lo12:.LC18
	bl	_ZN6OutputlsEPKc
.LVL513:
	.loc 2 54 0
	mov	w22, 1
	ldp	x19, x20, [x29, 16]
	.cfi_remember_state
	.cfi_restore 20
	.cfi_restore 19
	ldr	x21, [x29, 32]
	.cfi_restore 21
	b	.L6
.LVL514:
.L21:
	.cfi_restore_state
	.loc 2 59 0
	adrp	x1, .LC19
	add	x1, x1, :lo12:.LC19
	adrp	x0, kout
.LVL515:
	add	x0, x0, :lo12:kout
	bl	_ZN6OutputlsEPKc
.LVL516:
	adrp	x1, .LC20
	add	x1, x1, :lo12:.LC20
	bl	_ZN6OutputlsEPKc
.LVL517:
	.loc 2 60 0
	sub	w0, w21, #1
.LVL518:
	b	.L11
.L22:
	.loc 2 65 0
	adrp	x1, .LC3
	add	x1, x1, :lo12:.LC3
	adrp	x0, kout
.LVL519:
	add	x0, x0, :lo12:kout
	bl	_ZN6OutputlsEPKc
.LVL520:
	adrp	x1, .LC21
	add	x1, x1, :lo12:.LC21
	bl	_ZN6OutputlsEPKc
.LVL521:
	.loc 2 66 0
	mov	w22, 1
	ldp	x19, x20, [x29, 16]
	.cfi_remember_state
	.cfi_restore 20
	.cfi_restore 19
	ldr	x21, [x29, 32]
	.cfi_restore 21
	b	.L6
.L23:
	.cfi_restore_state
	.loc 2 113 0
	adrp	x1, .LC3
	add	x1, x1, :lo12:.LC3
	adrp	x0, kout
	add	x0, x0, :lo12:kout
	bl	_ZN6OutputlsEPKc
.LVL522:
	adrp	x1, .LC22
	add	x1, x1, :lo12:.LC22
	bl	_ZN6OutputlsEPKc
.LVL523:
	.loc 2 114 0
	mov	w22, 1
	ldp	x19, x20, [x29, 16]
	.cfi_restore 20
	.cfi_restore 19
	ldr	x21, [x29, 32]
	.cfi_restore 21
	b	.L6
.LVL524:
.L14:
	.cfi_offset 19, -224
	.cfi_offset 20, -216
	.cfi_offset 21, -208
	.cfi_offset 23, -192
	.cfi_offset 24, -184
	.cfi_offset 25, -176
	.cfi_offset 26, -168
	.cfi_offset 27, -160
.LBB114:
.LBB95:
	.loc 4 110 0
	adrp	x1, .LC94
	add	x1, x1, :lo12:.LC94
	adrp	x0, kout
	add	x0, x0, :lo12:kout
	bl	_ZN6OutputlsEPKc
.LVL525:
	adrp	x23, L1Table
	add	x20, x23, :lo12:L1Table
	ldrb	w1, [x23, #:lo12:L1Table]
	and	x1, x1, 1
	bl	_ZN6OutputlsEm
.LVL526:
	adrp	x21, .LC7
	add	x21, x21, :lo12:.LC7
	mov	x1, x21
	bl	_ZN6OutputlsEPKc
.LVL527:
	.loc 4 111 0
	adrp	x1, .LC95
	add	x1, x1, :lo12:.LC95
	bl	_ZN6OutputlsEPKc
.LVL528:
	ldrb	w1, [x23, #:lo12:L1Table]
	ubfx	x1, x1, 1, 1
	bl	_ZN6OutputlsEm
.LVL529:
	mov	x1, x21
	bl	_ZN6OutputlsEPKc
.LVL530:
	.loc 4 112 0
	adrp	x1, .LC96
	add	x1, x1, :lo12:.LC96
	bl	_ZN6OutputlsEPKc
.LVL531:
	ldrh	w1, [x20]
	ubfx	x1, x1, 2, 10
	bl	_ZN6OutputlsEm
.LVL532:
	mov	x1, x21
	bl	_ZN6OutputlsEPKc
.LVL533:
	.loc 4 113 0
	adrp	x1, .LC97
	add	x1, x1, :lo12:.LC97
	bl	_ZN6OutputlsEPKc
.LVL534:
	mov	x23, x0
	ldrb	w1, [x20, 1]
	ubfx	x0, x1, 4, 4
	ldrb	w1, [x20, 2]
	orr	x1, x0, x1, lsl 4
	ldrb	w0, [x20, 3]
	orr	x1, x1, x0, lsl 12
	ldrb	w0, [x20, 4]
	orr	x0, x1, x0, lsl 20
	ldrb	w1, [x20, 5]
	orr	x1, x0, x1, lsl 28
	add	x0, x29, 200
	bl	_ZN16IntegerFormatterILi16EEC1Em
.LVL535:
	add	x1, x29, 200
	mov	x0, x23
	bl	_ZlsILi16EER6OutputS1_RK16IntegerFormatterIXT_EE
.LVL536:
	mov	x1, x21
	bl	_ZN6OutputlsEPKc
.LVL537:
	.loc 4 114 0
	adrp	x1, .LC98
	add	x1, x1, :lo12:.LC98
	bl	_ZN6OutputlsEPKc
.LVL538:
	ldrb	w1, [x20, 6]
	and	x1, x1, 15
	bl	_ZN6OutputlsEm
.LVL539:
	mov	x1, x21
	bl	_ZN6OutputlsEPKc
.LVL540:
	.loc 4 115 0
	adrp	x1, .LC99
	add	x1, x1, :lo12:.LC99
	bl	_ZN6OutputlsEPKc
.LVL541:
	ldrh	w1, [x20, 6]
	ubfx	x1, x1, 4, 7
	bl	_ZN6OutputlsEm
.LVL542:
	mov	x1, x21
	bl	_ZN6OutputlsEPKc
.LVL543:
	.loc 4 116 0
	adrp	x1, .LC100
	add	x1, x1, :lo12:.LC100
	bl	_ZN6OutputlsEPKc
.LVL544:
	ldrb	w1, [x20, 7]
	ubfx	x1, x1, 3, 1
	bl	_ZN6OutputlsEm
.LVL545:
	mov	x1, x21
	bl	_ZN6OutputlsEPKc
.LVL546:
	.loc 4 117 0
	adrp	x1, .LC101
	add	x1, x1, :lo12:.LC101
	bl	_ZN6OutputlsEPKc
.LVL547:
	ldrb	w1, [x20, 7]
	ubfx	x1, x1, 4, 1
	bl	_ZN6OutputlsEm
.LVL548:
	mov	x1, x21
	bl	_ZN6OutputlsEPKc
.LVL549:
	.loc 4 118 0
	adrp	x1, .LC102
	add	x1, x1, :lo12:.LC102
	bl	_ZN6OutputlsEPKc
.LVL550:
	ldrb	w1, [x20, 7]
	ubfx	x1, x1, 5, 2
	bl	_ZN6OutputlsEm
.LVL551:
	mov	x1, x21
	bl	_ZN6OutputlsEPKc
.LVL552:
	.loc 4 119 0
	adrp	x1, .LC103
	add	x1, x1, :lo12:.LC103
	bl	_ZN6OutputlsEPKc
.LVL553:
	ldrb	w1, [x20, 7]
	ubfx	x1, x1, 7, 1
	bl	_ZN6OutputlsEm
.LVL554:
	b	.L15
.LVL555:
.L16:
.LBE95:
.LBE114:
.LBB115:
.LBB116:
	.loc 3 180 0
	// Start of user assembly
// 180 "D:\Pool\eclipse-workspace_aarch64\chap003\include/arch/common_aarch64/system_common_registers.h" 1
	mrs x20,PAN
	
// 0 "" 2
.LVL556:
	// End of user assembly
.LBE116:
.LBE115:
.LBB117:
.LBB118:
	.loc 3 170 0
	adrp	x1, .LC134
	add	x1, x1, :lo12:.LC134
	adrp	x0, kout
	add	x0, x0, :lo12:kout
	bl	_ZN6OutputlsEPKc
.LVL557:
	.loc 3 171 0
	adrp	x1, .LC32
	add	x1, x1, :lo12:.LC32
	bl	_ZN6OutputlsEPKc
.LVL558:
	and	w1, w20, 4194303
	bl	_ZN6OutputlsEj
.LVL559:
	adrp	x21, .LC7
	add	x21, x21, :lo12:.LC7
	mov	x1, x21
	bl	_ZN6OutputlsEPKc
.LVL560:
	.loc 3 172 0
	adrp	x1, .LC135
	add	x1, x1, :lo12:.LC135
	bl	_ZN6OutputlsEPKc
.LVL561:
	ubfx	x1, x20, 22, 1
	bl	_ZN6OutputlsEj
.LVL562:
	mov	x1, x21
	bl	_ZN6OutputlsEPKc
.LVL563:
	.loc 3 173 0
	adrp	x1, .LC46
	add	x1, x1, :lo12:.LC46
	bl	_ZN6OutputlsEPKc
.LVL564:
	lsr	w1, w20, 23
	bl	_ZN6OutputlsEj
.LVL565:
	.loc 3 174 0
	adrp	x1, .LC16
	add	x1, x1, :lo12:.LC16
	bl	_ZN6OutputlsEPKc
.LVL566:
	b	.L17
.LBE118:
.LBE117:
	.cfi_endproc
.LFE142:
	.size	main, .-main
	.section	.rodata
	.align	3
	.set	.LANCHOR0,. + 0
.LC0:
	.word	32
	.word	36
	.word	40
	.word	42
	.word	44
	.word	48
	.word	52
	.zero	4
.LC2:
	.word	1
	.word	1
	.word	0
	.word	0
	.word	0
	.word	0
	.word	2147483647
	.section	.rodata.str1.8,"aMS",@progbits,1
	.align	3
.LC3:
	.string	"[FATAL] "
	.zero	7
.LC4:
	.string	" Not at EL1 \n"
	.zero	2
.LC5:
	.string	"ID_AA64MMFR0_EL1 : "
	.zero	4
.LC6:
	.string	"PARange = "
	.zero	5
.LC7:
	.string	","
	.zero	6
.LC8:
	.string	"ASIDBits = "
	.zero	4
.LC9:
	.string	"BigEnd = "
	.zero	6
.LC10:
	.string	"SNSMem = "
	.zero	6
.LC11:
	.string	"BigEndEL0 = "
	.zero	3
.LC12:
	.string	"TGran16 = "
	.zero	5
.LC13:
	.string	"TGran64 = "
	.zero	5
.LC14:
	.string	"TGran4 = "
	.zero	6
.LC15:
	.string	"RES0 = "
.LC16:
	.string	"\n"
	.zero	6
.LC17:
	.string	"4KB granule is not supported\n"
	.zero	2
.LC18:
	.string	"PARange not supported\n"
	.zero	1
.LC19:
	.string	"[INFO] "
.LC20:
	.string	"PARange is 52, we need to reduce it to 48\n"
	.zero	5
.LC21:
	.string	"Initial level not at 0,which this program designed for specifically."
	.zero	3
.LC22:
	.string	"end of main overflows, meaning that it may not be flatten mapped.\n"
	.zero	5
.LC23:
	.string	"L0Table = "
	.zero	5
.LC24:
	.string	"L1Table = "
	.zero	5
.LC25:
	.string	"TTBR0_EL1 : "
	.zero	3
.LC26:
	.string	"CnP = "
	.zero	1
.LC27:
	.string	"BADDR = "
	.zero	7
.LC28:
	.string	"ASID = "
.LC29:
	.string	"TTBR1_EL1 : "
	.zero	3
.LC30:
	.string	"TCR_EL1 : "
	.zero	5
.LC31:
	.string	"T0SZ = "
.LC32:
	.string	"RES0_0 = "
	.zero	6
.LC33:
	.string	"EPD0 = "
.LC34:
	.string	"IRGN0 = "
	.zero	7
.LC35:
	.string	"ORGN0 = "
	.zero	7
.LC36:
	.string	"SH0 = "
	.zero	1
.LC37:
	.string	"TG0 = "
	.zero	1
.LC38:
	.string	"T1SZ = "
.LC39:
	.string	"A1 = "
	.zero	2
.LC40:
	.string	"EPD1 = "
.LC41:
	.string	"IRGN1 = "
	.zero	7
.LC42:
	.string	"ORGN1 = "
	.zero	7
.LC43:
	.string	"SH1 = "
	.zero	1
.LC44:
	.string	"TG1 = "
	.zero	1
.LC45:
	.string	"IPS = "
	.zero	1
.LC46:
	.string	"RES0_1 = "
	.zero	6
.LC47:
	.string	"AS = "
	.zero	2
.LC48:
	.string	"TBI0 = "
.LC49:
	.string	"TBI1 = "
.LC50:
	.string	"HA = "
	.zero	2
.LC51:
	.string	"HD = "
	.zero	2
.LC52:
	.string	"HPD0 = "
.LC53:
	.string	"HPD1 = "
.LC54:
	.string	"HWU059 = "
	.zero	6
.LC55:
	.string	"HWU060 = "
	.zero	6
.LC56:
	.string	"HWU061 = "
	.zero	6
.LC57:
	.string	"HWU062 = "
	.zero	6
.LC58:
	.string	"HWU159 = "
	.zero	6
.LC59:
	.string	"HWU160 = "
	.zero	6
.LC60:
	.string	"HWU161 = "
	.zero	6
.LC61:
	.string	"HWU162 = "
	.zero	6
.LC62:
	.string	"RES0_2 = "
	.zero	6
.LC63:
	.string	"NFD0 = "
.LC64:
	.string	"NFD1 = "
.LC65:
	.string	"RES0_3 = "
	.zero	6
.LC66:
	.string	"Descriptor4KBL0 : "
	.zero	5
.LC67:
	.string	"Valid = "
	.zero	7
.LC68:
	.string	"IsTable = "
	.zero	5
.LC69:
	.string	"Ignored_0 = "
	.zero	3
.LC70:
	.string	"NextLevelTableAddr = "
	.zero	2
.LC71:
	.string	"Ignored_1 = "
	.zero	3
.LC72:
	.string	"PXNTable = "
	.zero	4
.LC73:
	.string	"XNTable = "
	.zero	5
.LC74:
	.string	"APTable = "
	.zero	5
.LC75:
	.string	"NSTable = "
	.zero	5
.LC76:
	.string	"Descriptor4KBL1 : "
	.zero	5
.LC77:
	.string	"S0.Valid = "
	.zero	4
.LC78:
	.string	"S0.IsTable = "
	.zero	2
.LC79:
	.string	"S0.AttrIndex = "
.LC80:
	.string	"S0.NS = "
	.zero	7
.LC81:
	.string	"S0.AP = "
	.zero	7
.LC82:
	.string	"S0.SH = "
	.zero	7
.LC83:
	.string	"S0.AF = "
	.zero	7
.LC84:
	.string	"S0.nG = "
	.zero	7
.LC85:
	.string	"S0.RES0_0 = "
	.zero	3
.LC86:
	.string	"S0.OutputAddr = "
	.zero	7
.LC87:
	.string	"S0.RES0_1 = "
	.zero	3
.LC88:
	.string	"S0.Contiguous = "
	.zero	7
.LC89:
	.string	"S0.PXN = "
	.zero	6
.LC90:
	.string	"S0.UXN = "
	.zero	6
.LC91:
	.string	"S0.Reserved = "
	.zero	1
.LC92:
	.string	"S0.PBHA = "
	.zero	5
.LC93:
	.string	"S0.Ignored = "
	.zero	2
.LC94:
	.string	"S1.Valid = "
	.zero	4
.LC95:
	.string	"S1.IsTable = "
	.zero	2
.LC96:
	.string	"S1.Ignored_0 = "
.LC97:
	.string	"S1.NextLevelTableAddr = "
	.zero	7
.LC98:
	.string	"S1.RES0 = "
	.zero	5
.LC99:
	.string	"S1.Ignored_1 = "
.LC100:
	.string	"S1.PXNTable = "
	.zero	1
.LC101:
	.string	"S1.XNTable = "
	.zero	2
.LC102:
	.string	"S1.APTable = "
	.zero	2
.LC103:
	.string	"S1.NSTable = "
	.zero	2
.LC104:
	.string	"SCTLR_EL1 : "
	.zero	3
.LC105:
	.string	"M = "
	.zero	3
.LC106:
	.string	"A = "
	.zero	3
.LC107:
	.string	"C = "
	.zero	3
.LC108:
	.string	"SA = "
	.zero	2
.LC109:
	.string	"SA0 = "
	.zero	1
.LC110:
	.string	"CP15BEN = "
	.zero	5
.LC111:
	.string	"ITD = "
	.zero	1
.LC112:
	.string	"SED = "
	.zero	1
.LC113:
	.string	"UMA = "
	.zero	1
.LC114:
	.string	"RES1_2 = "
	.zero	6
.LC115:
	.string	"I = "
	.zero	3
.LC116:
	.string	"DZE = "
	.zero	1
.LC117:
	.string	"UCT = "
	.zero	1
.LC118:
	.string	"nTWI = "
.LC119:
	.string	"RES0_4 = "
	.zero	6
.LC120:
	.string	"nTWE = "
.LC121:
	.string	"WXN = "
	.zero	1
.LC122:
	.string	"RES1_5 = "
	.zero	6
.LC123:
	.string	"IESB = "
.LC124:
	.string	"RES1_6 = "
	.zero	6
.LC125:
	.string	"SPAN = "
.LC126:
	.string	"E0E = "
	.zero	1
.LC127:
	.string	"EE = "
	.zero	2
.LC128:
	.string	"UCI = "
	.zero	1
.LC129:
	.string	"RES0_7 = "
	.zero	6
.LC130:
	.string	"nTLSMD = "
	.zero	6
.LC131:
	.string	"LSMAOE = "
	.zero	6
.LC132:
	.string	"RES0_8 = "
	.zero	6
.LC133:
	.string	"PAN not supported\n"
	.zero	5
.LC134:
	.string	"PAN : "
	.zero	1
.LC135:
	.string	"PAN = "
	.zero	1
.LC136:
	.string	"Successfully set TTBR0\n"
.LC137:
	.string	"Successfully enabled MMU\n"
	.zero	6
.LC138:
	.string	"end main."
	.text
.Letext0:
	.file 5 "d:\\installed\\gcc-linaro-7.2.1-2017.11-i686-mingw32_aarch64-elf\\aarch64-elf\\include\\c++\\7.2.1\\cstddef"
	.file 6 "d:\\installed\\gcc-linaro-7.2.1-2017.11-i686-mingw32_aarch64-elf\\aarch64-elf\\include\\c++\\7.2.1\\cstdint"
	.file 7 "d:\\installed\\gcc-linaro-7.2.1-2017.11-i686-mingw32_aarch64-elf\\aarch64-elf\\include\\c++\\7.2.1\\aarch64-elf\\bits\\c++config.h"
	.file 8 "d:\\installed\\gcc-linaro-7.2.1-2017.11-i686-mingw32_aarch64-elf\\lib\\gcc\\aarch64-elf\\7.2.1\\include\\stddef.h"
	.file 9 "d:\\installed\\gcc-linaro-7.2.1-2017.11-i686-mingw32_aarch64-elf\\lib\\gcc\\aarch64-elf\\7.2.1\\include\\stdint-gcc.h"
	.file 10 "D:\\Pool\\eclipse-workspace_aarch64\\chap003\\include/def.h"
	.file 11 "D:\\Pool\\eclipse-workspace_aarch64\\chap003\\include/printk.h"
	.file 12 "D:\\Pool\\eclipse-workspace_aarch64\\chap003\\include/IntegerFormatter.h"
	.file 13 "D:\\Pool\\eclipse-workspace_aarch64\\chap003\\include/generic_util.h"
	.file 14 "<built-in>"