	.arch armv8.2-a+crc
	.file	"ByteReader.cpp"
	.text
.Ltext0:
	.cfi_sections	.debug_frame
	.section	.rodata
	.align	2
	.type	_ZL6UNIT_K, %object
	.size	_ZL6UNIT_K, 4
_ZL6UNIT_K:
	.word	1024
	.align	2
	.type	_ZL3KiB, %object
	.size	_ZL3KiB, 4
_ZL3KiB:
	.word	1024
	.align	2
	.type	_ZL3MiB, %object
	.size	_ZL3MiB, 4
_ZL3MiB:
	.word	1048576
	.align	2
	.type	_ZL3GiB, %object
	.size	_ZL3GiB, 4
_ZL3GiB:
	.word	1073741824
	.align	3
	.type	_ZL11koutBufSize, %object
	.size	_ZL11koutBufSize, 8
_ZL11koutBufSize:
	.xword	65
	.align	3
	.type	_ZStL19piecewise_construct, %object
	.size	_ZStL19piecewise_construct, 1
_ZStL19piecewise_construct:
	.zero	1
	.text
	.align	2
	.type	_ZL20__gthread_key_deletei, %function
_ZL20__gthread_key_deletei:
.LFB664:
	.file 1 "d:\\installed\\gcc-linaro-7.2.1-2017.11-i686-mingw32_aarch64-elf\\aarch64-elf\\include\\c++\\7.2.1\\aarch64-elf\\bits\\gthr-default.h"
	.loc 1 230 0
	.cfi_startproc
	sub	sp, sp, #16
	.cfi_def_cfa_offset 16
	str	w0, [sp, 12]
	.loc 1 231 0
	mov	w0, 0
	.loc 1 232 0
	add	sp, sp, 16
	.cfi_def_cfa_offset 0
	ret
	.cfi_endproc
.LFE664:
	.size	_ZL20__gthread_key_deletei, .-_ZL20__gthread_key_deletei
	.section	.rodata
	.align	3
	.type	_ZStL13allocator_arg, %object
	.size	_ZStL13allocator_arg, 1
_ZStL13allocator_arg:
	.zero	1
	.align	3
	.type	_ZStL6ignore, %object
	.size	_ZStL6ignore, 1
_ZStL6ignore:
	.zero	1
	.text
	.align	2
	.global	_ZN10ByteReaderC2ER12SectorReader
	.type	_ZN10ByteReaderC2ER12SectorReader, %function
_ZN10ByteReaderC2ER12SectorReader:
.LFB1255:
	.file 2 "D:/Pool/eclipse-workspace_aarch64/newspace/raspiOS/src/io/ByteReader.cpp"
	.loc 2 14 0
	.cfi_startproc
	sub	sp, sp, #16
	.cfi_def_cfa_offset 16
	str	x0, [sp, 8]
	str	x1, [sp]
.LBB2:
	.loc 2 15 0
	ldr	x0, [sp, 8]
	ldr	x1, [sp]
	str	x1, [x0]
	ldr	x0, [sp, 8]
	str	xzr, [x0, 8]
.LBE2:
	nop
	add	sp, sp, 16
	.cfi_def_cfa_offset 0
	ret
	.cfi_endproc
.LFE1255:
	.size	_ZN10ByteReaderC2ER12SectorReader, .-_ZN10ByteReaderC2ER12SectorReader
	.global	_ZN10ByteReaderC1ER12SectorReader
	.set	_ZN10ByteReaderC1ER12SectorReader,_ZN10ByteReaderC2ER12SectorReader
	.align	2
	.global	_ZN10ByteReaderD2Ev
	.type	_ZN10ByteReaderD2Ev, %function
_ZN10ByteReaderD2Ev:
.LFB1258:
	.loc 2 17 0
	.cfi_startproc
	stp	x29, x30, [sp, -32]!
	.cfi_def_cfa_offset 32
	.cfi_offset 29, -32
	.cfi_offset 30, -24
	add	x29, sp, 0
	.cfi_def_cfa_register 29
	str	x0, [x29, 24]
.LBB3:
	.loc 2 19 0
	ldr	x0, [x29, 24]
	ldr	x0, [x0, 8]
	cmp	x0, 0
	beq	.L6
	.loc 2 21 0
	ldr	x0, [x29, 24]
	ldr	x1, [x0, 8]
	adrp	x0, mman
	add	x0, x0, :lo12:mman
	bl	_ZN13MemoryManager10deallocateEPv
	.loc 2 22 0
	ldr	x0, [x29, 24]
	str	xzr, [x0, 8]
.L6:
.LBE3:
	.loc 2 25 0
	nop
	ldp	x29, x30, [sp], 32
	.cfi_restore 30
	.cfi_restore 29
	.cfi_def_cfa 31, 0
	ret
	.cfi_endproc
.LFE1258:
	.size	_ZN10ByteReaderD2Ev, .-_ZN10ByteReaderD2Ev
	.global	_ZN10ByteReaderD1Ev
	.set	_ZN10ByteReaderD1Ev,_ZN10ByteReaderD2Ev
	.align	2
	.global	_ZN10ByteReader26adjustOneSecForReadOrWriteEmbPKcPc
	.type	_ZN10ByteReader26adjustOneSecForReadOrWriteEmbPKcPc, %function
_ZN10ByteReader26adjustOneSecForReadOrWriteEmbPKcPc:
.LFB1260:
	.loc 2 28 0
	.cfi_startproc
	stp	x29, x30, [sp, -96]!
	.cfi_def_cfa_offset 96
	.cfi_offset 29, -96
	.cfi_offset 30, -88
	add	x29, sp, 0
	.cfi_def_cfa_register 29
	str	x0, [x29, 56]
	str	x1, [x29, 48]
	strb	w2, [x29, 47]
	str	x3, [x29, 32]
	str	x4, [x29, 24]
	.loc 2 29 0
	ldr	x0, [x29, 56]
	bl	_ZNK10ByteReader13getSectorSizeEv
	mov	x1, x0
	ldr	x0, [x29, 48]
	udiv	x2, x0, x1
	mul	x1, x2, x1
	sub	x0, x0, x1
	str	x0, [x29, 72]
.LBB4:
	.loc 2 30 0
	ldr	x0, [x29, 72]
	cmp	x0, 0
	beq	.L8
.LBB5:
	.loc 2 32 0
	ldr	x0, [x29, 56]
	bl	_ZNK10ByteReader13getSectorSizeEv
	mov	x1, x0
	ldr	x0, [x29, 48]
	udiv	x0, x0, x1
	str	x0, [x29, 64]
	.loc 2 33 0
	ldr	x1, [x29, 64]
	ldr	x0, [x29, 56]
	bl	_ZN10ByteReader18readSectorToBufferEm
	.loc 2 34 0
	str	xzr, [x29, 88]
	.loc 2 35 0
	ldr	x0, [x29, 72]
	str	x0, [x29, 80]
	.loc 2 36 0
	ldrb	w0, [x29, 47]
	cmp	w0, 0
	beq	.L9
	.loc 2 38 0
	ldr	x0, [x29, 72]
	str	x0, [x29, 88]
	.loc 2 39 0
	ldr	x0, [x29, 56]
	bl	_ZNK10ByteReader13getSectorSizeEv
	mov	x1, x0
	ldr	x0, [x29, 72]
	sub	x0, x1, x0
	str	x0, [x29, 80]
.L9:
	.loc 2 41 0
	ldr	x0, [x29, 32]
	cmp	x0, 0
	beq	.L10
	.loc 2 43 0
	ldr	x0, [x29, 56]
	ldr	x1, [x0, 8]
	ldr	x0, [x29, 88]
	add	x0, x1, x0
	ldr	x2, [x29, 80]
	ldr	x1, [x29, 32]
	bl	memcpy
	.loc 2 44 0
	ldr	x1, [x29, 64]
	ldr	x0, [x29, 56]
	bl	_ZN10ByteReader21writeSectorFromBufferEm
	b	.L11
.L10:
	.loc 2 45 0
	ldr	x0, [x29, 24]
	cmp	x0, 0
	beq	.L11
	.loc 2 47 0
	ldr	x0, [x29, 56]
	ldr	x1, [x0, 8]
	ldr	x0, [x29, 88]
	add	x0, x1, x0
	ldr	x2, [x29, 80]
	mov	x1, x0
	ldr	x0, [x29, 24]
	bl	memcpy
.L11:
	.loc 2 49 0
	ldr	x0, [x29, 80]
	b	.L12
.L8:
.LBE5:
.LBE4:
	.loc 2 51 0
	mov	x0, 0
.L12:
	.loc 2 52 0
	ldp	x29, x30, [sp], 96
	.cfi_restore 30
	.cfi_restore 29
	.cfi_def_cfa 31, 0
	ret
	.cfi_endproc
.LFE1260:
	.size	_ZN10ByteReader26adjustOneSecForReadOrWriteEmbPKcPc, .-_ZN10ByteReader26adjustOneSecForReadOrWriteEmbPKcPc
	.align	2
	.global	_ZNK10ByteReader13getSectorSizeEv
	.type	_ZNK10ByteReader13getSectorSizeEv, %function
_ZNK10ByteReader13getSectorSizeEv:
.LFB1261:
	.loc 2 55 0
	.cfi_startproc
	sub	sp, sp, #16
	.cfi_def_cfa_offset 16
	str	x0, [sp, 8]
	.loc 2 56 0
	mov	x0, 512
	.loc 2 57 0
	add	sp, sp, 16
	.cfi_def_cfa_offset 0
	ret
	.cfi_endproc
.LFE1261:
	.size	_ZNK10ByteReader13getSectorSizeEv, .-_ZNK10ByteReader13getSectorSizeEv
	.align	2
	.global	_ZN10ByteReader18readSectorToBufferEm
	.type	_ZN10ByteReader18readSectorToBufferEm, %function
_ZN10ByteReader18readSectorToBufferEm:
.LFB1262:
	.loc 2 59 0
	.cfi_startproc
	stp	x29, x30, [sp, -32]!
	.cfi_def_cfa_offset 32
	.cfi_offset 29, -32
	.cfi_offset 30, -24
	add	x29, sp, 0
	.cfi_def_cfa_register 29
	str	x0, [x29, 24]
	str	x1, [x29, 16]
	.loc 2 60 0
	ldr	x0, [x29, 24]
	bl	_ZN10ByteReader18ensureSectorBufferEv
	.loc 2 61 0
	ldr	x0, [x29, 24]
	ldr	x4, [x0]
	ldr	x0, [x29, 24]
	ldr	x0, [x0, 8]
	mov	x3, 1
	mov	x2, x0
	ldr	x1, [x29, 16]
	mov	x0, x4
	bl	_ZN12SectorReader4readEmPvm
	cmp	x0, 1
	cset	w0, eq
	and	w0, w0, 255
	.loc 2 62 0
	ldp	x29, x30, [sp], 32
	.cfi_restore 30
	.cfi_restore 29
	.cfi_def_cfa 31, 0
	ret
	.cfi_endproc
.LFE1262:
	.size	_ZN10ByteReader18readSectorToBufferEm, .-_ZN10ByteReader18readSectorToBufferEm
	.align	2
	.global	_ZN10ByteReader21writeSectorFromBufferEm
	.type	_ZN10ByteReader21writeSectorFromBufferEm, %function
_ZN10ByteReader21writeSectorFromBufferEm:
.LFB1263:
	.loc 2 65 0
	.cfi_startproc
	stp	x29, x30, [sp, -32]!
	.cfi_def_cfa_offset 32
	.cfi_offset 29, -32
	.cfi_offset 30, -24
	add	x29, sp, 0
	.cfi_def_cfa_register 29
	str	x0, [x29, 24]
	str	x1, [x29, 16]
	.loc 2 66 0
	ldr	x0, [x29, 24]
	bl	_ZN10ByteReader18ensureSectorBufferEv
	.loc 2 67 0
	ldr	x0, [x29, 24]
	ldr	x4, [x0]
	ldr	x0, [x29, 24]
	ldr	x0, [x0, 8]
	mov	x3, 1
	mov	x2, x0
	ldr	x1, [x29, 16]
	mov	x0, x4
	bl	_ZN12SectorReader5writeEmPKvm
	cmp	x0, 1
	cset	w0, eq
	and	w0, w0, 255
	.loc 2 68 0
	ldp	x29, x30, [sp], 32
	.cfi_restore 30
	.cfi_restore 29
	.cfi_def_cfa 31, 0
	ret
	.cfi_endproc
.LFE1263:
	.size	_ZN10ByteReader21writeSectorFromBufferEm, .-_ZN10ByteReader21writeSectorFromBufferEm
	.align	2
	.global	_ZN10ByteReader18ensureSectorBufferEv
	.type	_ZN10ByteReader18ensureSectorBufferEv, %function
_ZN10ByteReader18ensureSectorBufferEv:
.LFB1264:
	.loc 2 71 0
	.cfi_startproc
	stp	x29, x30, [sp, -32]!
	.cfi_def_cfa_offset 32
	.cfi_offset 29, -32
	.cfi_offset 30, -24
	add	x29, sp, 0
	.cfi_def_cfa_register 29
	str	x0, [x29, 24]
	.loc 2 72 0
	ldr	x0, [x29, 24]
	ldr	x0, [x0, 8]
	cmp	x0, 0
	bne	.L21
	.loc 2 73 0
	ldr	x0, [x29, 24]
	bl	_ZNK10ByteReader13getSectorSizeEv
	mov	x1, x0
	adrp	x0, mman
	add	x0, x0, :lo12:mman
	bl	_ZN13MemoryManager10allocateAsIPcEET_m
	mov	x1, x0
	ldr	x0, [x29, 24]
	str	x1, [x0, 8]
.L21:
	.loc 2 74 0
	nop
	ldp	x29, x30, [sp], 32
	.cfi_restore 30
	.cfi_restore 29
	.cfi_def_cfa 31, 0
	ret
	.cfi_endproc
.LFE1264:
	.size	_ZN10ByteReader18ensureSectorBufferEv, .-_ZN10ByteReader18ensureSectorBufferEv
	.section	.text._ZN13MemoryManager10allocateAsIPcEET_m,"axG",@progbits,_ZN13MemoryManager10allocateAsIPcEET_m,comdat
	.align	2
	.weak	_ZN13MemoryManager10allocateAsIPcEET_m
	.type	_ZN13MemoryManager10allocateAsIPcEET_m, %function
_ZN13MemoryManager10allocateAsIPcEET_m:
.LFB1495:
	.file 3 "D:\\Pool\\eclipse-workspace_aarch64\\newspace\\raspiOS\\include/templates_implementation/MemoryManager.h"
	.loc 3 15 0
	.cfi_startproc
	stp	x29, x30, [sp, -32]!
	.cfi_def_cfa_offset 32
	.cfi_offset 29, -32
	.cfi_offset 30, -24
	add	x29, sp, 0
	.cfi_def_cfa_register 29
	str	x0, [x29, 24]
	str	x1, [x29, 16]
	.loc 3 17 0
	ldr	x1, [x29, 16]
	ldr	x0, [x29, 24]
	bl	_ZN13MemoryManager8allocateEm
	.loc 3 18 0
	ldp	x29, x30, [sp], 32
	.cfi_restore 30
	.cfi_restore 29
	.cfi_def_cfa 31, 0
	ret
	.cfi_endproc
.LFE1495:
	.size	_ZN13MemoryManager10allocateAsIPcEET_m, .-_ZN13MemoryManager10allocateAsIPcEET_m
	.text
.Letext0:
	.file 4 "d:\\installed\\gcc-linaro-7.2.1-2017.11-i686-mingw32_aarch64-elf\\aarch64-elf\\include\\c++\\7.2.1\\bits\\basic_string.h"
	.file 5 "d:\\installed\\gcc-linaro-7.2.1-2017.11-i686-mingw32_aarch64-elf\\aarch64-elf\\include\\c++\\7.2.1\\cstddef"
	.file 6 "d:\\installed\\gcc-linaro-7.2.1-2017.11-i686-mingw32_aarch64-elf\\aarch64-elf\\include\\c++\\7.2.1\\cstdint"
	.file 7 "d:\\installed\\gcc-linaro-7.2.1-2017.11-i686-mingw32_aarch64-elf\\aarch64-elf\\include\\c++\\7.2.1\\type_traits"
	.file 8 "d:\\installed\\gcc-linaro-7.2.1-2017.11-i686-mingw32_aarch64-elf\\aarch64-elf\\include\\c++\\7.2.1\\bits\\stl_pair.h"
	.file 9 "d:\\installed\\gcc-linaro-7.2.1-2017.11-i686-mingw32_aarch64-elf\\aarch64-elf\\include\\c++\\7.2.1\\new"
	.file 10 "d:\\installed\\gcc-linaro-7.2.1-2017.11-i686-mingw32_aarch64-elf\\aarch64-elf\\include\\c++\\7.2.1\\aarch64-elf\\bits\\c++config.h"
	.file 11 "d:\\installed\\gcc-linaro-7.2.1-2017.11-i686-mingw32_aarch64-elf\\aarch64-elf\\include\\c++\\7.2.1\\bits\\exception_ptr.h"
	.file 12 "d:\\installed\\gcc-linaro-7.2.1-2017.11-i686-mingw32_aarch64-elf\\aarch64-elf\\include\\c++\\7.2.1\\debug\\debug.h"
	.file 13 "d:\\installed\\gcc-linaro-7.2.1-2017.11-i686-mingw32_aarch64-elf\\aarch64-elf\\include\\c++\\7.2.1\\cwchar"
	.file 14 "d:\\installed\\gcc-linaro-7.2.1-2017.11-i686-mingw32_aarch64-elf\\aarch64-elf\\include\\c++\\7.2.1\\bits\\char_traits.h"
	.file 15 "d:\\installed\\gcc-linaro-7.2.1-2017.11-i686-mingw32_aarch64-elf\\aarch64-elf\\include\\c++\\7.2.1\\clocale"
	.file 16 "d:\\installed\\gcc-linaro-7.2.1-2017.11-i686-mingw32_aarch64-elf\\aarch64-elf\\include\\c++\\7.2.1\\cctype"
	.file 17 "d:\\installed\\gcc-linaro-7.2.1-2017.11-i686-mingw32_aarch64-elf\\aarch64-elf\\include\\c++\\7.2.1\\bits\\std_abs.h"
	.file 18 "d:\\installed\\gcc-linaro-7.2.1-2017.11-i686-mingw32_aarch64-elf\\aarch64-elf\\include\\c++\\7.2.1\\cstdlib"
	.file 19 "d:\\installed\\gcc-linaro-7.2.1-2017.11-i686-mingw32_aarch64-elf\\aarch64-elf\\include\\c++\\7.2.1\\cstdio"
	.file 20 "d:\\installed\\gcc-linaro-7.2.1-2017.11-i686-mingw32_aarch64-elf\\aarch64-elf\\include\\c++\\7.2.1\\bits\\alloc_traits.h"
	.file 21 "d:\\installed\\gcc-linaro-7.2.1-2017.11-i686-mingw32_aarch64-elf\\aarch64-elf\\include\\c++\\7.2.1\\bits\\allocator.h"
	.file 22 "d:\\installed\\gcc-linaro-7.2.1-2017.11-i686-mingw32_aarch64-elf\\aarch64-elf\\include\\c++\\7.2.1\\initializer_list"
	.file 23 "d:\\installed\\gcc-linaro-7.2.1-2017.11-i686-mingw32_aarch64-elf\\aarch64-elf\\include\\c++\\7.2.1\\bits\\uses_allocator.h"
	.file 24 "d:\\installed\\gcc-linaro-7.2.1-2017.11-i686-mingw32_aarch64-elf\\aarch64-elf\\include\\c++\\7.2.1\\tuple"
	.file 25 "d:\\installed\\gcc-linaro-7.2.1-2017.11-i686-mingw32_aarch64-elf\\aarch64-elf\\include\\c++\\7.2.1\\cstring"
	.file 26 "d:\\installed\\gcc-linaro-7.2.1-2017.11-i686-mingw32_aarch64-elf\\aarch64-elf\\include\\c++\\7.2.1\\bits\\stl_iterator_base_types.h"
	.file 27 "d:\\installed\\gcc-linaro-7.2.1-2017.11-i686-mingw32_aarch64-elf\\aarch64-elf\\include\\c++\\7.2.1\\bits\\predefined_ops.h"
	.file 28 "d:\\installed\\gcc-linaro-7.2.1-2017.11-i686-mingw32_aarch64-elf\\aarch64-elf\\include\\c++\\7.2.1\\ext\\new_allocator.h"
	.file 29 "d:\\installed\\gcc-linaro-7.2.1-2017.11-i686-mingw32_aarch64-elf\\aarch64-elf\\include\\c++\\7.2.1\\ext\\numeric_traits.h"
	.file 30 "d:\\installed\\gcc-linaro-7.2.1-2017.11-i686-mingw32_aarch64-elf\\aarch64-elf\\include\\c++\\7.2.1\\ext\\alloc_traits.h"
	.file 31 "d:\\installed\\gcc-linaro-7.2.1-2017.11-i686-mingw32_aarch64-elf\\aarch64-elf\\include\\c++\\7.2.1\\bits\\stl_iterator.h"
	.file 32 "d:\\installed\\gcc-linaro-7.2.1-2017.11-i686-mingw32_aarch64-elf\\lib\\gcc\\aarch64-elf\\7.2.1\\include\\stddef.h"
	.file 33 "d:\\installed\\gcc-linaro-7.2.1-2017.11-i686-mingw32_aarch64-elf\\lib\\gcc\\aarch64-elf\\7.2.1\\include\\stdint-gcc.h"
	.file 34 "D:\\Pool\\eclipse-workspace_aarch64\\newspace\\raspiOS\\include/def.h"
	.file 35 "D:\\Pool\\eclipse-workspace_aarch64\\newspace\\raspiOS\\include/io/SectorReader.h"
	.file 36 "D:\\Pool\\eclipse-workspace_aarch64\\newspace\\raspiOS\\include/generic_util.h"
	.file 37 "D:\\Pool\\eclipse-workspace_aarch64\\newspace\\raspiOS\\include/memory/MemoryChunk.h"
	.file 38 "D:\\Pool\\eclipse-workspace_aarch64\\newspace\\raspiOS\\include/memory/MemoryManager.h"
	.file 39 "D:\\Pool\\eclipse-workspace_aarch64\\newspace\\raspiOS\\include/io/Output.h"
	.file 40 "D:\\Pool\\eclipse-workspace_aarch64\\newspace\\raspiOS\\include/io/ByteReader.h"
	.file 41 "d:\\installed\\gcc-linaro-7.2.1-2017.11-i686-mingw32_aarch64-elf\\aarch64-elf\\libc\\usr\\include\\sys\\lock.h"
	.file 42 "d:\\installed\\gcc-linaro-7.2.1-2017.11-i686-mingw32_aarch64-elf\\aarch64-elf\\libc\\usr\\include\\sys\\_types.h"
	.file 43 "d:\\installed\\gcc-linaro-7.2.1-2017.11-i686-mingw32_aarch64-elf\\aarch64-elf\\libc\\usr\\include\\sys\\reent.h"
	.file 44 "d:\\installed\\gcc-linaro-7.2.1-2017.11-i686-mingw32_aarch64-elf\\lib\\gcc\\aarch64-elf\\7.2.1\\include\\stdarg.h"
	.file 45 "<built-in>"
	.file 46 "d:\\installed\\gcc-linaro-7.2.1-2017.11-i686-mingw32_aarch64-elf\\aarch64-elf\\libc\\usr\\include\\wchar.h"
	.file 47 "d:\\installed\\gcc-linaro-7.2.1-2017.11-i686-mingw32_aarch64-elf\\aarch64-elf\\libc\\usr\\include\\locale.h"
	.file 48 "d:\\installed\\gcc-linaro-7.2.1-2017.11-i686-mingw32_aarch64-elf\\aarch64-elf\\libc\\usr\\include\\ctype.h"
	.file 49 "d:\\installed\\gcc-linaro-7.2.1-2017.11-i686-mingw32_aarch64-elf\\aarch64-elf\\libc\\usr\\include\\stdlib.h"
	.file 50 "d:\\installed\\gcc-linaro-7.2.1-2017.11-i686-mingw32_aarch64-elf\\aarch64-elf\\libc\\usr\\include\\stdio.h"
	.file 51 "d:\\installed\\gcc-linaro-7.2.1-2017.11-i686-mingw32_aarch64-elf\\aarch64-elf\\libc\\usr\\include\\sys\\errno.h"
	.file 52 "d:\\installed\\gcc-linaro-7.2.1-2017.11-i686-mingw32_aarch64-elf\\aarch64-elf\\libc\\usr\\include\\string.h"