	.arch armv8.2-a+crc
	.file	"exceptions.cpp"
	.text
.Ltext0:
	.cfi_sections	.debug_frame
	// Start of user assembly
	.text 
	.align 11 
	.global ExceptionVectorEL1 
	ExceptionVectorEL1:  
	b enterSynchronousEL1ExceptionHandle_no_prologue 
	. = ExceptionVectorEL1 + 0x080 
	b enterIRQEL1ExceptionHandle_no_prologue
	. = ExceptionVectorEL1 + 0x100 
	b enterFIQEL1ExceptionHandle_no_prologue 
	. = ExceptionVectorEL1 + 0x180 
	b enterSErrorEL1ExceptionHandle_no_prologue 
	. = ExceptionVectorEL1 + 0x200 
	b enterSynchronousEL1ExceptionHandle_no_prologue 
	. = ExceptionVectorEL1 + 0x280 
	b enterIRQEL1ExceptionHandle_no_prologue 
	. = ExceptionVectorEL1 + 0x300 
	b enterFIQEL1ExceptionHandle_no_prologue 
	. = ExceptionVectorEL1 + 0x380 
	b enterSErrorEL1ExceptionHandle_no_prologue 
	. = ExceptionVectorEL1 + 0x400 
	b enterSynchronousEL1ExceptionHandle_no_prologue 
	. = ExceptionVectorEL1 + 0x480 
	b enterIRQEL1ExceptionHandle_no_prologue
	. = ExceptionVectorEL1 + 0x500 
	b enterFIQEL1ExceptionHandle_no_prologue
	. = ExceptionVectorEL1 + 0x580 
	b enterSErrorEL1ExceptionHandle_no_prologue
	. = ExceptionVectorEL1 + 0x780 
	. =. + 0x80 
	
	// End of user assembly
	.align	2
	.global	_Z34enterSynchronousEL1ExceptionHandlev
	.type	_Z34enterSynchronousEL1ExceptionHandlev, %function
_Z34enterSynchronousEL1ExceptionHandlev:
.LFB746:
	.file 1 "D:/Pool/eclipse-workspace_aarch64/newspace/raspiOS/src/arch/common_aarch64/exception/exceptions.cpp"
	.loc 1 97 0
	.cfi_startproc
.L2:
	.loc 1 99 0
	// Start of user assembly
// 99 "D:/Pool/eclipse-workspace_aarch64/newspace/raspiOS/src/arch/common_aarch64/exception/exceptions.cpp" 1
	enterSynchronousEL1ExceptionHandle_no_prologue: 
	
// 0 "" 2
	.loc 1 100 0
// 100 "D:/Pool/eclipse-workspace_aarch64/newspace/raspiOS/src/arch/common_aarch64/exception/exceptions.cpp" 1
	stp x29,x30,[sp,#-16]! 
	
// 0 "" 2
// 100 "D:/Pool/eclipse-workspace_aarch64/newspace/raspiOS/src/arch/common_aarch64/exception/exceptions.cpp" 1
	stp x27,x28,[sp,#-16]! 
	
// 0 "" 2
// 100 "D:/Pool/eclipse-workspace_aarch64/newspace/raspiOS/src/arch/common_aarch64/exception/exceptions.cpp" 1
	stp x25,x26,[sp,#-16]! 
	
// 0 "" 2
// 100 "D:/Pool/eclipse-workspace_aarch64/newspace/raspiOS/src/arch/common_aarch64/exception/exceptions.cpp" 1
	stp x23,x24,[sp,#-16]! 
	
// 0 "" 2
// 100 "D:/Pool/eclipse-workspace_aarch64/newspace/raspiOS/src/arch/common_aarch64/exception/exceptions.cpp" 1
	stp x21,x22,[sp,#-16]! 
	
// 0 "" 2
// 100 "D:/Pool/eclipse-workspace_aarch64/newspace/raspiOS/src/arch/common_aarch64/exception/exceptions.cpp" 1
	stp x19,x20,[sp,#-16]! 
	
// 0 "" 2
// 100 "D:/Pool/eclipse-workspace_aarch64/newspace/raspiOS/src/arch/common_aarch64/exception/exceptions.cpp" 1
	stp x17,x18,[sp,#-16]! 
	
// 0 "" 2
// 100 "D:/Pool/eclipse-workspace_aarch64/newspace/raspiOS/src/arch/common_aarch64/exception/exceptions.cpp" 1
	stp x15,x16,[sp,#-16]! 
	
// 0 "" 2
// 100 "D:/Pool/eclipse-workspace_aarch64/newspace/raspiOS/src/arch/common_aarch64/exception/exceptions.cpp" 1
	stp x13,x14,[sp,#-16]! 
	
// 0 "" 2
// 100 "D:/Pool/eclipse-workspace_aarch64/newspace/raspiOS/src/arch/common_aarch64/exception/exceptions.cpp" 1
	stp x11,x12,[sp,#-16]! 
	
// 0 "" 2
// 100 "D:/Pool/eclipse-workspace_aarch64/newspace/raspiOS/src/arch/common_aarch64/exception/exceptions.cpp" 1
	stp x9,x10,[sp,#-16]! 
	
// 0 "" 2
// 100 "D:/Pool/eclipse-workspace_aarch64/newspace/raspiOS/src/arch/common_aarch64/exception/exceptions.cpp" 1
	stp x7,x8,[sp,#-16]! 
	
// 0 "" 2
// 100 "D:/Pool/eclipse-workspace_aarch64/newspace/raspiOS/src/arch/common_aarch64/exception/exceptions.cpp" 1
	stp x5,x6,[sp,#-16]! 
	
// 0 "" 2
// 100 "D:/Pool/eclipse-workspace_aarch64/newspace/raspiOS/src/arch/common_aarch64/exception/exceptions.cpp" 1
	stp x3,x4,[sp,#-16]! 
	
// 0 "" 2
// 100 "D:/Pool/eclipse-workspace_aarch64/newspace/raspiOS/src/arch/common_aarch64/exception/exceptions.cpp" 1
	stp x1,x2,[sp,#-16]! 
	
// 0 "" 2
// 100 "D:/Pool/eclipse-workspace_aarch64/newspace/raspiOS/src/arch/common_aarch64/exception/exceptions.cpp" 1
	str x0,[sp,#-8]! 
	
// 0 "" 2
	.loc 1 104 0
// 104 "D:/Pool/eclipse-workspace_aarch64/newspace/raspiOS/src/arch/common_aarch64/exception/exceptions.cpp" 1
	mov     x0, sp 
	bl      SynchronousEL1Handle 
	
// 0 "" 2
	.loc 1 105 0
// 105 "D:/Pool/eclipse-workspace_aarch64/newspace/raspiOS/src/arch/common_aarch64/exception/exceptions.cpp" 1
	ldr x0,[sp],#8 
	
// 0 "" 2
// 105 "D:/Pool/eclipse-workspace_aarch64/newspace/raspiOS/src/arch/common_aarch64/exception/exceptions.cpp" 1
	ldp x1,x2,[sp],#16 
	
// 0 "" 2
// 105 "D:/Pool/eclipse-workspace_aarch64/newspace/raspiOS/src/arch/common_aarch64/exception/exceptions.cpp" 1
	ldp x3,x4,[sp],#16 
	
// 0 "" 2
// 105 "D:/Pool/eclipse-workspace_aarch64/newspace/raspiOS/src/arch/common_aarch64/exception/exceptions.cpp" 1
	ldp x5,x6,[sp],#16 
	
// 0 "" 2
// 105 "D:/Pool/eclipse-workspace_aarch64/newspace/raspiOS/src/arch/common_aarch64/exception/exceptions.cpp" 1
	ldp x7,x8,[sp],#16 
	
// 0 "" 2
// 105 "D:/Pool/eclipse-workspace_aarch64/newspace/raspiOS/src/arch/common_aarch64/exception/exceptions.cpp" 1
	ldp x9,x10,[sp],#16 
	
// 0 "" 2
// 105 "D:/Pool/eclipse-workspace_aarch64/newspace/raspiOS/src/arch/common_aarch64/exception/exceptions.cpp" 1
	ldp x11,x12,[sp],#16 
	
// 0 "" 2
// 105 "D:/Pool/eclipse-workspace_aarch64/newspace/raspiOS/src/arch/common_aarch64/exception/exceptions.cpp" 1
	ldp x13,x14,[sp],#16 
	
// 0 "" 2
// 105 "D:/Pool/eclipse-workspace_aarch64/newspace/raspiOS/src/arch/common_aarch64/exception/exceptions.cpp" 1
	ldp x15,x16,[sp],#16 
	
// 0 "" 2
// 105 "D:/Pool/eclipse-workspace_aarch64/newspace/raspiOS/src/arch/common_aarch64/exception/exceptions.cpp" 1
	ldp x17,x18,[sp],#16 
	
// 0 "" 2
// 105 "D:/Pool/eclipse-workspace_aarch64/newspace/raspiOS/src/arch/common_aarch64/exception/exceptions.cpp" 1
	ldp x19,x20,[sp],#16 
	
// 0 "" 2
// 105 "D:/Pool/eclipse-workspace_aarch64/newspace/raspiOS/src/arch/common_aarch64/exception/exceptions.cpp" 1
	ldp x21,x22,[sp],#16 
	
// 0 "" 2
// 105 "D:/Pool/eclipse-workspace_aarch64/newspace/raspiOS/src/arch/common_aarch64/exception/exceptions.cpp" 1
	ldp x23,x24,[sp],#16 
	
// 0 "" 2
// 105 "D:/Pool/eclipse-workspace_aarch64/newspace/raspiOS/src/arch/common_aarch64/exception/exceptions.cpp" 1
	ldp x25,x26,[sp],#16 
	
// 0 "" 2
// 105 "D:/Pool/eclipse-workspace_aarch64/newspace/raspiOS/src/arch/common_aarch64/exception/exceptions.cpp" 1
	ldp x27,x28,[sp],#16 
	
// 0 "" 2
// 105 "D:/Pool/eclipse-workspace_aarch64/newspace/raspiOS/src/arch/common_aarch64/exception/exceptions.cpp" 1
	ldp x29,x30,[sp],#16 
	
// 0 "" 2
	// End of user assembly
.LBB139:
.LBB140:
	.file 2 "D:\\Pool\\eclipse-workspace_aarch64\\newspace\\raspiOS\\include/asm_instructions.h"
	.loc 2 54 0
	// Start of user assembly
// 54 "D:\Pool\eclipse-workspace_aarch64\newspace\raspiOS\include/asm_instructions.h" 1
	eret 
	
// 0 "" 2
	// End of user assembly
.LBE140:
.LBE139:
	.loc 1 107 0
	ret
	.cfi_endproc
.LFE746:
	.size	_Z34enterSynchronousEL1ExceptionHandlev, .-_Z34enterSynchronousEL1ExceptionHandlev
	.align	2
	.global	_Z26enterIRQEL1ExceptionHandlev
	.type	_Z26enterIRQEL1ExceptionHandlev, %function
_Z26enterIRQEL1ExceptionHandlev:
.LFB747:
	.loc 1 109 0
	.cfi_startproc
.L4:
	.loc 1 111 0
	// Start of user assembly
// 111 "D:/Pool/eclipse-workspace_aarch64/newspace/raspiOS/src/arch/common_aarch64/exception/exceptions.cpp" 1
	enterIRQEL1ExceptionHandle_no_prologue: 
	
// 0 "" 2
	.loc 1 112 0
// 112 "D:/Pool/eclipse-workspace_aarch64/newspace/raspiOS/src/arch/common_aarch64/exception/exceptions.cpp" 1
	stp x29,x30,[sp,#-16]! 
	
// 0 "" 2
// 112 "D:/Pool/eclipse-workspace_aarch64/newspace/raspiOS/src/arch/common_aarch64/exception/exceptions.cpp" 1
	stp x27,x28,[sp,#-16]! 
	
// 0 "" 2
// 112 "D:/Pool/eclipse-workspace_aarch64/newspace/raspiOS/src/arch/common_aarch64/exception/exceptions.cpp" 1
	stp x25,x26,[sp,#-16]! 
	
// 0 "" 2
// 112 "D:/Pool/eclipse-workspace_aarch64/newspace/raspiOS/src/arch/common_aarch64/exception/exceptions.cpp" 1
	stp x23,x24,[sp,#-16]! 
	
// 0 "" 2
// 112 "D:/Pool/eclipse-workspace_aarch64/newspace/raspiOS/src/arch/common_aarch64/exception/exceptions.cpp" 1
	stp x21,x22,[sp,#-16]! 
	
// 0 "" 2
// 112 "D:/Pool/eclipse-workspace_aarch64/newspace/raspiOS/src/arch/common_aarch64/exception/exceptions.cpp" 1
	stp x19,x20,[sp,#-16]! 
	
// 0 "" 2
// 112 "D:/Pool/eclipse-workspace_aarch64/newspace/raspiOS/src/arch/common_aarch64/exception/exceptions.cpp" 1
	stp x17,x18,[sp,#-16]! 
	
// 0 "" 2
// 112 "D:/Pool/eclipse-workspace_aarch64/newspace/raspiOS/src/arch/common_aarch64/exception/exceptions.cpp" 1
	stp x15,x16,[sp,#-16]! 
	
// 0 "" 2
// 112 "D:/Pool/eclipse-workspace_aarch64/newspace/raspiOS/src/arch/common_aarch64/exception/exceptions.cpp" 1
	stp x13,x14,[sp,#-16]! 
	
// 0 "" 2
// 112 "D:/Pool/eclipse-workspace_aarch64/newspace/raspiOS/src/arch/common_aarch64/exception/exceptions.cpp" 1
	stp x11,x12,[sp,#-16]! 
	
// 0 "" 2
// 112 "D:/Pool/eclipse-workspace_aarch64/newspace/raspiOS/src/arch/common_aarch64/exception/exceptions.cpp" 1
	stp x9,x10,[sp,#-16]! 
	
// 0 "" 2
// 112 "D:/Pool/eclipse-workspace_aarch64/newspace/raspiOS/src/arch/common_aarch64/exception/exceptions.cpp" 1
	stp x7,x8,[sp,#-16]! 
	
// 0 "" 2
// 112 "D:/Pool/eclipse-workspace_aarch64/newspace/raspiOS/src/arch/common_aarch64/exception/exceptions.cpp" 1
	stp x5,x6,[sp,#-16]! 
	
// 0 "" 2
// 112 "D:/Pool/eclipse-workspace_aarch64/newspace/raspiOS/src/arch/common_aarch64/exception/exceptions.cpp" 1
	stp x3,x4,[sp,#-16]! 
	
// 0 "" 2
// 112 "D:/Pool/eclipse-workspace_aarch64/newspace/raspiOS/src/arch/common_aarch64/exception/exceptions.cpp" 1
	stp x1,x2,[sp,#-16]! 
	
// 0 "" 2
// 112 "D:/Pool/eclipse-workspace_aarch64/newspace/raspiOS/src/arch/common_aarch64/exception/exceptions.cpp" 1
	str x0,[sp,#-8]! 
	
// 0 "" 2
	.loc 1 115 0
// 115 "D:/Pool/eclipse-workspace_aarch64/newspace/raspiOS/src/arch/common_aarch64/exception/exceptions.cpp" 1
	bl      IRQEL1Handle 
	
// 0 "" 2
	.loc 1 116 0
// 116 "D:/Pool/eclipse-workspace_aarch64/newspace/raspiOS/src/arch/common_aarch64/exception/exceptions.cpp" 1
	ldr x0,[sp],#8 
	
// 0 "" 2
// 116 "D:/Pool/eclipse-workspace_aarch64/newspace/raspiOS/src/arch/common_aarch64/exception/exceptions.cpp" 1
	ldp x1,x2,[sp],#16 
	
// 0 "" 2
// 116 "D:/Pool/eclipse-workspace_aarch64/newspace/raspiOS/src/arch/common_aarch64/exception/exceptions.cpp" 1
	ldp x3,x4,[sp],#16 
	
// 0 "" 2
// 116 "D:/Pool/eclipse-workspace_aarch64/newspace/raspiOS/src/arch/common_aarch64/exception/exceptions.cpp" 1
	ldp x5,x6,[sp],#16 
	
// 0 "" 2
// 116 "D:/Pool/eclipse-workspace_aarch64/newspace/raspiOS/src/arch/common_aarch64/exception/exceptions.cpp" 1
	ldp x7,x8,[sp],#16 
	
// 0 "" 2
// 116 "D:/Pool/eclipse-workspace_aarch64/newspace/raspiOS/src/arch/common_aarch64/exception/exceptions.cpp" 1
	ldp x9,x10,[sp],#16 
	
// 0 "" 2
// 116 "D:/Pool/eclipse-workspace_aarch64/newspace/raspiOS/src/arch/common_aarch64/exception/exceptions.cpp" 1
	ldp x11,x12,[sp],#16 
	
// 0 "" 2
// 116 "D:/Pool/eclipse-workspace_aarch64/newspace/raspiOS/src/arch/common_aarch64/exception/exceptions.cpp" 1
	ldp x13,x14,[sp],#16 
	
// 0 "" 2
// 116 "D:/Pool/eclipse-workspace_aarch64/newspace/raspiOS/src/arch/common_aarch64/exception/exceptions.cpp" 1
	ldp x15,x16,[sp],#16 
	
// 0 "" 2
// 116 "D:/Pool/eclipse-workspace_aarch64/newspace/raspiOS/src/arch/common_aarch64/exception/exceptions.cpp" 1
	ldp x17,x18,[sp],#16 
	
// 0 "" 2
// 116 "D:/Pool/eclipse-workspace_aarch64/newspace/raspiOS/src/arch/common_aarch64/exception/exceptions.cpp" 1
	ldp x19,x20,[sp],#16 
	
// 0 "" 2
// 116 "D:/Pool/eclipse-workspace_aarch64/newspace/raspiOS/src/arch/common_aarch64/exception/exceptions.cpp" 1
	ldp x21,x22,[sp],#16 
	
// 0 "" 2
// 116 "D:/Pool/eclipse-workspace_aarch64/newspace/raspiOS/src/arch/common_aarch64/exception/exceptions.cpp" 1
	ldp x23,x24,[sp],#16 
	
// 0 "" 2
// 116 "D:/Pool/eclipse-workspace_aarch64/newspace/raspiOS/src/arch/common_aarch64/exception/exceptions.cpp" 1
	ldp x25,x26,[sp],#16 
	
// 0 "" 2
// 116 "D:/Pool/eclipse-workspace_aarch64/newspace/raspiOS/src/arch/common_aarch64/exception/exceptions.cpp" 1
	ldp x27,x28,[sp],#16 
	
// 0 "" 2
// 116 "D:/Pool/eclipse-workspace_aarch64/newspace/raspiOS/src/arch/common_aarch64/exception/exceptions.cpp" 1
	ldp x29,x30,[sp],#16 
	
// 0 "" 2
	// End of user assembly
.LBB141:
.LBB142:
	.loc 2 54 0
	// Start of user assembly
// 54 "D:\Pool\eclipse-workspace_aarch64\newspace\raspiOS\include/asm_instructions.h" 1
	eret 
	
// 0 "" 2
	// End of user assembly
.LBE142:
.LBE141:
	.loc 1 118 0
	ret
	.cfi_endproc
.LFE747:
	.size	_Z26enterIRQEL1ExceptionHandlev, .-_Z26enterIRQEL1ExceptionHandlev
	.align	2
	.global	_Z26enterFIQEL1ExceptionHandlev
	.type	_Z26enterFIQEL1ExceptionHandlev, %function
_Z26enterFIQEL1ExceptionHandlev:
.LFB748:
	.loc 1 120 0
	.cfi_startproc
.L6:
	.loc 1 122 0
	// Start of user assembly
// 122 "D:/Pool/eclipse-workspace_aarch64/newspace/raspiOS/src/arch/common_aarch64/exception/exceptions.cpp" 1
	enterFIQEL1ExceptionHandle_no_prologue: 
	
// 0 "" 2
	.loc 1 123 0
// 123 "D:/Pool/eclipse-workspace_aarch64/newspace/raspiOS/src/arch/common_aarch64/exception/exceptions.cpp" 1
	stp x29,x30,[sp,#-16]! 
	
// 0 "" 2
// 123 "D:/Pool/eclipse-workspace_aarch64/newspace/raspiOS/src/arch/common_aarch64/exception/exceptions.cpp" 1
	stp x27,x28,[sp,#-16]! 
	
// 0 "" 2
// 123 "D:/Pool/eclipse-workspace_aarch64/newspace/raspiOS/src/arch/common_aarch64/exception/exceptions.cpp" 1
	stp x25,x26,[sp,#-16]! 
	
// 0 "" 2
// 123 "D:/Pool/eclipse-workspace_aarch64/newspace/raspiOS/src/arch/common_aarch64/exception/exceptions.cpp" 1
	stp x23,x24,[sp,#-16]! 
	
// 0 "" 2
// 123 "D:/Pool/eclipse-workspace_aarch64/newspace/raspiOS/src/arch/common_aarch64/exception/exceptions.cpp" 1
	stp x21,x22,[sp,#-16]! 
	
// 0 "" 2
// 123 "D:/Pool/eclipse-workspace_aarch64/newspace/raspiOS/src/arch/common_aarch64/exception/exceptions.cpp" 1
	stp x19,x20,[sp,#-16]! 
	
// 0 "" 2
// 123 "D:/Pool/eclipse-workspace_aarch64/newspace/raspiOS/src/arch/common_aarch64/exception/exceptions.cpp" 1
	stp x17,x18,[sp,#-16]! 
	
// 0 "" 2
// 123 "D:/Pool/eclipse-workspace_aarch64/newspace/raspiOS/src/arch/common_aarch64/exception/exceptions.cpp" 1
	stp x15,x16,[sp,#-16]! 
	
// 0 "" 2
// 123 "D:/Pool/eclipse-workspace_aarch64/newspace/raspiOS/src/arch/common_aarch64/exception/exceptions.cpp" 1
	stp x13,x14,[sp,#-16]! 
	
// 0 "" 2
// 123 "D:/Pool/eclipse-workspace_aarch64/newspace/raspiOS/src/arch/common_aarch64/exception/exceptions.cpp" 1
	stp x11,x12,[sp,#-16]! 
	
// 0 "" 2
// 123 "D:/Pool/eclipse-workspace_aarch64/newspace/raspiOS/src/arch/common_aarch64/exception/exceptions.cpp" 1
	stp x9,x10,[sp,#-16]! 
	
// 0 "" 2
// 123 "D:/Pool/eclipse-workspace_aarch64/newspace/raspiOS/src/arch/common_aarch64/exception/exceptions.cpp" 1
	stp x7,x8,[sp,#-16]! 
	
// 0 "" 2
// 123 "D:/Pool/eclipse-workspace_aarch64/newspace/raspiOS/src/arch/common_aarch64/exception/exceptions.cpp" 1
	stp x5,x6,[sp,#-16]! 
	
// 0 "" 2
// 123 "D:/Pool/eclipse-workspace_aarch64/newspace/raspiOS/src/arch/common_aarch64/exception/exceptions.cpp" 1
	stp x3,x4,[sp,#-16]! 
	
// 0 "" 2
// 123 "D:/Pool/eclipse-workspace_aarch64/newspace/raspiOS/src/arch/common_aarch64/exception/exceptions.cpp" 1
	stp x1,x2,[sp,#-16]! 
	
// 0 "" 2
// 123 "D:/Pool/eclipse-workspace_aarch64/newspace/raspiOS/src/arch/common_aarch64/exception/exceptions.cpp" 1
	str x0,[sp,#-8]! 
	
// 0 "" 2
	.loc 1 126 0
// 126 "D:/Pool/eclipse-workspace_aarch64/newspace/raspiOS/src/arch/common_aarch64/exception/exceptions.cpp" 1
	bl      FIQEL1Handle 
	
// 0 "" 2
	.loc 1 127 0
// 127 "D:/Pool/eclipse-workspace_aarch64/newspace/raspiOS/src/arch/common_aarch64/exception/exceptions.cpp" 1
	ldr x0,[sp],#8 
	
// 0 "" 2
// 127 "D:/Pool/eclipse-workspace_aarch64/newspace/raspiOS/src/arch/common_aarch64/exception/exceptions.cpp" 1
	ldp x1,x2,[sp],#16 
	
// 0 "" 2
// 127 "D:/Pool/eclipse-workspace_aarch64/newspace/raspiOS/src/arch/common_aarch64/exception/exceptions.cpp" 1
	ldp x3,x4,[sp],#16 
	
// 0 "" 2
// 127 "D:/Pool/eclipse-workspace_aarch64/newspace/raspiOS/src/arch/common_aarch64/exception/exceptions.cpp" 1
	ldp x5,x6,[sp],#16 
	
// 0 "" 2
// 127 "D:/Pool/eclipse-workspace_aarch64/newspace/raspiOS/src/arch/common_aarch64/exception/exceptions.cpp" 1
	ldp x7,x8,[sp],#16 
	
// 0 "" 2
// 127 "D:/Pool/eclipse-workspace_aarch64/newspace/raspiOS/src/arch/common_aarch64/exception/exceptions.cpp" 1
	ldp x9,x10,[sp],#16 
	
// 0 "" 2
// 127 "D:/Pool/eclipse-workspace_aarch64/newspace/raspiOS/src/arch/common_aarch64/exception/exceptions.cpp" 1
	ldp x11,x12,[sp],#16 
	
// 0 "" 2
// 127 "D:/Pool/eclipse-workspace_aarch64/newspace/raspiOS/src/arch/common_aarch64/exception/exceptions.cpp" 1
	ldp x13,x14,[sp],#16 
	
// 0 "" 2
// 127 "D:/Pool/eclipse-workspace_aarch64/newspace/raspiOS/src/arch/common_aarch64/exception/exceptions.cpp" 1
	ldp x15,x16,[sp],#16 
	
// 0 "" 2
// 127 "D:/Pool/eclipse-workspace_aarch64/newspace/raspiOS/src/arch/common_aarch64/exception/exceptions.cpp" 1
	ldp x17,x18,[sp],#16 
	
// 0 "" 2
// 127 "D:/Pool/eclipse-workspace_aarch64/newspace/raspiOS/src/arch/common_aarch64/exception/exceptions.cpp" 1
	ldp x19,x20,[sp],#16 
	
// 0 "" 2
// 127 "D:/Pool/eclipse-workspace_aarch64/newspace/raspiOS/src/arch/common_aarch64/exception/exceptions.cpp" 1
	ldp x21,x22,[sp],#16 
	
// 0 "" 2
// 127 "D:/Pool/eclipse-workspace_aarch64/newspace/raspiOS/src/arch/common_aarch64/exception/exceptions.cpp" 1
	ldp x23,x24,[sp],#16 
	
// 0 "" 2
// 127 "D:/Pool/eclipse-workspace_aarch64/newspace/raspiOS/src/arch/common_aarch64/exception/exceptions.cpp" 1
	ldp x25,x26,[sp],#16 
	
// 0 "" 2
// 127 "D:/Pool/eclipse-workspace_aarch64/newspace/raspiOS/src/arch/common_aarch64/exception/exceptions.cpp" 1
	ldp x27,x28,[sp],#16 
	
// 0 "" 2
// 127 "D:/Pool/eclipse-workspace_aarch64/newspace/raspiOS/src/arch/common_aarch64/exception/exceptions.cpp" 1
	ldp x29,x30,[sp],#16 
	
// 0 "" 2
	// End of user assembly
.LBB143:
.LBB144:
	.loc 2 54 0
	// Start of user assembly
// 54 "D:\Pool\eclipse-workspace_aarch64\newspace\raspiOS\include/asm_instructions.h" 1
	eret 
	
// 0 "" 2
	// End of user assembly
.LBE144:
.LBE143:
	.loc 1 129 0
	ret
	.cfi_endproc
.LFE748:
	.size	_Z26enterFIQEL1ExceptionHandlev, .-_Z26enterFIQEL1ExceptionHandlev
	.align	2
	.global	_Z29enterSErrorEL1ExceptionHandlev
	.type	_Z29enterSErrorEL1ExceptionHandlev, %function
_Z29enterSErrorEL1ExceptionHandlev:
.LFB749:
	.loc 1 132 0
	.cfi_startproc
.L8:
	.loc 1 134 0
	// Start of user assembly
// 134 "D:/Pool/eclipse-workspace_aarch64/newspace/raspiOS/src/arch/common_aarch64/exception/exceptions.cpp" 1
	enterSErrorEL1ExceptionHandle_no_prologue: 
	
// 0 "" 2
	.loc 1 135 0
// 135 "D:/Pool/eclipse-workspace_aarch64/newspace/raspiOS/src/arch/common_aarch64/exception/exceptions.cpp" 1
	stp x29,x30,[sp,#-16]! 
	
// 0 "" 2
// 135 "D:/Pool/eclipse-workspace_aarch64/newspace/raspiOS/src/arch/common_aarch64/exception/exceptions.cpp" 1
	stp x27,x28,[sp,#-16]! 
	
// 0 "" 2
// 135 "D:/Pool/eclipse-workspace_aarch64/newspace/raspiOS/src/arch/common_aarch64/exception/exceptions.cpp" 1
	stp x25,x26,[sp,#-16]! 
	
// 0 "" 2
// 135 "D:/Pool/eclipse-workspace_aarch64/newspace/raspiOS/src/arch/common_aarch64/exception/exceptions.cpp" 1
	stp x23,x24,[sp,#-16]! 
	
// 0 "" 2
// 135 "D:/Pool/eclipse-workspace_aarch64/newspace/raspiOS/src/arch/common_aarch64/exception/exceptions.cpp" 1
	stp x21,x22,[sp,#-16]! 
	
// 0 "" 2
// 135 "D:/Pool/eclipse-workspace_aarch64/newspace/raspiOS/src/arch/common_aarch64/exception/exceptions.cpp" 1
	stp x19,x20,[sp,#-16]! 
	
// 0 "" 2
// 135 "D:/Pool/eclipse-workspace_aarch64/newspace/raspiOS/src/arch/common_aarch64/exception/exceptions.cpp" 1
	stp x17,x18,[sp,#-16]! 
	
// 0 "" 2
// 135 "D:/Pool/eclipse-workspace_aarch64/newspace/raspiOS/src/arch/common_aarch64/exception/exceptions.cpp" 1
	stp x15,x16,[sp,#-16]! 
	
// 0 "" 2
// 135 "D:/Pool/eclipse-workspace_aarch64/newspace/raspiOS/src/arch/common_aarch64/exception/exceptions.cpp" 1
	stp x13,x14,[sp,#-16]! 
	
// 0 "" 2
// 135 "D:/Pool/eclipse-workspace_aarch64/newspace/raspiOS/src/arch/common_aarch64/exception/exceptions.cpp" 1
	stp x11,x12,[sp,#-16]! 
	
// 0 "" 2
// 135 "D:/Pool/eclipse-workspace_aarch64/newspace/raspiOS/src/arch/common_aarch64/exception/exceptions.cpp" 1
	stp x9,x10,[sp,#-16]! 
	
// 0 "" 2
// 135 "D:/Pool/eclipse-workspace_aarch64/newspace/raspiOS/src/arch/common_aarch64/exception/exceptions.cpp" 1
	stp x7,x8,[sp,#-16]! 
	
// 0 "" 2
// 135 "D:/Pool/eclipse-workspace_aarch64/newspace/raspiOS/src/arch/common_aarch64/exception/exceptions.cpp" 1
	stp x5,x6,[sp,#-16]! 
	
// 0 "" 2
// 135 "D:/Pool/eclipse-workspace_aarch64/newspace/raspiOS/src/arch/common_aarch64/exception/exceptions.cpp" 1
	stp x3,x4,[sp,#-16]! 
	
// 0 "" 2
// 135 "D:/Pool/eclipse-workspace_aarch64/newspace/raspiOS/src/arch/common_aarch64/exception/exceptions.cpp" 1
	stp x1,x2,[sp,#-16]! 
	
// 0 "" 2
// 135 "D:/Pool/eclipse-workspace_aarch64/newspace/raspiOS/src/arch/common_aarch64/exception/exceptions.cpp" 1
	str x0,[sp,#-8]! 
	
// 0 "" 2
	.loc 1 138 0
// 138 "D:/Pool/eclipse-workspace_aarch64/newspace/raspiOS/src/arch/common_aarch64/exception/exceptions.cpp" 1
	bl      SErrorEL1Handle 
	
// 0 "" 2
	.loc 1 139 0
// 139 "D:/Pool/eclipse-workspace_aarch64/newspace/raspiOS/src/arch/common_aarch64/exception/exceptions.cpp" 1
	ldr x0,[sp],#8 
	
// 0 "" 2
// 139 "D:/Pool/eclipse-workspace_aarch64/newspace/raspiOS/src/arch/common_aarch64/exception/exceptions.cpp" 1
	ldp x1,x2,[sp],#16 
	
// 0 "" 2
// 139 "D:/Pool/eclipse-workspace_aarch64/newspace/raspiOS/src/arch/common_aarch64/exception/exceptions.cpp" 1
	ldp x3,x4,[sp],#16 
	
// 0 "" 2
// 139 "D:/Pool/eclipse-workspace_aarch64/newspace/raspiOS/src/arch/common_aarch64/exception/exceptions.cpp" 1
	ldp x5,x6,[sp],#16 
	
// 0 "" 2
// 139 "D:/Pool/eclipse-workspace_aarch64/newspace/raspiOS/src/arch/common_aarch64/exception/exceptions.cpp" 1
	ldp x7,x8,[sp],#16 
	
// 0 "" 2
// 139 "D:/Pool/eclipse-workspace_aarch64/newspace/raspiOS/src/arch/common_aarch64/exception/exceptions.cpp" 1
	ldp x9,x10,[sp],#16 
	
// 0 "" 2
// 139 "D:/Pool/eclipse-workspace_aarch64/newspace/raspiOS/src/arch/common_aarch64/exception/exceptions.cpp" 1
	ldp x11,x12,[sp],#16 
	
// 0 "" 2
// 139 "D:/Pool/eclipse-workspace_aarch64/newspace/raspiOS/src/arch/common_aarch64/exception/exceptions.cpp" 1
	ldp x13,x14,[sp],#16 
	
// 0 "" 2
// 139 "D:/Pool/eclipse-workspace_aarch64/newspace/raspiOS/src/arch/common_aarch64/exception/exceptions.cpp" 1
	ldp x15,x16,[sp],#16 
	
// 0 "" 2
// 139 "D:/Pool/eclipse-workspace_aarch64/newspace/raspiOS/src/arch/common_aarch64/exception/exceptions.cpp" 1
	ldp x17,x18,[sp],#16 
	
// 0 "" 2
// 139 "D:/Pool/eclipse-workspace_aarch64/newspace/raspiOS/src/arch/common_aarch64/exception/exceptions.cpp" 1
	ldp x19,x20,[sp],#16 
	
// 0 "" 2
// 139 "D:/Pool/eclipse-workspace_aarch64/newspace/raspiOS/src/arch/common_aarch64/exception/exceptions.cpp" 1
	ldp x21,x22,[sp],#16 
	
// 0 "" 2
// 139 "D:/Pool/eclipse-workspace_aarch64/newspace/raspiOS/src/arch/common_aarch64/exception/exceptions.cpp" 1
	ldp x23,x24,[sp],#16 
	
// 0 "" 2
// 139 "D:/Pool/eclipse-workspace_aarch64/newspace/raspiOS/src/arch/common_aarch64/exception/exceptions.cpp" 1
	ldp x25,x26,[sp],#16 
	
// 0 "" 2
// 139 "D:/Pool/eclipse-workspace_aarch64/newspace/raspiOS/src/arch/common_aarch64/exception/exceptions.cpp" 1
	ldp x27,x28,[sp],#16 
	
// 0 "" 2
// 139 "D:/Pool/eclipse-workspace_aarch64/newspace/raspiOS/src/arch/common_aarch64/exception/exceptions.cpp" 1
	ldp x29,x30,[sp],#16 
	
// 0 "" 2
	// End of user assembly
.LBB145:
.LBB146:
	.loc 2 54 0
	// Start of user assembly
// 54 "D:\Pool\eclipse-workspace_aarch64\newspace\raspiOS\include/asm_instructions.h" 1
	eret 
	
// 0 "" 2
	// End of user assembly
.LBE146:
.LBE145:
	.loc 1 141 0
	ret
	.cfi_endproc
.LFE749:
	.size	_Z29enterSErrorEL1ExceptionHandlev, .-_Z29enterSErrorEL1ExceptionHandlev
	.align	2
	.global	FIQEL1Handle
	.type	FIQEL1Handle, %function
FIQEL1Handle:
.LFB752:
	.loc 1 270 0
	.cfi_startproc
	stp	x29, x30, [sp, -64]!
	.cfi_def_cfa_offset 64
	.cfi_offset 29, -64
	.cfi_offset 30, -56
	add	x29, sp, 0
	.cfi_def_cfa_register 29
	stp	x19, x20, [sp, 16]
	stp	x21, x22, [sp, 32]
	str	x23, [sp, 48]
	.cfi_offset 19, -48
	.cfi_offset 20, -40
	.cfi_offset 21, -32
	.cfi_offset 22, -24
	.cfi_offset 23, -16
	.loc 1 271 0
	adrp	x19, kout
	add	x19, x19, :lo12:kout
	adrp	x1, .LC0
	add	x1, x1, :lo12:.LC0
	mov	x0, x19
	bl	_ZN6OutputlsEPKc
.LVL0:
	adrp	x1, .LC1
	add	x1, x1, :lo12:.LC1
	bl	_ZN6OutputlsEPKc
.LVL1:
.LBB147:
.LBB148:
	.file 3 "D:\\Pool\\eclipse-workspace_aarch64\\newspace\\raspiOS\\include/arch/common_aarch64/gicv3_registers.h"
	.loc 3 425 0
	// Start of user assembly
// 425 "D:\Pool\eclipse-workspace_aarch64\newspace\raspiOS\include/arch/common_aarch64/gicv3_registers.h" 1
	mrs x1,s3_0_c12_c11_3
	
// 0 "" 2
.LVL2:
	// End of user assembly
	and	w21, w1, 255
	lsr	w20, w1, 8
.LVL3:
.LBE148:
.LBE147:
.LBB149:
.LBB150:
	.loc 3 416 0
	adrp	x1, .LC2
.LVL4:
	add	x1, x1, :lo12:.LC2
	mov	x0, x19
	bl	_ZN6OutputlsEPKc
.LVL5:
	.loc 3 417 0
	adrp	x1, .LC3
	add	x1, x1, :lo12:.LC3
	bl	_ZN6OutputlsEPKc
.LVL6:
	mov	w1, w21
	bl	_ZN6OutputlsEj
.LVL7:
	adrp	x22, .LC4
	add	x22, x22, :lo12:.LC4
	mov	x1, x22
	bl	_ZN6OutputlsEPKc
.LVL8:
	.loc 3 418 0
	adrp	x1, .LC5
	add	x1, x1, :lo12:.LC5
	bl	_ZN6OutputlsEPKc
.LVL9:
	mov	w1, w20
	bl	_ZN6OutputlsEj
.LVL10:
	.loc 3 419 0
	adrp	x20, .LC6
	add	x20, x20, :lo12:.LC6
	mov	x1, x20
	bl	_ZN6OutputlsEPKc
.LVL11:
.LBE150:
.LBE149:
.LBB151:
.LBB152:
	.loc 3 297 0
	// Start of user assembly
// 297 "D:\Pool\eclipse-workspace_aarch64\newspace\raspiOS\include/arch/common_aarch64/gicv3_registers.h" 1
	mrs x1,s3_0_c12_c8_0
	
// 0 "" 2
.LVL12:
	// End of user assembly
	ubfx	x23, x1, 0, 24
	lsr	w21, w1, 24
.LVL13:
.LBE152:
.LBE151:
.LBB153:
.LBB154:
	.loc 3 288 0
	adrp	x1, .LC7
.LVL14:
	add	x1, x1, :lo12:.LC7
	mov	x0, x19
	bl	_ZN6OutputlsEPKc
.LVL15:
	.loc 3 289 0
	adrp	x1, .LC8
	add	x1, x1, :lo12:.LC8
	bl	_ZN6OutputlsEPKc
.LVL16:
	mov	w1, w23
	bl	_ZN6OutputlsEj
.LVL17:
	mov	x1, x22
	bl	_ZN6OutputlsEPKc
.LVL18:
	.loc 3 290 0
	adrp	x1, .LC9
	add	x1, x1, :lo12:.LC9
	bl	_ZN6OutputlsEPKc
.LVL19:
	mov	w1, w21
	bl	_ZN6OutputlsEj
.LVL20:
	.loc 3 291 0
	mov	x1, x20
	bl	_ZN6OutputlsEPKc
.LVL21:
.LBE154:
.LBE153:
.LBB155:
.LBB156:
	.loc 3 215 0
	// Start of user assembly
// 215 "D:\Pool\eclipse-workspace_aarch64\newspace\raspiOS\include/arch/common_aarch64/gicv3_registers.h" 1
	msr s3_0_c12_c8_1,x23 
	
// 0 "" 2
.LVL22:
	// End of user assembly
.LBE156:
.LBE155:
	.loc 1 278 0
	ldp	x19, x20, [sp, 16]
	ldp	x21, x22, [sp, 32]
	ldr	x23, [sp, 48]
	ldp	x29, x30, [sp], 64
	.cfi_restore 30
	.cfi_restore 29
	.cfi_restore 23
	.cfi_restore 21
	.cfi_restore 22
	.cfi_restore 19
	.cfi_restore 20
	.cfi_def_cfa 31, 0
	ret
	.cfi_endproc
.LFE752:
	.size	FIQEL1Handle, .-FIQEL1Handle
	.align	2
	.global	SErrorEL1Handle
	.type	SErrorEL1Handle, %function
SErrorEL1Handle:
.LFB753:
	.loc 1 282 0
	.cfi_startproc
	stp	x29, x30, [sp, -16]!
	.cfi_def_cfa_offset 16
	.cfi_offset 29, -16
	.cfi_offset 30, -8
	add	x29, sp, 0
	.cfi_def_cfa_register 29
	.loc 1 283 0
	adrp	x1, .LC0
	add	x1, x1, :lo12:.LC0
	adrp	x0, kout
	add	x0, x0, :lo12:kout
	bl	_ZN6OutputlsEPKc
.LVL23:
	adrp	x1, .LC10
	add	x1, x1, :lo12:.LC10
	bl	_ZN6OutputlsEPKc
.LVL24:
	.loc 1 284 0
	ldp	x29, x30, [sp], 16
	.cfi_restore 30
	.cfi_restore 29
	.cfi_def_cfa 31, 0
	ret
	.cfi_endproc
.LFE753:
	.size	SErrorEL1Handle, .-SErrorEL1Handle
	.section	.text._ZlsILi16EER6OutputS1_RK16IntegerFormatterIXT_EE,"axG",@progbits,_ZlsILi16EER6OutputS1_RK16IntegerFormatterIXT_EE,comdat
	.align	2
	.weak	_ZlsILi16EER6OutputS1_RK16IntegerFormatterIXT_EE
	.type	_ZlsILi16EER6OutputS1_RK16IntegerFormatterIXT_EE, %function
_ZlsILi16EER6OutputS1_RK16IntegerFormatterIXT_EE:
.LFB757:
	.file 4 "D:\\Pool\\eclipse-workspace_aarch64\\newspace\\raspiOS\\include/templates_implementation/IntegerFormatter.h"
	.loc 4 31 0
	.cfi_startproc
.LVL25:
	stp	x29, x30, [sp, -32]!
	.cfi_def_cfa_offset 32
	.cfi_offset 29, -32
	.cfi_offset 30, -24
	add	x29, sp, 0
	.cfi_def_cfa_register 29
	stp	x19, x20, [sp, 16]
	.cfi_offset 19, -16
	.cfi_offset 20, -8
	mov	x20, x0
.LVL26:
.LBB159:
.LBB160:
	.loc 4 26 0
	adrp	x19, koutBuf
	add	x19, x19, :lo12:koutBuf
	ldr	x0, [x1]
.LVL27:
	mov	x3, 65
	mov	x2, x19
	mov	w1, 16
.LVL28:
	bl	_Z4itosmjPcm
.LVL29:
.LBE160:
.LBE159:
	.loc 4 33 0
	mov	x1, x19
	mov	x0, x20
	bl	_ZN6OutputlsEPKc
.LVL30:
	.loc 4 35 0
	mov	x0, x20
	ldp	x19, x20, [sp, 16]
.LVL31:
	ldp	x29, x30, [sp], 32
	.cfi_restore 30
	.cfi_restore 29
	.cfi_restore 19
	.cfi_restore 20
	.cfi_def_cfa 31, 0
	ret
	.cfi_endproc
.LFE757:
	.size	_ZlsILi16EER6OutputS1_RK16IntegerFormatterIXT_EE, .-_ZlsILi16EER6OutputS1_RK16IntegerFormatterIXT_EE
	.text
	.align	2
	.global	SynchronousEL1Handle
	.type	SynchronousEL1Handle, %function
SynchronousEL1Handle:
.LFB750:
	.loc 1 150 0
	.cfi_startproc
.LVL32:
	stp	x29, x30, [sp, -288]!
	.cfi_def_cfa_offset 288
	.cfi_offset 29, -288
	.cfi_offset 30, -280
	add	x29, sp, 0
	.cfi_def_cfa_register 29
	stp	x19, x20, [sp, 16]
	stp	x21, x22, [sp, 32]
	stp	x23, x24, [sp, 48]
	stp	x25, x26, [sp, 64]
	stp	x27, x28, [sp, 80]
	.cfi_offset 19, -272
	.cfi_offset 20, -264
	.cfi_offset 21, -256
	.cfi_offset 22, -248
	.cfi_offset 23, -240
	.cfi_offset 24, -232
	.cfi_offset 25, -224
	.cfi_offset 26, -216
	.cfi_offset 27, -208
	.cfi_offset 28, -200
	mov	x24, x0
	.loc 1 151 0
	adrp	x19, .LC0
	add	x19, x19, :lo12:.LC0
	adrp	x21, kout
	add	x21, x21, :lo12:kout
	mov	x1, x19
	mov	x0, x21
.LVL33:
	bl	_ZN6OutputlsEPKc
.LVL34:
	adrp	x1, .LC11
	add	x1, x1, :lo12:.LC11
	bl	_ZN6OutputlsEPKc
.LVL35:
.LBB225:
.LBB226:
	.file 5 "D:\\Pool\\eclipse-workspace_aarch64\\newspace\\raspiOS\\include/arch/common_aarch64/system_common_registers.h"
	.loc 5 25 0
	// Start of user assembly
// 25 "D:\Pool\eclipse-workspace_aarch64\newspace\raspiOS\include/arch/common_aarch64/system_common_registers.h" 1
	mrs x20,CurrentEL
	
// 0 "" 2
.LVL36:
	// End of user assembly
	ubfx	x20, x20, 2, 2
.LVL37:
.LBE226:
.LBE225:
	.loc 1 153 0
	mov	x1, x19
	mov	x0, x21
	bl	_ZN6OutputlsEPKc
.LVL38:
	adrp	x1, .LC12
	add	x1, x1, :lo12:.LC12
	bl	_ZN6OutputlsEPKc
.LVL39:
	mov	w1, w20
	bl	_ZN6OutputlsEj
.LVL40:
	adrp	x22, .LC6
	add	x22, x22, :lo12:.LC6
	mov	x1, x22
	bl	_ZN6OutputlsEPKc
.LVL41:
.LBB227:
.LBB228:
	.loc 5 311 0
	// Start of user assembly
// 311 "D:\Pool\eclipse-workspace_aarch64\newspace\raspiOS\include/arch/common_aarch64/system_common_registers.h" 1
	mrs x20,SPSR_EL1
	
// 0 "" 2
.LVL42:
	// End of user assembly
	ubfx	x20, x20, 2, 2
.LVL43:
.LBE228:
.LBE227:
	.loc 1 155 0
	mov	x1, x19
	mov	x0, x21
	bl	_ZN6OutputlsEPKc
.LVL44:
	adrp	x1, .LC13
	add	x1, x1, :lo12:.LC13
	bl	_ZN6OutputlsEPKc
.LVL45:
	mov	w1, w20
	bl	_ZN6OutputlsEj
.LVL46:
	mov	x1, x22
	bl	_ZN6OutputlsEPKc
.LVL47:
.LBB229:
.LBB230:
	.loc 5 311 0
	// Start of user assembly
// 311 "D:\Pool\eclipse-workspace_aarch64\newspace\raspiOS\include/arch/common_aarch64/system_common_registers.h" 1
	mrs x0,SPSR_EL1
	
// 0 "" 2
.LVL48:
	// End of user assembly
	and	w1, w0, 1
	str	w1, [x29, 252]
	ubfx	x2, x0, 1, 1
	str	x2, [x29, 240]
	ubfx	x2, x0, 2, 2
	str	x2, [x29, 232]
	ubfx	x2, x0, 4, 1
	str	x2, [x29, 224]
	ubfx	x2, x0, 5, 1
	str	x2, [x29, 216]
	ubfx	x2, x0, 6, 1
	str	x2, [x29, 208]
	ubfx	x2, x0, 7, 1
	str	x2, [x29, 200]
	ubfx	x2, x0, 8, 1
	str	x2, [x29, 192]
	ubfx	x2, x0, 9, 1
	str	x2, [x29, 184]
	ubfx	x2, x0, 10, 10
	str	x2, [x29, 176]
	ubfx	x2, x0, 20, 1
	str	x2, [x29, 168]
	ubfx	x2, x0, 21, 1
	str	x2, [x29, 160]
	ubfx	x2, x0, 22, 1
	str	x2, [x29, 152]
	ubfx	x2, x0, 23, 1
	str	x2, [x29, 144]
	ubfx	x2, x0, 24, 4
	str	x2, [x29, 136]
	ubfx	x2, x0, 28, 1
	str	x2, [x29, 128]
	ubfx	x28, x0, 29, 1
	ubfx	x2, x0, 30, 1
	str	x2, [x29, 120]
	lsr	w0, w0, 31
.LVL49:
	str	x0, [x29, 112]
.LVL50:
.LBE230:
.LBE229:
.LBB231:
.LBB232:
	.loc 5 153 0
	// Start of user assembly
// 153 "D:\Pool\eclipse-workspace_aarch64\newspace\raspiOS\include/arch/common_aarch64/system_common_registers.h" 1
	mrs x0,ESR_EL1
	
// 0 "" 2
.LVL51:
	// End of user assembly
	ubfx	x25, x0, 0, 25
	ubfx	x2, x0, 25, 1
	str	x2, [x29, 104]
	lsr	w27, w0, 26
	and	w20, w27, 255
.LVL52:
.LBE232:
.LBE231:
.LBB233:
.LBB234:
	.loc 5 143 0
	adrp	x1, .LC14
	add	x1, x1, :lo12:.LC14
	mov	x0, x21
.LVL53:
	bl	_ZN6OutputlsEPKc
.LVL54:
	.loc 5 144 0
	adrp	x1, .LC15
	add	x1, x1, :lo12:.LC15
	bl	_ZN6OutputlsEPKc
.LVL55:
	uxtw	x23, w25
.LVL56:
.LBB235:
.LBB236:
.LBB237:
	.loc 4 17 0
	add	x1, x29, 288
	str	x23, [x1, -8]!
.LVL57:
.LBE237:
.LBE236:
.LBE235:
	.loc 5 144 0
	bl	_ZlsILi16EER6OutputS1_RK16IntegerFormatterIXT_EE
.LVL58:
	adrp	x19, .LC4
	add	x19, x19, :lo12:.LC4
	mov	x1, x19
	bl	_ZN6OutputlsEPKc
.LVL59:
	.loc 5 145 0
	adrp	x1, .LC16
	add	x26, x1, :lo12:.LC16
	mov	x1, x26
	bl	_ZN6OutputlsEPKc
.LVL60:
	ldr	w1, [x29, 104]
	bl	_ZN6OutputlsEj
.LVL61:
	mov	x1, x19
	bl	_ZN6OutputlsEPKc
.LVL62:
	.loc 5 146 0
	adrp	x1, .LC17
	add	x1, x1, :lo12:.LC17
	bl	_ZN6OutputlsEPKc
.LVL63:
	and	x2, x27, 255
.LVL64:
	add	x1, x29, 288
	str	x2, [x1, -16]!
.LVL65:
	bl	_ZlsILi16EER6OutputS1_RK16IntegerFormatterIXT_EE
.LVL66:
	.loc 5 147 0
	mov	x1, x22
	bl	_ZN6OutputlsEPKc
.LVL67:
.LBE234:
.LBE233:
.LBB238:
.LBB239:
	.loc 5 84 0
	adrp	x1, .LC18
	add	x1, x1, :lo12:.LC18
	mov	x0, x21
	bl	_ZN6OutputlsEPKc
.LVL68:
	.loc 5 85 0
	adrp	x1, .LC19
	add	x1, x1, :lo12:.LC19
	bl	_ZN6OutputlsEPKc
.LVL69:
.LBB240:
.LBB241:
.LBB242:
	.loc 4 17 0
	add	x1, x29, 288
	// Start of user assembly
// 92 "D:\Pool\eclipse-workspace_aarch64\newspace\raspiOS\include/arch/common_aarch64/system_common_registers.h" 1
	mrs x2,ELR_EL1
	
// 0 "" 2
.LVL70:
	// End of user assembly
	str	x2, [x1, -24]!
.LVL71:
.LBE242:
.LBE241:
.LBE240:
	.loc 5 85 0
	bl	_ZlsILi16EER6OutputS1_RK16IntegerFormatterIXT_EE
.LVL72:
	.loc 5 86 0
	mov	x1, x22
	bl	_ZN6OutputlsEPKc
.LVL73:
.LBE239:
.LBE238:
.LBB243:
.LBB244:
	.loc 5 210 0
	adrp	x1, .LC20
	add	x1, x1, :lo12:.LC20
	mov	x0, x21
	bl	_ZN6OutputlsEPKc
.LVL74:
	.loc 5 211 0
	adrp	x1, .LC21
	add	x1, x1, :lo12:.LC21
	bl	_ZN6OutputlsEPKc
.LVL75:
.LBB245:
.LBB246:
.LBB247:
	.loc 4 17 0
	add	x1, x29, 288
	// Start of user assembly
// 218 "D:\Pool\eclipse-workspace_aarch64\newspace\raspiOS\include/arch/common_aarch64/system_common_registers.h" 1
	mrs x2,FAR_EL1
	
// 0 "" 2
.LVL76:
	// End of user assembly
	str	x2, [x1, -32]!
.LVL77:
.LBE247:
.LBE246:
.LBE245:
	.loc 5 211 0
	bl	_ZlsILi16EER6OutputS1_RK16IntegerFormatterIXT_EE
.LVL78:
	.loc 5 212 0
	mov	x1, x22
	bl	_ZN6OutputlsEPKc
.LVL79:
.LBE244:
.LBE243:
.LBB248:
.LBB249:
	.loc 5 285 0
	adrp	x1, .LC22
	add	x1, x1, :lo12:.LC22
	mov	x0, x21
	bl	_ZN6OutputlsEPKc
.LVL80:
	.loc 5 286 0
	adrp	x1, .LC23
	add	x1, x1, :lo12:.LC23
	bl	_ZN6OutputlsEPKc
.LVL81:
	ldr	w1, [x29, 252]
	bl	_ZN6OutputlsEj
.LVL82:
	mov	x1, x19
	bl	_ZN6OutputlsEPKc
.LVL83:
	.loc 5 287 0
	adrp	x1, .LC5
	add	x1, x1, :lo12:.LC5
	bl	_ZN6OutputlsEPKc
.LVL84:
	ldr	w1, [x29, 240]
	bl	_ZN6OutputlsEj
.LVL85:
	mov	x1, x19
	bl	_ZN6OutputlsEPKc
.LVL86:
	.loc 5 288 0
	adrp	x1, .LC24
	add	x1, x1, :lo12:.LC24
	bl	_ZN6OutputlsEPKc
.LVL87:
	ldr	w1, [x29, 232]
	bl	_ZN6OutputlsEj
.LVL88:
	mov	x1, x19
	bl	_ZN6OutputlsEPKc
.LVL89:
	.loc 5 289 0
	adrp	x1, .LC25
	add	x1, x1, :lo12:.LC25
	bl	_ZN6OutputlsEPKc
.LVL90:
	ldr	w1, [x29, 224]
	bl	_ZN6OutputlsEj
.LVL91:
	mov	x1, x19
	bl	_ZN6OutputlsEPKc
.LVL92:
	.loc 5 290 0
	adrp	x1, .LC26
	add	x1, x1, :lo12:.LC26
	bl	_ZN6OutputlsEPKc
.LVL93:
	ldr	w1, [x29, 216]
	bl	_ZN6OutputlsEj
.LVL94:
	mov	x1, x19
	bl	_ZN6OutputlsEPKc
.LVL95:
	.loc 5 291 0
	adrp	x1, .LC27
	add	x1, x1, :lo12:.LC27
	bl	_ZN6OutputlsEPKc
.LVL96:
	ldr	w1, [x29, 208]
	bl	_ZN6OutputlsEj
.LVL97:
	mov	x1, x19
	bl	_ZN6OutputlsEPKc
.LVL98:
	.loc 5 292 0
	adrp	x1, .LC28
	add	x1, x1, :lo12:.LC28
	bl	_ZN6OutputlsEPKc
.LVL99:
	ldr	w1, [x29, 200]
	bl	_ZN6OutputlsEj
.LVL100:
	mov	x1, x19
	bl	_ZN6OutputlsEPKc
.LVL101:
	.loc 5 293 0
	adrp	x1, .LC29
	add	x1, x1, :lo12:.LC29
	bl	_ZN6OutputlsEPKc
.LVL102:
	ldr	w1, [x29, 192]
	bl	_ZN6OutputlsEj
.LVL103:
	mov	x1, x19
	bl	_ZN6OutputlsEPKc
.LVL104:
	.loc 5 294 0
	adrp	x1, .LC30
	add	x1, x1, :lo12:.LC30
	bl	_ZN6OutputlsEPKc
.LVL105:
	ldr	w1, [x29, 184]
	bl	_ZN6OutputlsEj
.LVL106:
	mov	x1, x19
	bl	_ZN6OutputlsEPKc
.LVL107:
	.loc 5 295 0
	adrp	x1, .LC31
	add	x1, x1, :lo12:.LC31
	bl	_ZN6OutputlsEPKc
.LVL108:
	ldr	w1, [x29, 176]
	bl	_ZN6OutputlsEj
.LVL109:
	mov	x1, x19
	bl	_ZN6OutputlsEPKc
.LVL110:
	.loc 5 296 0
	mov	x1, x26
	bl	_ZN6OutputlsEPKc
.LVL111:
	ldr	w1, [x29, 168]
	bl	_ZN6OutputlsEj
.LVL112:
	mov	x1, x19
	bl	_ZN6OutputlsEPKc
.LVL113:
	.loc 5 297 0
	adrp	x1, .LC32
	add	x1, x1, :lo12:.LC32
	bl	_ZN6OutputlsEPKc
.LVL114:
	ldr	w1, [x29, 160]
	bl	_ZN6OutputlsEj
.LVL115:
	mov	x1, x19
	bl	_ZN6OutputlsEPKc
.LVL116:
	.loc 5 298 0
	adrp	x1, .LC33
	add	x1, x1, :lo12:.LC33
	bl	_ZN6OutputlsEPKc
.LVL117:
	ldr	w1, [x29, 152]
	bl	_ZN6OutputlsEj
.LVL118:
	mov	x1, x19
	bl	_ZN6OutputlsEPKc
.LVL119:
	.loc 5 299 0
	adrp	x1, .LC34
	add	x1, x1, :lo12:.LC34
	bl	_ZN6OutputlsEPKc
.LVL120:
	ldr	w1, [x29, 144]
	bl	_ZN6OutputlsEj
.LVL121:
	mov	x1, x19
	bl	_ZN6OutputlsEPKc
.LVL122:
	.loc 5 300 0
	adrp	x1, .LC35
	add	x1, x1, :lo12:.LC35
	bl	_ZN6OutputlsEPKc
.LVL123:
	ldr	w1, [x29, 136]
	bl	_ZN6OutputlsEj
.LVL124:
	mov	x1, x19
	bl	_ZN6OutputlsEPKc
.LVL125:
	.loc 5 301 0
	adrp	x1, .LC36
	add	x1, x1, :lo12:.LC36
	bl	_ZN6OutputlsEPKc
.LVL126:
	ldr	w1, [x29, 128]
	bl	_ZN6OutputlsEj
.LVL127:
	mov	x1, x19
	bl	_ZN6OutputlsEPKc
.LVL128:
	.loc 5 302 0
	adrp	x1, .LC37
	add	x1, x1, :lo12:.LC37
	bl	_ZN6OutputlsEPKc
.LVL129:
	mov	w1, w28
	bl	_ZN6OutputlsEj
.LVL130:
	mov	x1, x19
	bl	_ZN6OutputlsEPKc
.LVL131:
	.loc 5 303 0
	adrp	x1, .LC38
	add	x1, x1, :lo12:.LC38
	bl	_ZN6OutputlsEPKc
.LVL132:
	ldr	w1, [x29, 120]
	bl	_ZN6OutputlsEj
.LVL133:
	mov	x1, x19
	bl	_ZN6OutputlsEPKc
.LVL134:
	.loc 5 304 0
	adrp	x1, .LC39
	add	x1, x1, :lo12:.LC39
	bl	_ZN6OutputlsEPKc
.LVL135:
	ldr	w1, [x29, 112]
	bl	_ZN6OutputlsEj
.LVL136:
	.loc 5 305 0
	mov	x1, x22
	bl	_ZN6OutputlsEPKc
.LVL137:
.LBE249:
.LBE248:
.LBB250:
	.loc 1 165 0
	lsl	w20, w20, 2
	cbz	w20, .L33
.LBB251:
	.loc 1 171 0
	cmp	w20, 84
	beq	.L34
.LBB252:
	.loc 1 182 0
	cmp	w20, 128
	beq	.L35
	.loc 1 195 0
	cmp	w20, 144
	beq	.L36
	.loc 1 199 0
	cmp	w20, 136
	beq	.L37
	.loc 1 203 0
	cmp	w20, 152
	beq	.L38
	.loc 1 207 0
	cmp	w20, 188
	beq	.L39
	.loc 1 212 0
	adrp	x1, .LC0
	add	x1, x1, :lo12:.LC0
	adrp	x0, kout
	add	x0, x0, :lo12:kout
	bl	_ZN6OutputlsEPKc
.LVL138:
	adrp	x1, .LC51
	add	x1, x1, :lo12:.LC51
	bl	_ZN6OutputlsEPKc
.LVL139:
.L31:
.LBB253:
.LBB254:
.LBB255:
	.loc 2 67 0
	// Start of user assembly
// 67 "D:\Pool\eclipse-workspace_aarch64\newspace\raspiOS\include/asm_instructions.h" 1
	wfe 
	
// 0 "" 2
	// End of user assembly
	b	.L31
.L33:
.LBE255:
.LBE254:
.LBE253:
.LBE252:
.LBE251:
	.loc 1 167 0
	adrp	x20, .LC0
	add	x20, x20, :lo12:.LC0
	mov	x1, x20
	mov	x0, x21
	bl	_ZN6OutputlsEPKc
.LVL140:
	adrp	x1, .LC40
	add	x1, x1, :lo12:.LC40
	bl	_ZN6OutputlsEPKc
.LVL141:
	.loc 1 168 0
	mov	x1, x20
	mov	x0, x21
	bl	_ZN6OutputlsEPKc
.LVL142:
	adrp	x1, .LC41
	add	x1, x1, :lo12:.LC41
	bl	_ZN6OutputlsEPKc
.LVL143:
.L17:
.LBB280:
.LBB281:
.LBB282:
	.loc 2 67 0
	// Start of user assembly
// 67 "D:\Pool\eclipse-workspace_aarch64\newspace\raspiOS\include/asm_instructions.h" 1
	wfe 
	
// 0 "" 2
	// End of user assembly
	b	.L17
.L34:
.LBE282:
.LBE281:
.LBE280:
.LBB283:
.LBB276:
	.loc 1 173 0
	and	w19, w25, 65535
.LVL144:
	.loc 1 174 0
	adrp	x1, .LC0
	add	x1, x1, :lo12:.LC0
	adrp	x0, kout
	add	x0, x0, :lo12:kout
	bl	_ZN6OutputlsEPKc
.LVL145:
	adrp	x1, .LC42
	add	x1, x1, :lo12:.LC42
	bl	_ZN6OutputlsEPKc
.LVL146:
	mov	w1, w19
	bl	_ZN6OutputlsEt
.LVL147:
	adrp	x1, .LC6
	add	x1, x1, :lo12:.LC6
	bl	_ZN6OutputlsEPKc
.LVL148:
.LBB277:
	.loc 1 175 0
	cbnz	w19, .L15
.LVL149:
.LBB278:
	.loc 1 179 0
	ldr	x2, [x24, 8]
	ldr	x1, [x24]
	adrp	x0, kout
	add	x0, x0, :lo12:kout
	bl	_ZN6Output5printEPKcm
.LVL150:
	.loc 1 180 0
	str	x0, [x24]
.LVL151:
.L15:
.LBE278:
.LBE277:
.LBE276:
.LBE283:
.LBE250:
	.loc 1 215 0
	ldp	x19, x20, [sp, 16]
.LVL152:
	ldp	x21, x22, [sp, 32]
	ldp	x23, x24, [sp, 48]
.LVL153:
	ldp	x25, x26, [sp, 64]
.LVL154:
	ldp	x27, x28, [sp, 80]
.LVL155:
	ldp	x29, x30, [sp], 288
	.cfi_remember_state
	.cfi_restore 30
	.cfi_restore 29
	.cfi_restore 27
	.cfi_restore 28
	.cfi_restore 25
	.cfi_restore 26
	.cfi_restore 23
	.cfi_restore 24
	.cfi_restore 21
	.cfi_restore 22
	.cfi_restore 19
	.cfi_restore 20
	.cfi_def_cfa 31, 0
	ret
.LVL156:
.L35:
	.cfi_restore_state
.LBB285:
.LBB284:
.LBB279:
.LBB256:
	.loc 1 183 0
	adrp	x19, kout
	add	x19, x19, :lo12:kout
	adrp	x1, .LC43
	add	x1, x1, :lo12:.LC43
	mov	x0, x19
	bl	_ZN6OutputlsEPKc
.LVL157:
.LBB257:
.LBB258:
	.file 6 "D:\\Pool\\eclipse-workspace_aarch64\\newspace\\raspiOS\\include/generic_util.h"
	.loc 6 75 0
	ubfx	x23, x23, 10, 1
.LVL158:
.LBE258:
.LBE257:
	.loc 1 188 0
	adrp	x1, .LC44
	add	x1, x1, :lo12:.LC44
	mov	x0, x19
	bl	_ZN6OutputlsEPKc
.LVL159:
	mov	w1, w23
	bl	_ZN6OutputlsEi
.LVL160:
	adrp	x1, .LC6
	add	x1, x1, :lo12:.LC6
	bl	_ZN6OutputlsEPKc
.LVL161:
	.loc 1 189 0
	cbnz	x23, .L21
	.loc 1 191 0
	adrp	x1, .LC0
	add	x1, x1, :lo12:.LC0
	mov	x0, x19
	bl	_ZN6OutputlsEPKc
.LVL162:
	adrp	x1, .LC45
	add	x1, x1, :lo12:.LC45
	bl	_ZN6OutputlsEPKc
.LVL163:
.LBB259:
.LBB260:
	.loc 5 218 0
	// Start of user assembly
// 218 "D:\Pool\eclipse-workspace_aarch64\newspace\raspiOS\include/arch/common_aarch64/system_common_registers.h" 1
	mrs x1,FAR_EL1
	
// 0 "" 2
.LVL164:
	// End of user assembly
.LBE260:
.LBE259:
	.loc 1 191 0
	bl	_ZN6OutputlsEm
.LVL165:
	adrp	x1, .LC6
	add	x1, x1, :lo12:.LC6
	bl	_ZN6OutputlsEPKc
.LVL166:
.L21:
	.loc 1 193 0
	adrp	x1, .LC41
	add	x1, x1, :lo12:.LC41
	adrp	x0, kout
	add	x0, x0, :lo12:kout
	bl	_ZN6OutputlsEPKc
.LVL167:
.L22:
.LBB261:
.LBB262:
.LBB263:
	.loc 2 67 0
	// Start of user assembly
// 67 "D:\Pool\eclipse-workspace_aarch64\newspace\raspiOS\include/asm_instructions.h" 1
	wfe 
	
// 0 "" 2
	// End of user assembly
	b	.L22
.LVL168:
.L36:
.LBE263:
.LBE262:
.LBE261:
.LBE256:
	.loc 1 196 0
	adrp	x20, .LC0
	add	x20, x20, :lo12:.LC0
	adrp	x19, kout
	add	x19, x19, :lo12:kout
	mov	x1, x20
	mov	x0, x19
	bl	_ZN6OutputlsEPKc
.LVL169:
	adrp	x1, .LC46
	add	x1, x1, :lo12:.LC46
	bl	_ZN6OutputlsEPKc
.LVL170:
	.loc 1 197 0
	mov	x1, x20
	mov	x0, x19
	bl	_ZN6OutputlsEPKc
.LVL171:
	adrp	x1, .LC41
	add	x1, x1, :lo12:.LC41
	bl	_ZN6OutputlsEPKc
.LVL172:
.L24:
.LBB264:
.LBB265:
.LBB266:
	.loc 2 67 0
	// Start of user assembly
// 67 "D:\Pool\eclipse-workspace_aarch64\newspace\raspiOS\include/asm_instructions.h" 1
	wfe 
	
// 0 "" 2
	// End of user assembly
	b	.L24
.L37:
.LBE266:
.LBE265:
.LBE264:
	.loc 1 200 0
	adrp	x20, .LC0
	add	x20, x20, :lo12:.LC0
	adrp	x19, kout
	add	x19, x19, :lo12:kout
	mov	x1, x20
	mov	x0, x19
	bl	_ZN6OutputlsEPKc
.LVL173:
	adrp	x1, .LC47
	add	x1, x1, :lo12:.LC47
	bl	_ZN6OutputlsEPKc
.LVL174:
	.loc 1 201 0
	mov	x1, x20
	mov	x0, x19
	bl	_ZN6OutputlsEPKc
.LVL175:
	adrp	x1, .LC41
	add	x1, x1, :lo12:.LC41
	bl	_ZN6OutputlsEPKc
.LVL176:
.L26:
.LBB267:
.LBB268:
.LBB269:
	.loc 2 67 0
	// Start of user assembly
// 67 "D:\Pool\eclipse-workspace_aarch64\newspace\raspiOS\include/asm_instructions.h" 1
	wfe 
	
// 0 "" 2
	// End of user assembly
	b	.L26
.L38:
.LBE269:
.LBE268:
.LBE267:
	.loc 1 204 0
	adrp	x20, .LC0
	add	x20, x20, :lo12:.LC0
	adrp	x19, kout
	add	x19, x19, :lo12:kout
	mov	x1, x20
	mov	x0, x19
	bl	_ZN6OutputlsEPKc
.LVL177:
	adrp	x1, .LC48
	add	x1, x1, :lo12:.LC48
	bl	_ZN6OutputlsEPKc
.LVL178:
	.loc 1 205 0
	mov	x1, x20
	mov	x0, x19
	bl	_ZN6OutputlsEPKc
.LVL179:
	adrp	x1, .LC49
	add	x1, x1, :lo12:.LC49
	bl	_ZN6OutputlsEPKc
.LVL180:
.L28:
.LBB270:
.LBB271:
.LBB272:
	.loc 2 67 0
	// Start of user assembly
// 67 "D:\Pool\eclipse-workspace_aarch64\newspace\raspiOS\include/asm_instructions.h" 1
	wfe 
	
// 0 "" 2
	// End of user assembly
	b	.L28
.L39:
.LBE272:
.LBE271:
.LBE270:
	.loc 1 208 0
	adrp	x20, .LC0
	add	x20, x20, :lo12:.LC0
	adrp	x19, kout
	add	x19, x19, :lo12:kout
	mov	x1, x20
	mov	x0, x19
	bl	_ZN6OutputlsEPKc
.LVL181:
	adrp	x1, .LC50
	add	x1, x1, :lo12:.LC50
	bl	_ZN6OutputlsEPKc
.LVL182:
	.loc 1 209 0
	mov	x1, x20
	mov	x0, x19
	bl	_ZN6OutputlsEPKc
.LVL183:
	adrp	x1, .LC41
	add	x1, x1, :lo12:.LC41
	bl	_ZN6OutputlsEPKc
.LVL184:
.L30:
.LBB273:
.LBB274:
.LBB275:
	.loc 2 67 0
	// Start of user assembly
// 67 "D:\Pool\eclipse-workspace_aarch64\newspace\raspiOS\include/asm_instructions.h" 1
	wfe 
	
// 0 "" 2
	// End of user assembly
	b	.L30
.LBE275:
.LBE274:
.LBE273:
.LBE279:
.LBE284:
.LBE285:
	.cfi_endproc
.LFE750:
	.size	SynchronousEL1Handle, .-SynchronousEL1Handle
	.align	2
	.global	IRQEL1Handle
	.type	IRQEL1Handle, %function
IRQEL1Handle:
.LFB751:
	.loc 1 219 0
	.cfi_startproc
	stp	x29, x30, [sp, -144]!
	.cfi_def_cfa_offset 144
	.cfi_offset 29, -144
	.cfi_offset 30, -136
	add	x29, sp, 0
	.cfi_def_cfa_register 29
	stp	x19, x20, [sp, 16]
	stp	x21, x22, [sp, 32]
	stp	x23, x24, [sp, 48]
	stp	x25, x26, [sp, 64]
	stp	x27, x28, [sp, 80]
	.cfi_offset 19, -128
	.cfi_offset 20, -120
	.cfi_offset 21, -112
	.cfi_offset 22, -104
	.cfi_offset 23, -96
	.cfi_offset 24, -88
	.cfi_offset 25, -80
	.cfi_offset 26, -72
	.cfi_offset 27, -64
	.cfi_offset 28, -56
	.loc 1 220 0
	adrp	x19, kout
	add	x19, x19, :lo12:kout
	adrp	x1, .LC0
	add	x1, x1, :lo12:.LC0
	mov	x0, x19
	bl	_ZN6OutputlsEPKc
.LVL185:
	adrp	x1, .LC52
	add	x1, x1, :lo12:.LC52
	bl	_ZN6OutputlsEPKc
.LVL186:
.LBB346:
.LBB347:
	.loc 3 318 0
	// Start of user assembly
// 318 "D:\Pool\eclipse-workspace_aarch64\newspace\raspiOS\include/arch/common_aarch64/gicv3_registers.h" 1
	mrs x0,s3_0_c12_c12_0
	
// 0 "" 2
.LVL187:
	// End of user assembly
	ubfx	x24, x0, 0, 24
	lsr	w0, w0, 24
.LVL188:
	str	w0, [x29, 108]
.LVL189:
.LBE347:
.LBE346:
.LBB348:
.LBB349:
	.loc 3 425 0
	// Start of user assembly
// 425 "D:\Pool\eclipse-workspace_aarch64\newspace\raspiOS\include/arch/common_aarch64/gicv3_registers.h" 1
	mrs x1,s3_0_c12_c11_3
	
// 0 "" 2
.LVL190:
	// End of user assembly
	and	w21, w1, 255
	lsr	w20, w1, 8
.LVL191:
.LBE349:
.LBE348:
.LBB350:
.LBB351:
	.loc 3 416 0
	adrp	x1, .LC2
.LVL192:
	add	x1, x1, :lo12:.LC2
	mov	x0, x19
	bl	_ZN6OutputlsEPKc
.LVL193:
	.loc 3 417 0
	adrp	x25, .LC3
	add	x25, x25, :lo12:.LC3
	mov	x1, x25
	bl	_ZN6OutputlsEPKc
.LVL194:
	mov	w1, w21
	bl	_ZN6OutputlsEj
.LVL195:
	adrp	x21, .LC4
	add	x21, x21, :lo12:.LC4
	mov	x1, x21
	bl	_ZN6OutputlsEPKc
.LVL196:
	.loc 3 418 0
	adrp	x23, .LC5
	add	x23, x23, :lo12:.LC5
	mov	x1, x23
	bl	_ZN6OutputlsEPKc
.LVL197:
	mov	w1, w20
	bl	_ZN6OutputlsEj
.LVL198:
	.loc 3 419 0
	adrp	x20, .LC6
	add	x20, x20, :lo12:.LC6
	mov	x1, x20
	bl	_ZN6OutputlsEPKc
.LVL199:
.LBE351:
.LBE350:
.LBB352:
.LBB353:
	.loc 3 404 0
	// Start of user assembly
// 404 "D:\Pool\eclipse-workspace_aarch64\newspace\raspiOS\include/arch/common_aarch64/gicv3_registers.h" 1
	mrs x1,s3_0_c4_c6_0
	
// 0 "" 2
.LVL200:
	// End of user assembly
	and	w26, w1, 255
	lsr	w22, w1, 8
.LVL201:
.LBE353:
.LBE352:
.LBB354:
.LBB355:
	.loc 3 395 0
	adrp	x1, .LC53
.LVL202:
	add	x1, x1, :lo12:.LC53
	mov	x0, x19
	bl	_ZN6OutputlsEPKc
.LVL203:
	.loc 3 396 0
	mov	x1, x25
	bl	_ZN6OutputlsEPKc
.LVL204:
	mov	w1, w26
	bl	_ZN6OutputlsEj
.LVL205:
	mov	x1, x21
	bl	_ZN6OutputlsEPKc
.LVL206:
	.loc 3 397 0
	mov	x1, x23
	bl	_ZN6OutputlsEPKc
.LVL207:
	mov	w1, w22
	bl	_ZN6OutputlsEj
.LVL208:
	.loc 3 398 0
	mov	x1, x20
	bl	_ZN6OutputlsEPKc
.LVL209:
.LBE355:
.LBE354:
.LBB356:
.LBB357:
	.loc 3 2196 0
	mov	x0, 768
	movk	x0, 0x800, lsl 16
	ldr	w25, [x0]
.LVL210:
.LBE357:
.LBE356:
.LBB358:
.LBB359:
	.loc 3 2188 0
	adrp	x1, .LC54
	add	x1, x1, :lo12:.LC54
	mov	x0, x19
	bl	_ZN6OutputlsEPKc
.LVL211:
	.loc 3 2189 0
	adrp	x22, .LC55
	add	x22, x22, :lo12:.LC55
	mov	x1, x22
	bl	_ZN6OutputlsEPKc
.LVL212:
	uxtw	x25, w25
.LVL213:
	add	x1, x29, 144
	str	x25, [x1, -8]!
.LVL214:
	bl	_ZlsILi16EER6OutputS1_RK16IntegerFormatterIXT_EE
.LVL215:
	.loc 3 2190 0
	mov	x1, x20
	bl	_ZN6OutputlsEPKc
.LVL216:
.LBE359:
.LBE358:
.LBB360:
.LBB361:
	.loc 3 704 0
	mov	x0, 768
	movk	x0, 0x80b, lsl 16
	ldr	w25, [x0]
.LVL217:
.LBE361:
.LBE360:
.LBB362:
.LBB363:
	.loc 3 696 0
	adrp	x1, .LC56
	add	x1, x1, :lo12:.LC56
	mov	x0, x19
	bl	_ZN6OutputlsEPKc
.LVL218:
	.loc 3 697 0
	mov	x1, x22
	bl	_ZN6OutputlsEPKc
.LVL219:
	uxtw	x25, w25
.LVL220:
	add	x1, x29, 144
	str	x25, [x1, -16]!
.LVL221:
	bl	_ZlsILi16EER6OutputS1_RK16IntegerFormatterIXT_EE
.LVL222:
	.loc 3 698 0
	mov	x1, x20
	bl	_ZN6OutputlsEPKc
.LVL223:
.LBE363:
.LBE362:
.LBB364:
.LBB365:
	.loc 3 1588 0
	mov	x0, 512
	movk	x0, 0x800, lsl 16
	ldr	w25, [x0]
.LVL224:
.LBE365:
.LBE364:
.LBB366:
.LBB367:
	.loc 3 1580 0
	adrp	x1, .LC57
	add	x1, x1, :lo12:.LC57
	mov	x0, x19
	bl	_ZN6OutputlsEPKc
.LVL225:
	.loc 3 1581 0
	adrp	x22, .LC58
	add	x22, x22, :lo12:.LC58
	mov	x1, x22
	bl	_ZN6OutputlsEPKc
.LVL226:
	uxtw	x25, w25
.LVL227:
	add	x1, x29, 144
	str	x25, [x1, -24]!
.LVL228:
	bl	_ZlsILi16EER6OutputS1_RK16IntegerFormatterIXT_EE
.LVL229:
	.loc 3 1582 0
	mov	x1, x20
	bl	_ZN6OutputlsEPKc
.LVL230:
.LBE367:
.LBE366:
.LBB368:
.LBB369:
	.loc 3 685 0
	mov	x0, 512
	movk	x0, 0x80b, lsl 16
	ldr	w25, [x0]
.LVL231:
.LBE369:
.LBE368:
.LBB370:
.LBB371:
	.loc 3 677 0
	adrp	x1, .LC59
	add	x1, x1, :lo12:.LC59
	mov	x0, x19
	bl	_ZN6OutputlsEPKc
.LVL232:
	.loc 3 678 0
	mov	x1, x22
	bl	_ZN6OutputlsEPKc
.LVL233:
	uxtw	x25, w25
.LVL234:
	add	x1, x29, 144
	str	x25, [x1, -32]!
.LVL235:
	bl	_ZlsILi16EER6OutputS1_RK16IntegerFormatterIXT_EE
.LVL236:
	.loc 3 679 0
	mov	x1, x20
	bl	_ZN6OutputlsEPKc
.LVL237:
.LBE371:
.LBE370:
.LBB372:
.LBB373:
	.loc 5 743 0
	// Start of user assembly
// 743 "D:\Pool\eclipse-workspace_aarch64\newspace\raspiOS\include/arch/common_aarch64/system_common_registers.h" 1
	mrs x22,ISR_EL1
	
// 0 "" 2
.LVL238:
	// End of user assembly
	and	w28, w22, 63
	ubfx	x27, x22, 6, 1
	ubfx	x26, x22, 7, 1
	ubfx	x25, x22, 8, 1
	lsr	w22, w22, 9
.LVL239:
.LBE373:
.LBE372:
.LBB374:
.LBB375:
	.loc 5 731 0
	adrp	x1, .LC60
	add	x1, x1, :lo12:.LC60
	mov	x0, x19
	bl	_ZN6OutputlsEPKc
.LVL240:
	.loc 5 732 0
	mov	x1, x23
	bl	_ZN6OutputlsEPKc
.LVL241:
	mov	w1, w28
	bl	_ZN6OutputlsEj
.LVL242:
	mov	x1, x21
	bl	_ZN6OutputlsEPKc
.LVL243:
	.loc 5 733 0
	adrp	x1, .LC61
	add	x1, x1, :lo12:.LC61
	bl	_ZN6OutputlsEPKc
.LVL244:
	mov	w1, w27
	bl	_ZN6OutputlsEj
.LVL245:
	mov	x1, x21
	bl	_ZN6OutputlsEPKc
.LVL246:
	.loc 5 734 0
	adrp	x1, .LC62
	add	x1, x1, :lo12:.LC62
	bl	_ZN6OutputlsEPKc
.LVL247:
	mov	w1, w26
	bl	_ZN6OutputlsEj
.LVL248:
	mov	x1, x21
	bl	_ZN6OutputlsEPKc
.LVL249:
	.loc 5 735 0
	adrp	x1, .LC63
	add	x1, x1, :lo12:.LC63
	bl	_ZN6OutputlsEPKc
.LVL250:
	mov	w1, w25
	bl	_ZN6OutputlsEj
.LVL251:
	mov	x1, x21
	bl	_ZN6OutputlsEPKc
.LVL252:
	.loc 5 736 0
	adrp	x1, .LC26
	add	x1, x1, :lo12:.LC26
	bl	_ZN6OutputlsEPKc
.LVL253:
	mov	w1, w22
	bl	_ZN6OutputlsEj
.LVL254:
	.loc 5 737 0
	mov	x1, x20
	bl	_ZN6OutputlsEPKc
.LVL255:
.LBE375:
.LBE374:
.LBB376:
.LBB377:
	.loc 3 309 0
	adrp	x1, .LC64
	add	x1, x1, :lo12:.LC64
	mov	x0, x19
	bl	_ZN6OutputlsEPKc
.LVL256:
	.loc 3 310 0
	adrp	x1, .LC8
	add	x1, x1, :lo12:.LC8
	bl	_ZN6OutputlsEPKc
.LVL257:
	mov	w1, w24
	bl	_ZN6OutputlsEj
.LVL258:
	mov	x1, x21
	bl	_ZN6OutputlsEPKc
.LVL259:
	.loc 3 311 0
	adrp	x1, .LC9
	add	x1, x1, :lo12:.LC9
	bl	_ZN6OutputlsEPKc
.LVL260:
	ldr	w1, [x29, 108]
	bl	_ZN6OutputlsEj
.LVL261:
	.loc 3 312 0
	mov	x1, x20
	bl	_ZN6OutputlsEPKc
.LVL262:
.LBE377:
.LBE376:
.LBB378:
.LBB379:
	.loc 3 236 0
	// Start of user assembly
// 236 "D:\Pool\eclipse-workspace_aarch64\newspace\raspiOS\include/arch/common_aarch64/gicv3_registers.h" 1
	msr s3_0_c12_c12_1,x24 
	
// 0 "" 2
.LVL263:
	// End of user assembly
.LBE379:
.LBE378:
.LBB380:
	.loc 1 236 0
	cmp	w24, 27
	beq	.L44
.LBB381:
	.loc 1 244 0
	cmp	w24, 30
	beq	.L45
.LVL264:
.L40:
.LBE381:
.LBE380:
	.loc 1 261 0
	ldp	x19, x20, [sp, 16]
	ldp	x21, x22, [sp, 32]
	ldp	x23, x24, [sp, 48]
	ldp	x25, x26, [sp, 64]
	ldp	x27, x28, [sp, 80]
	ldp	x29, x30, [sp], 144
	.cfi_remember_state
	.cfi_restore 30
	.cfi_restore 29
	.cfi_restore 27
	.cfi_restore 28
	.cfi_restore 25
	.cfi_restore 26
	.cfi_restore 23
	.cfi_restore 24
	.cfi_restore 21
	.cfi_restore 22
	.cfi_restore 19
	.cfi_restore 20
	.cfi_def_cfa 31, 0
	ret
.LVL265:
.L44:
	.cfi_restore_state
.LBB395:
.LBB389:
.LBB390:
.LBB391:
	.file 7 "D:\\Pool\\eclipse-workspace_aarch64\\newspace\\raspiOS\\include/arch/common_aarch64/timer_registers.h"
	.loc 7 211 0
	mov	w0, 0
	// Start of user assembly
// 211 "D:\Pool\eclipse-workspace_aarch64\newspace\raspiOS\include/arch/common_aarch64/timer_registers.h" 1
	msr CNTV_CTL_EL0,x0 
	
// 0 "" 2
.LVL266:
	// End of user assembly
.LBE391:
.LBE390:
.LBB392:
.LBB393:
	mov	w0, 1
	// Start of user assembly
// 211 "D:\Pool\eclipse-workspace_aarch64\newspace\raspiOS\include/arch/common_aarch64/timer_registers.h" 1
	msr CNTV_CTL_EL0,x0 
	
// 0 "" 2
.LVL267:
	// End of user assembly
.LBE393:
.LBE392:
.LBE389:
	b	.L40
.L45:
.LBB394:
.LBB382:
.LBB383:
.LBB384:
	.loc 7 127 0
	// Start of user assembly
// 127 "D:\Pool\eclipse-workspace_aarch64\newspace\raspiOS\include/arch/common_aarch64/timer_registers.h" 1
	mrs x19,CNTP_CVAL_EL0
	
// 0 "" 2
.LVL268:
	// End of user assembly
.LBE384:
.LBE383:
.LBB385:
.LBB386:
	.loc 7 119 0
	adrp	x1, .LC65
	add	x1, x1, :lo12:.LC65
	adrp	x0, kout
	add	x0, x0, :lo12:kout
	bl	_ZN6OutputlsEPKc
.LVL269:
	.loc 7 120 0
	adrp	x1, .LC66
	add	x1, x1, :lo12:.LC66
	bl	_ZN6OutputlsEPKc
.LVL270:
	mov	x1, x19
	bl	_ZN6OutputlsEm
.LVL271:
	.loc 7 121 0
	adrp	x1, .LC6
	add	x1, x1, :lo12:.LC6
	bl	_ZN6OutputlsEPKc
.LVL272:
.LBE386:
.LBE385:
	.loc 1 254 0
	add	x19, x19, 3817472
	add	x19, x19, 2650
.LVL273:
.LBB387:
.LBB388:
	.loc 7 129 0
	mov	x0, 0
	bfi	x0, x19, 0, 64
	// Start of user assembly
// 129 "D:\Pool\eclipse-workspace_aarch64\newspace\raspiOS\include/arch/common_aarch64/timer_registers.h" 1
	msr CNTP_CVAL_EL0,x0 
	
// 0 "" 2
.LVL274:
	// End of user assembly
.LBE388:
.LBE387:
.LBE382:
.LBE394:
.LBE395:
	.loc 1 261 0
	b	.L40
	.cfi_endproc
.LFE751:
	.size	IRQEL1Handle, .-IRQEL1Handle
	.section	.rodata.str1.8,"aMS",@progbits,1
	.align	3
.LC0:
	.string	"[INFO] "
.LC1:
	.string	"processing FIQ_EL1 \n"
	.zero	3
.LC2:
	.string	"ICC_RPR_EL1 : "
	.zero	1
.LC3:
	.string	"Priortiy = "
	.zero	4
.LC4:
	.string	","
	.zero	6
.LC5:
	.string	"RES0_0 = "
	.zero	6
.LC6:
	.string	"\n"
	.zero	6
.LC7:
	.string	"ICC_IAR0_EL1 : "
.LC8:
	.string	"INTID = "
	.zero	7
.LC9:
	.string	"RES0 = "
.LC10:
	.string	"processing SErrorEL1 \n"
	.zero	1
.LC11:
	.string	"processing SynchronousEL1 \n"
	.zero	4
.LC12:
	.string	"CurrentEL = "
	.zero	3
.LC13:
	.string	"From EL = "
	.zero	5
.LC14:
	.string	"ESR_EL1 : "
	.zero	5
.LC15:
	.string	"ISS = "
	.zero	1
.LC16:
	.string	"IL = "
	.zero	2
.LC17:
	.string	"EC = "
	.zero	2
.LC18:
	.string	"ELR_EL1 : "
	.zero	5
.LC19:
	.string	"returnAddr = "
	.zero	2
.LC20:
	.string	"FAR_EL1 : "
	.zero	5
.LC21:
	.string	"faultAddr = "
	.zero	3
.LC22:
	.string	"SPSR_EL1 : "
	.zero	4
.LC23:
	.string	"SPSel = "
	.zero	7
.LC24:
	.string	"EL = "
	.zero	2
.LC25:
	.string	"ExeState = "
	.zero	4
.LC26:
	.string	"RES0_1 = "
	.zero	6
.LC27:
	.string	"FIQMask = "
	.zero	5
.LC28:
	.string	"IRQMask = "
	.zero	5
.LC29:
	.string	"SErrorMask = "
	.zero	2
.LC30:
	.string	"DebugMask = "
	.zero	3
.LC31:
	.string	"RES0_2 = "
	.zero	6
.LC32:
	.string	"SoftwareStep = "
.LC33:
	.string	"PAN = "
	.zero	1
.LC34:
	.string	"UAO = "
	.zero	1
.LC35:
	.string	"RES0_3 = "
	.zero	6
.LC36:
	.string	"V = "
	.zero	3
.LC37:
	.string	"C = "
	.zero	3
.LC38:
	.string	"Z = "
	.zero	3
.LC39:
	.string	"N = "
	.zero	3
.LC40:
	.string	"Undefined instruction\n"
	.zero	1
.LC41:
	.string	"not processing it\n"
	.zero	5
.LC42:
	.string	"svc targeting number : "
.LC43:
	.string	"Instruction Abort \n"
	.zero	4
.LC44:
	.string	"farNotValid?"
	.zero	3
.LC45:
	.string	"FAR = "
	.zero	1
.LC46:
	.string	"Data Abort\n"
	.zero	4
.LC47:
	.string	"PC alignment fault\n"
	.zero	4
.LC48:
	.string	"SP alignment fault\n"
	.zero	4
.LC49:
	.string	"not processing it \n"
	.zero	4
.LC50:
	.string	"SError interrupt\n"
	.zero	6
.LC51:
	.string	"Currently unhandled exception\n"
	.zero	1
.LC52:
	.string	"processing IRQ_EL1 \n"
	.zero	3
.LC53:
	.string	"ICC_PMR_EL1 : "
	.zero	1
.LC54:
	.string	"GICD_ISACTIVER0 : "
	.zero	5
.LC55:
	.string	"Actives = "
	.zero	5
.LC56:
	.string	"GICR_ISACTIVER0 : "
	.zero	5
.LC57:
	.string	"GICD_ISPENDR0 : "
	.zero	7
.LC58:
	.string	"Pendings = "
	.zero	4
.LC59:
	.string	"GICR_ISPENDR0 : "
	.zero	7
.LC60:
	.string	"ISR_EL1 : "
	.zero	5
.LC61:
	.string	"F = "
	.zero	3
.LC62:
	.string	"I = "
	.zero	3
.LC63:
	.string	"A = "
	.zero	3
.LC64:
	.string	"ICC_IAR1_EL1 : "
.LC65:
	.string	"CNTP_CVAL_EL0 : "
	.zero	7
.LC66:
	.string	"CompareValue = "
	.text
.Letext0:
	.file 8 "d:\\installed\\gcc-linaro-7.2.1-2017.11-i686-mingw32_aarch64-elf\\aarch64-elf\\include\\c++\\7.2.1\\cstddef"
	.file 9 "d:\\installed\\gcc-linaro-7.2.1-2017.11-i686-mingw32_aarch64-elf\\aarch64-elf\\include\\c++\\7.2.1\\cstdint"
	.file 10 "d:\\installed\\gcc-linaro-7.2.1-2017.11-i686-mingw32_aarch64-elf\\aarch64-elf\\include\\c++\\7.2.1\\aarch64-elf\\bits\\c++config.h"
	.file 11 "d:\\installed\\gcc-linaro-7.2.1-2017.11-i686-mingw32_aarch64-elf\\lib\\gcc\\aarch64-elf\\7.2.1\\include\\stddef.h"
	.file 12 "d:\\installed\\gcc-linaro-7.2.1-2017.11-i686-mingw32_aarch64-elf\\lib\\gcc\\aarch64-elf\\7.2.1\\include\\stdint-gcc.h"
	.file 13 "D:\\Pool\\eclipse-workspace_aarch64\\newspace\\raspiOS\\include/def.h"
	.file 14 "D:\\Pool\\eclipse-workspace_aarch64\\newspace\\raspiOS\\include/io/Output.h"
	.file 15 "D:\\Pool\\eclipse-workspace_aarch64\\newspace\\raspiOS\\include/IntegerFormatter.h"
	.file 16 "D:\\Pool\\eclipse-workspace_aarch64\\newspace\\raspiOS\\include/arch/common_aarch64/exception/exceptions.h"
	.file 17 "<built-in>"