	.arch armv8.2-a+crc
	.file	"FAT16ExtBPB.cpp"
	.text
.Ltext0:
	.cfi_sections	.debug_frame
	.section	.rodata
	.align	2
	.type	_ZL6UNIT_K, %object
	.size	_ZL6UNIT_K, 4
_ZL6UNIT_K:
	.word	1024
	.align	2
	.type	_ZL3KiB, %object
	.size	_ZL3KiB, 4
_ZL3KiB:
	.word	1024
	.align	2
	.type	_ZL3MiB, %object
	.size	_ZL3MiB, 4
_ZL3MiB:
	.word	1048576
	.align	2
	.type	_ZL3GiB, %object
	.size	_ZL3GiB, 4
_ZL3GiB:
	.word	1073741824
	.text
	.align	2
	.global	_ZNK8ExtBPB1621getClusterEntryOffsetEm
	.type	_ZNK8ExtBPB1621getClusterEntryOffsetEm, %function
_ZNK8ExtBPB1621getClusterEntryOffsetEm:
.LFB0:
	.file 1 "D:/Pool/eclipse-workspace_aarch64/newspace/raspiOS/src/filesystem/fat/FAT16ExtBPB.cpp"
	.loc 1 11 0
	.cfi_startproc
	sub	sp, sp, #16
	.cfi_def_cfa_offset 16
	str	x0, [sp, 8]
	str	x1, [sp]
	.loc 1 12 0
	ldr	x0, [sp, 8]
	ldrh	w0, [x0, 14]
	mov	w1, w0
	ldr	x0, [sp, 8]
	ldrh	w0, [x0, 11]
	mul	w0, w1, w0
	sxtw	x1, w0
	ldr	x0, [sp]
	lsl	x0, x0, 1
	add	x0, x1, x0
	.loc 1 13 0
	add	sp, sp, 16
	.cfi_def_cfa_offset 0
	ret
	.cfi_endproc
.LFE0:
	.size	_ZNK8ExtBPB1621getClusterEntryOffsetEm, .-_ZNK8ExtBPB1621getClusterEntryOffsetEm
	.align	2
	.global	_ZNK8ExtBPB1621getRootDirFirstSectorEv
	.type	_ZNK8ExtBPB1621getRootDirFirstSectorEv, %function
_ZNK8ExtBPB1621getRootDirFirstSectorEv:
.LFB1:
	.loc 1 16 0
	.cfi_startproc
	sub	sp, sp, #16
	.cfi_def_cfa_offset 16
	str	x0, [sp, 8]
	.loc 1 17 0
	ldr	x0, [sp, 8]
	ldrh	w0, [x0, 14]
	mov	w1, w0
	ldr	x0, [sp, 8]
	ldrb	w0, [x0, 16]
	mov	w2, w0
	ldr	x0, [sp, 8]
	ldrh	w0, [x0, 22]
	mul	w0, w2, w0
	add	w0, w1, w0
	sxtw	x0, w0
	.loc 1 18 0
	add	sp, sp, 16
	.cfi_def_cfa_offset 0
	ret
	.cfi_endproc
.LFE1:
	.size	_ZNK8ExtBPB1621getRootDirFirstSectorEv, .-_ZNK8ExtBPB1621getRootDirFirstSectorEv
	.align	2
	.global	_ZNK8ExtBPB1610getFATTypeEv
	.type	_ZNK8ExtBPB1610getFATTypeEv, %function
_ZNK8ExtBPB1610getFATTypeEv:
.LFB2:
	.loc 1 20 0
	.cfi_startproc
	sub	sp, sp, #16
	.cfi_def_cfa_offset 16
	str	x0, [sp, 8]
	.loc 1 21 0
	mov	w0, 1
	.loc 1 22 0
	add	sp, sp, 16
	.cfi_def_cfa_offset 0
	ret
	.cfi_endproc
.LFE2:
	.size	_ZNK8ExtBPB1610getFATTypeEv, .-_ZNK8ExtBPB1610getFATTypeEv
	.align	2
	.global	_ZNK8ExtBPB1616calculateFATSz16Em
	.type	_ZNK8ExtBPB1616calculateFATSz16Em, %function
_ZNK8ExtBPB1616calculateFATSz16Em:
.LFB3:
	.loc 1 25 0
	.cfi_startproc
	stp	x29, x30, [sp, -64]!
	.cfi_def_cfa_offset 64
	.cfi_offset 29, -64
	.cfi_offset 30, -56
	add	x29, sp, 0
	.cfi_def_cfa_register 29
	str	x19, [sp, 16]
	.cfi_offset 19, -48
	str	x0, [x29, 40]
	str	x1, [x29, 32]
	.loc 1 26 0
	ldr	x0, [x29, 40]
	ldrh	w0, [x0, 14]
	and	x19, x0, 65535
	ldr	x0, [x29, 40]
	bl	_ZNK8ExtBPB1621getRootDirFirstSectorEv
	add	x0, x19, x0
	ldr	x1, [x29, 32]
	sub	x0, x1, x0
	str	x0, [x29, 56]
	.loc 1 27 0
	ldr	x0, [x29, 40]
	ldrb	w0, [x0, 13]
	lsl	w0, w0, 8
	ldr	x1, [x29, 40]
	ldrb	w1, [x1, 16]
	add	w0, w0, w1
	sxtw	x0, w0
	str	x0, [x29, 48]
	.loc 1 28 0
	ldr	x1, [x29, 48]
	ldr	x0, [x29, 56]
	add	x0, x1, x0
	sub	x1, x0, #1
	ldr	x0, [x29, 48]
	udiv	x0, x1, x0
	and	w0, w0, 65535
	.loc 1 29 0
	ldr	x19, [sp, 16]
	ldp	x29, x30, [sp], 64
	.cfi_restore 30
	.cfi_restore 29
	.cfi_restore 19
	.cfi_def_cfa 31, 0
	ret
	.cfi_endproc
.LFE3:
	.size	_ZNK8ExtBPB1616calculateFATSz16Em, .-_ZNK8ExtBPB1616calculateFATSz16Em
	.align	2
	.global	_ZNK8ExtBPB1210getFATTypeEv
	.type	_ZNK8ExtBPB1210getFATTypeEv, %function
_ZNK8ExtBPB1210getFATTypeEv:
.LFB4:
	.loc 1 33 0
	.cfi_startproc
	sub	sp, sp, #16
	.cfi_def_cfa_offset 16
	str	x0, [sp, 8]
	.loc 1 34 0
	mov	w0, 1
	.loc 1 35 0
	add	sp, sp, 16
	.cfi_def_cfa_offset 0
	ret
	.cfi_endproc
.LFE4:
	.size	_ZNK8ExtBPB1210getFATTypeEv, .-_ZNK8ExtBPB1210getFATTypeEv
.Letext0:
	.file 2 "d:\\installed\\gcc-linaro-7.2.1-2017.11-i686-mingw32_aarch64-elf\\aarch64-elf\\include\\c++\\7.2.1\\cstddef"
	.file 3 "d:\\installed\\gcc-linaro-7.2.1-2017.11-i686-mingw32_aarch64-elf\\aarch64-elf\\include\\c++\\7.2.1\\cstdint"
	.file 4 "d:\\installed\\gcc-linaro-7.2.1-2017.11-i686-mingw32_aarch64-elf\\aarch64-elf\\include\\c++\\7.2.1\\aarch64-elf\\bits\\c++config.h"
	.file 5 "d:\\installed\\gcc-linaro-7.2.1-2017.11-i686-mingw32_aarch64-elf\\lib\\gcc\\aarch64-elf\\7.2.1\\include\\stddef.h"
	.file 6 "d:\\installed\\gcc-linaro-7.2.1-2017.11-i686-mingw32_aarch64-elf\\lib\\gcc\\aarch64-elf\\7.2.1\\include\\stdint-gcc.h"
	.file 7 "D:\\Pool\\eclipse-workspace_aarch64\\newspace\\raspiOS\\include/def.h"
	.file 8 "D:\\Pool\\eclipse-workspace_aarch64\\newspace\\raspiOS\\include/filesystem/fat/FAT_BPB.h"
	.file 9 "D:\\Pool\\eclipse-workspace_aarch64\\newspace\\raspiOS\\include/filesystem/fat/FAT16ExtBPB.h"
	.file 10 "<built-in>"