	.arch armv8.2-a+crc
	.file	"FAT32Debugger.cpp"
	.text
.Ltext0:
	.cfi_sections	.debug_frame
	.section	.rodata
	.align	2
	.type	_ZL6UNIT_K, %object
	.size	_ZL6UNIT_K, 4
_ZL6UNIT_K:
	.word	1024
	.align	2
	.type	_ZL3KiB, %object
	.size	_ZL3KiB, 4
_ZL3KiB:
	.word	1024
	.align	2
	.type	_ZL3MiB, %object
	.size	_ZL3MiB, 4
_ZL3MiB:
	.word	1048576
	.align	2
	.type	_ZL3GiB, %object
	.size	_ZL3GiB, 4
_ZL3GiB:
	.word	1073741824
	.align	3
	.type	_ZL11koutBufSize, %object
	.size	_ZL11koutBufSize, 8
_ZL11koutBufSize:
	.xword	65
	.align	3
.LC0:
	.string	"sizeof(BPB) = "
	.align	3
.LC1:
	.string	"\n"
	.align	3
.LC2:
	.string	"sizeof(ExtBPB32) = "
	.align	3
.LC3:
	.string	"offsetof(ExtBPB32,BS_jmpBoot) = "
	.align	3
.LC4:
	.string	"offsetof(ExtBPB32,BS_OEMName) = "
	.align	3
.LC5:
	.string	"offsetof(ExtBPB32,bytesPerSec) = "
	.align	3
.LC6:
	.string	"offsetof(ExtBPB32,secPerClus) = "
	.align	3
.LC7:
	.string	"offsetof(ExtBPB32,rsvdSecCnt) = "
	.align	3
.LC8:
	.string	"offsetof(ExtBPB32,numFATs) = "
	.align	3
.LC9:
	.string	"offsetof(ExtBPB32,rootEntCnt) = "
	.align	3
.LC10:
	.string	"offsetof(ExtBPB32,totSec16) = "
	.align	3
.LC11:
	.string	"offsetof(ExtBPB32,media) = "
	.align	3
.LC12:
	.string	"offsetof(ExtBPB32,FATSz16) = "
	.align	3
.LC13:
	.string	"offsetof(ExtBPB32,secPerTrk) = "
	.align	3
.LC14:
	.string	"offsetof(ExtBPB32,numHeads) = "
	.align	3
.LC15:
	.string	"offsetof(ExtBPB32,hiddSec) = "
	.align	3
.LC16:
	.string	"offsetof(ExtBPB32,totSec32) = "
	.align	3
.LC17:
	.string	"offsetof(ExtBPB32,FATSz32) = "
	.align	3
.LC18:
	.string	"offsetof(ExtBPB32,extFlags) = "
	.align	3
.LC19:
	.string	"offsetof(ExtBPB32,FSVer) = "
	.align	3
.LC20:
	.string	"offsetof(ExtBPB32,rootClus) = "
	.align	3
.LC21:
	.string	"offsetof(ExtBPB32,FSInfo) = "
	.align	3
.LC22:
	.string	"offsetof(ExtBPB32,bkBootSe) = "
	.align	3
.LC23:
	.string	"offsetof(ExtBPB32,reserved) = "
	.align	3
.LC24:
	.string	"offsetof(ExtBPB32,BS_DrvNum) = "
	.align	3
.LC25:
	.string	"offsetof(ExtBPB32,BS_Reserved1) = "
	.align	3
.LC26:
	.string	"offsetof(ExtBPB32,BS_BootSig) = "
	.align	3
.LC27:
	.string	"offsetof(ExtBPB32,BS_VolID) = "
	.align	3
.LC28:
	.string	"offsetof(ExtBPB32,BS_VolLab) = "
	.align	3
.LC29:
	.string	"offsetof(ExtBPB32,BS_FilSysType) = "
	.align	3
.LC30:
	.string	"offsetof(ExtBPB32,undefined) = "
	.align	3
.LC31:
	.string	"offsetof(ExtBPB32,Signature_word) = "
	.text
	.align	2
	.global	_ZN13Fat32Dubugger22dumpBPBTypeInformationEv
	.type	_ZN13Fat32Dubugger22dumpBPBTypeInformationEv, %function
_ZN13Fat32Dubugger22dumpBPBTypeInformationEv:
.LFB55:
	.file 1 "D:/Pool/eclipse-workspace_aarch64/newspace/raspiOS/src/filesystem/fat/FAT32Debugger.cpp"
	.loc 1 10 0
	.cfi_startproc
	stp	x29, x30, [sp, -16]!
	.cfi_def_cfa_offset 16
	.cfi_offset 29, -16
	.cfi_offset 30, -8
	add	x29, sp, 0
	.cfi_def_cfa_register 29
	.loc 1 11 0
	adrp	x0, .LC0
	add	x1, x0, :lo12:.LC0
	adrp	x0, kout
	add	x0, x0, :lo12:kout
	bl	_ZN6OutputlsEPKc
	mov	x1, 36
	bl	_ZN6OutputlsEm
	mov	x2, x0
	adrp	x0, .LC1
	add	x0, x0, :lo12:.LC1
	mov	x1, x0
	mov	x0, x2
	bl	_ZN6OutputlsEPKc
	.loc 1 12 0
	adrp	x0, .LC2
	add	x1, x0, :lo12:.LC2
	adrp	x0, kout
	add	x0, x0, :lo12:kout
	bl	_ZN6OutputlsEPKc
	mov	x1, 512
	bl	_ZN6OutputlsEm
	mov	x2, x0
	adrp	x0, .LC1
	add	x0, x0, :lo12:.LC1
	mov	x1, x0
	mov	x0, x2
	bl	_ZN6OutputlsEPKc
	.loc 1 13 0
	adrp	x0, .LC3
	add	x1, x0, :lo12:.LC3
	adrp	x0, kout
	add	x0, x0, :lo12:kout
	bl	_ZN6OutputlsEPKc
	.loc 1 13 0
	mov	x1, 0
	bl	_ZN6OutputlsEm
	mov	x2, x0
	.loc 1 13 0
	adrp	x0, .LC1
	add	x0, x0, :lo12:.LC1
	mov	x1, x0
	mov	x0, x2
	bl	_ZN6OutputlsEPKc
	.loc 1 14 0
	adrp	x0, .LC4
	add	x1, x0, :lo12:.LC4
	adrp	x0, kout
	add	x0, x0, :lo12:kout
	bl	_ZN6OutputlsEPKc
	.loc 1 14 0
	mov	x1, 3
	bl	_ZN6OutputlsEm
	mov	x2, x0
	.loc 1 14 0
	adrp	x0, .LC1
	add	x0, x0, :lo12:.LC1
	mov	x1, x0
	mov	x0, x2
	bl	_ZN6OutputlsEPKc
	.loc 1 15 0
	adrp	x0, .LC5
	add	x1, x0, :lo12:.LC5
	adrp	x0, kout
	add	x0, x0, :lo12:kout
	bl	_ZN6OutputlsEPKc
	.loc 1 15 0
	mov	x1, 11
	bl	_ZN6OutputlsEm
	mov	x2, x0
	.loc 1 15 0
	adrp	x0, .LC1
	add	x0, x0, :lo12:.LC1
	mov	x1, x0
	mov	x0, x2
	bl	_ZN6OutputlsEPKc
	.loc 1 16 0
	adrp	x0, .LC6
	add	x1, x0, :lo12:.LC6
	adrp	x0, kout
	add	x0, x0, :lo12:kout
	bl	_ZN6OutputlsEPKc
	.loc 1 16 0
	mov	x1, 13
	bl	_ZN6OutputlsEm
	mov	x2, x0
	.loc 1 16 0
	adrp	x0, .LC1
	add	x0, x0, :lo12:.LC1
	mov	x1, x0
	mov	x0, x2
	bl	_ZN6OutputlsEPKc
	.loc 1 17 0
	adrp	x0, .LC7
	add	x1, x0, :lo12:.LC7
	adrp	x0, kout
	add	x0, x0, :lo12:kout
	bl	_ZN6OutputlsEPKc
	.loc 1 17 0
	mov	x1, 14
	bl	_ZN6OutputlsEm
	mov	x2, x0
	.loc 1 17 0
	adrp	x0, .LC1
	add	x0, x0, :lo12:.LC1
	mov	x1, x0
	mov	x0, x2
	bl	_ZN6OutputlsEPKc
	.loc 1 18 0
	adrp	x0, .LC8
	add	x1, x0, :lo12:.LC8
	adrp	x0, kout
	add	x0, x0, :lo12:kout
	bl	_ZN6OutputlsEPKc
	.loc 1 18 0
	mov	x1, 16
	bl	_ZN6OutputlsEm
	mov	x2, x0
	.loc 1 18 0
	adrp	x0, .LC1
	add	x0, x0, :lo12:.LC1
	mov	x1, x0
	mov	x0, x2
	bl	_ZN6OutputlsEPKc
	.loc 1 19 0
	adrp	x0, .LC9
	add	x1, x0, :lo12:.LC9
	adrp	x0, kout
	add	x0, x0, :lo12:kout
	bl	_ZN6OutputlsEPKc
	.loc 1 19 0
	mov	x1, 17
	bl	_ZN6OutputlsEm
	mov	x2, x0
	.loc 1 19 0
	adrp	x0, .LC1
	add	x0, x0, :lo12:.LC1
	mov	x1, x0
	mov	x0, x2
	bl	_ZN6OutputlsEPKc
	.loc 1 20 0
	adrp	x0, .LC10
	add	x1, x0, :lo12:.LC10
	adrp	x0, kout
	add	x0, x0, :lo12:kout
	bl	_ZN6OutputlsEPKc
	.loc 1 20 0
	mov	x1, 19
	bl	_ZN6OutputlsEm
	mov	x2, x0
	.loc 1 20 0
	adrp	x0, .LC1
	add	x0, x0, :lo12:.LC1
	mov	x1, x0
	mov	x0, x2
	bl	_ZN6OutputlsEPKc
	.loc 1 21 0
	adrp	x0, .LC11
	add	x1, x0, :lo12:.LC11
	adrp	x0, kout
	add	x0, x0, :lo12:kout
	bl	_ZN6OutputlsEPKc
	.loc 1 21 0
	mov	x1, 21
	bl	_ZN6OutputlsEm
	mov	x2, x0
	.loc 1 21 0
	adrp	x0, .LC1
	add	x0, x0, :lo12:.LC1
	mov	x1, x0
	mov	x0, x2
	bl	_ZN6OutputlsEPKc
	.loc 1 22 0
	adrp	x0, .LC12
	add	x1, x0, :lo12:.LC12
	adrp	x0, kout
	add	x0, x0, :lo12:kout
	bl	_ZN6OutputlsEPKc
	.loc 1 22 0
	mov	x1, 22
	bl	_ZN6OutputlsEm
	mov	x2, x0
	.loc 1 22 0
	adrp	x0, .LC1
	add	x0, x0, :lo12:.LC1
	mov	x1, x0
	mov	x0, x2
	bl	_ZN6OutputlsEPKc
	.loc 1 23 0
	adrp	x0, .LC13
	add	x1, x0, :lo12:.LC13
	adrp	x0, kout
	add	x0, x0, :lo12:kout
	bl	_ZN6OutputlsEPKc
	.loc 1 23 0
	mov	x1, 24
	bl	_ZN6OutputlsEm
	mov	x2, x0
	.loc 1 23 0
	adrp	x0, .LC1
	add	x0, x0, :lo12:.LC1
	mov	x1, x0
	mov	x0, x2
	bl	_ZN6OutputlsEPKc
	.loc 1 24 0
	adrp	x0, .LC14
	add	x1, x0, :lo12:.LC14
	adrp	x0, kout
	add	x0, x0, :lo12:kout
	bl	_ZN6OutputlsEPKc
	.loc 1 24 0
	mov	x1, 26
	bl	_ZN6OutputlsEm
	mov	x2, x0
	.loc 1 24 0
	adrp	x0, .LC1
	add	x0, x0, :lo12:.LC1
	mov	x1, x0
	mov	x0, x2
	bl	_ZN6OutputlsEPKc
	.loc 1 25 0
	adrp	x0, .LC15
	add	x1, x0, :lo12:.LC15
	adrp	x0, kout
	add	x0, x0, :lo12:kout
	bl	_ZN6OutputlsEPKc
	.loc 1 25 0
	mov	x1, 28
	bl	_ZN6OutputlsEm
	mov	x2, x0
	.loc 1 25 0
	adrp	x0, .LC1
	add	x0, x0, :lo12:.LC1
	mov	x1, x0
	mov	x0, x2
	bl	_ZN6OutputlsEPKc
	.loc 1 26 0
	adrp	x0, .LC16
	add	x1, x0, :lo12:.LC16
	adrp	x0, kout
	add	x0, x0, :lo12:kout
	bl	_ZN6OutputlsEPKc
	.loc 1 26 0
	mov	x1, 32
	bl	_ZN6OutputlsEm
	mov	x2, x0
	.loc 1 26 0
	adrp	x0, .LC1
	add	x0, x0, :lo12:.LC1
	mov	x1, x0
	mov	x0, x2
	bl	_ZN6OutputlsEPKc
	.loc 1 27 0
	adrp	x0, .LC17
	add	x1, x0, :lo12:.LC17
	adrp	x0, kout
	add	x0, x0, :lo12:kout
	bl	_ZN6OutputlsEPKc
	.loc 1 27 0
	mov	x1, 36
	bl	_ZN6OutputlsEm
	mov	x2, x0
	.loc 1 27 0
	adrp	x0, .LC1
	add	x0, x0, :lo12:.LC1
	mov	x1, x0
	mov	x0, x2
	bl	_ZN6OutputlsEPKc
	.loc 1 28 0
	adrp	x0, .LC18
	add	x1, x0, :lo12:.LC18
	adrp	x0, kout
	add	x0, x0, :lo12:kout
	bl	_ZN6OutputlsEPKc
	.loc 1 28 0
	mov	x1, 40
	bl	_ZN6OutputlsEm
	mov	x2, x0
	.loc 1 28 0
	adrp	x0, .LC1
	add	x0, x0, :lo12:.LC1
	mov	x1, x0
	mov	x0, x2
	bl	_ZN6OutputlsEPKc
	.loc 1 29 0
	adrp	x0, .LC19
	add	x1, x0, :lo12:.LC19
	adrp	x0, kout
	add	x0, x0, :lo12:kout
	bl	_ZN6OutputlsEPKc
	.loc 1 29 0
	mov	x1, 42
	bl	_ZN6OutputlsEm
	mov	x2, x0
	.loc 1 29 0
	adrp	x0, .LC1
	add	x0, x0, :lo12:.LC1
	mov	x1, x0
	mov	x0, x2
	bl	_ZN6OutputlsEPKc
	.loc 1 30 0
	adrp	x0, .LC20
	add	x1, x0, :lo12:.LC20
	adrp	x0, kout
	add	x0, x0, :lo12:kout
	bl	_ZN6OutputlsEPKc
	.loc 1 30 0
	mov	x1, 44
	bl	_ZN6OutputlsEm
	mov	x2, x0
	.loc 1 30 0
	adrp	x0, .LC1
	add	x0, x0, :lo12:.LC1
	mov	x1, x0
	mov	x0, x2
	bl	_ZN6OutputlsEPKc
	.loc 1 31 0
	adrp	x0, .LC21
	add	x1, x0, :lo12:.LC21
	adrp	x0, kout
	add	x0, x0, :lo12:kout
	bl	_ZN6OutputlsEPKc
	.loc 1 31 0
	mov	x1, 48
	bl	_ZN6OutputlsEm
	mov	x2, x0
	.loc 1 31 0
	adrp	x0, .LC1
	add	x0, x0, :lo12:.LC1
	mov	x1, x0
	mov	x0, x2
	bl	_ZN6OutputlsEPKc
	.loc 1 32 0
	adrp	x0, .LC22
	add	x1, x0, :lo12:.LC22
	adrp	x0, kout
	add	x0, x0, :lo12:kout
	bl	_ZN6OutputlsEPKc
	.loc 1 32 0
	mov	x1, 50
	bl	_ZN6OutputlsEm
	mov	x2, x0
	.loc 1 32 0
	adrp	x0, .LC1
	add	x0, x0, :lo12:.LC1
	mov	x1, x0
	mov	x0, x2
	bl	_ZN6OutputlsEPKc
	.loc 1 33 0
	adrp	x0, .LC23
	add	x1, x0, :lo12:.LC23
	adrp	x0, kout
	add	x0, x0, :lo12:kout
	bl	_ZN6OutputlsEPKc
	.loc 1 33 0
	mov	x1, 52
	bl	_ZN6OutputlsEm
	mov	x2, x0
	.loc 1 33 0
	adrp	x0, .LC1
	add	x0, x0, :lo12:.LC1
	mov	x1, x0
	mov	x0, x2
	bl	_ZN6OutputlsEPKc
	.loc 1 34 0
	adrp	x0, .LC24
	add	x1, x0, :lo12:.LC24
	adrp	x0, kout
	add	x0, x0, :lo12:kout
	bl	_ZN6OutputlsEPKc
	.loc 1 34 0
	mov	x1, 64
	bl	_ZN6OutputlsEm
	mov	x2, x0
	.loc 1 34 0
	adrp	x0, .LC1
	add	x0, x0, :lo12:.LC1
	mov	x1, x0
	mov	x0, x2
	bl	_ZN6OutputlsEPKc
	.loc 1 35 0
	adrp	x0, .LC25
	add	x1, x0, :lo12:.LC25
	adrp	x0, kout
	add	x0, x0, :lo12:kout
	bl	_ZN6OutputlsEPKc
	.loc 1 35 0
	mov	x1, 65
	bl	_ZN6OutputlsEm
	mov	x2, x0
	.loc 1 35 0
	adrp	x0, .LC1
	add	x0, x0, :lo12:.LC1
	mov	x1, x0
	mov	x0, x2
	bl	_ZN6OutputlsEPKc
	.loc 1 36 0
	adrp	x0, .LC26
	add	x1, x0, :lo12:.LC26
	adrp	x0, kout
	add	x0, x0, :lo12:kout
	bl	_ZN6OutputlsEPKc
	.loc 1 36 0
	mov	x1, 66
	bl	_ZN6OutputlsEm
	mov	x2, x0
	.loc 1 36 0
	adrp	x0, .LC1
	add	x0, x0, :lo12:.LC1
	mov	x1, x0
	mov	x0, x2
	bl	_ZN6OutputlsEPKc
	.loc 1 37 0
	adrp	x0, .LC27
	add	x1, x0, :lo12:.LC27
	adrp	x0, kout
	add	x0, x0, :lo12:kout
	bl	_ZN6OutputlsEPKc
	.loc 1 37 0
	mov	x1, 67
	bl	_ZN6OutputlsEm
	mov	x2, x0
	.loc 1 37 0
	adrp	x0, .LC1
	add	x0, x0, :lo12:.LC1
	mov	x1, x0
	mov	x0, x2
	bl	_ZN6OutputlsEPKc
	.loc 1 38 0
	adrp	x0, .LC28
	add	x1, x0, :lo12:.LC28
	adrp	x0, kout
	add	x0, x0, :lo12:kout
	bl	_ZN6OutputlsEPKc
	.loc 1 38 0
	mov	x1, 71
	bl	_ZN6OutputlsEm
	mov	x2, x0
	.loc 1 38 0
	adrp	x0, .LC1
	add	x0, x0, :lo12:.LC1
	mov	x1, x0
	mov	x0, x2
	bl	_ZN6OutputlsEPKc
	.loc 1 39 0
	adrp	x0, .LC29
	add	x1, x0, :lo12:.LC29
	adrp	x0, kout
	add	x0, x0, :lo12:kout
	bl	_ZN6OutputlsEPKc
	.loc 1 39 0
	mov	x1, 82
	bl	_ZN6OutputlsEm
	mov	x2, x0
	.loc 1 39 0
	adrp	x0, .LC1
	add	x0, x0, :lo12:.LC1
	mov	x1, x0
	mov	x0, x2
	bl	_ZN6OutputlsEPKc
	.loc 1 40 0
	adrp	x0, .LC30
	add	x1, x0, :lo12:.LC30
	adrp	x0, kout
	add	x0, x0, :lo12:kout
	bl	_ZN6OutputlsEPKc
	.loc 1 40 0
	mov	x1, 90
	bl	_ZN6OutputlsEm
	mov	x2, x0
	.loc 1 40 0
	adrp	x0, .LC1
	add	x0, x0, :lo12:.LC1
	mov	x1, x0
	mov	x0, x2
	bl	_ZN6OutputlsEPKc
	.loc 1 41 0
	adrp	x0, .LC31
	add	x1, x0, :lo12:.LC31
	adrp	x0, kout
	add	x0, x0, :lo12:kout
	bl	_ZN6OutputlsEPKc
	.loc 1 41 0
	mov	x1, 510
	bl	_ZN6OutputlsEm
	mov	x2, x0
	.loc 1 41 0
	adrp	x0, .LC1
	add	x0, x0, :lo12:.LC1
	mov	x1, x0
	mov	x0, x2
	bl	_ZN6OutputlsEPKc
	.loc 1 43 0
	nop
	ldp	x29, x30, [sp], 16
	.cfi_restore 30
	.cfi_restore 29
	.cfi_def_cfa 31, 0
	ret
	.cfi_endproc
.LFE55:
	.size	_ZN13Fat32Dubugger22dumpBPBTypeInformationEv, .-_ZN13Fat32Dubugger22dumpBPBTypeInformationEv
	.section	.rodata
	.align	3
.LC32:
	.string	"bpb->bytesPerSec = "
	.align	3
.LC33:
	.string	"bpb->secPerClus = "
	.align	3
.LC34:
	.string	"bpb->rsvdSecCnt = "
	.align	3
.LC35:
	.string	"bpb->numFATs = "
	.align	3
.LC36:
	.string	"bpb->rootEntCnt = "
	.align	3
.LC37:
	.string	"bpb->totSec16 = "
	.align	3
.LC38:
	.string	"bpb->media = "
	.align	3
.LC39:
	.string	"bpb->FATSz16 = "
	.align	3
.LC40:
	.string	"bpb->secPerTrk = "
	.align	3
.LC41:
	.string	"bpb->numHeads = "
	.align	3
.LC42:
	.string	"bpb->hiddSec = "
	.align	3
.LC43:
	.string	"bpb->totSec32 = "
	.text
	.align	2
	.global	_ZN13Fat32Dubugger7dumpBPBEP7FAT_BPB
	.type	_ZN13Fat32Dubugger7dumpBPBEP7FAT_BPB, %function
_ZN13Fat32Dubugger7dumpBPBEP7FAT_BPB:
.LFB56:
	.loc 1 45 0
	.cfi_startproc
	stp	x29, x30, [sp, -32]!
	.cfi_def_cfa_offset 32
	.cfi_offset 29, -32
	.cfi_offset 30, -24
	add	x29, sp, 0
	.cfi_def_cfa_register 29
	str	x0, [x29, 24]
	.loc 1 46 0
	adrp	x0, .LC32
	add	x1, x0, :lo12:.LC32
	adrp	x0, kout
	add	x0, x0, :lo12:kout
	bl	_ZN6OutputlsEPKc
	mov	x2, x0
	ldr	x0, [x29, 24]
	ldrh	w0, [x0, 11]
	mov	w1, w0
	mov	x0, x2
	bl	_ZN6OutputlsEt
	mov	x2, x0
	adrp	x0, .LC1
	add	x0, x0, :lo12:.LC1
	mov	x1, x0
	mov	x0, x2
	bl	_ZN6OutputlsEPKc
	.loc 1 47 0
	adrp	x0, .LC33
	add	x1, x0, :lo12:.LC33
	adrp	x0, kout
	add	x0, x0, :lo12:kout
	bl	_ZN6OutputlsEPKc
	mov	x2, x0
	ldr	x0, [x29, 24]
	ldrb	w0, [x0, 13]
	mov	w1, w0
	mov	x0, x2
	bl	_ZN6OutputlsEh
	mov	x2, x0
	adrp	x0, .LC1
	add	x0, x0, :lo12:.LC1
	mov	x1, x0
	mov	x0, x2
	bl	_ZN6OutputlsEPKc
	.loc 1 48 0
	adrp	x0, .LC34
	add	x1, x0, :lo12:.LC34
	adrp	x0, kout
	add	x0, x0, :lo12:kout
	bl	_ZN6OutputlsEPKc
	mov	x2, x0
	ldr	x0, [x29, 24]
	ldrh	w0, [x0, 14]
	mov	w1, w0
	mov	x0, x2
	bl	_ZN6OutputlsEt
	mov	x2, x0
	adrp	x0, .LC1
	add	x0, x0, :lo12:.LC1
	mov	x1, x0
	mov	x0, x2
	bl	_ZN6OutputlsEPKc
	.loc 1 49 0
	adrp	x0, .LC35
	add	x1, x0, :lo12:.LC35
	adrp	x0, kout
	add	x0, x0, :lo12:kout
	bl	_ZN6OutputlsEPKc
	mov	x2, x0
	ldr	x0, [x29, 24]
	ldrb	w0, [x0, 16]
	mov	w1, w0
	mov	x0, x2
	bl	_ZN6OutputlsEh
	mov	x2, x0
	adrp	x0, .LC1
	add	x0, x0, :lo12:.LC1
	mov	x1, x0
	mov	x0, x2
	bl	_ZN6OutputlsEPKc
	.loc 1 50 0
	adrp	x0, .LC36
	add	x1, x0, :lo12:.LC36
	adrp	x0, kout
	add	x0, x0, :lo12:kout
	bl	_ZN6OutputlsEPKc
	mov	x2, x0
	ldr	x0, [x29, 24]
	ldrh	w0, [x0, 17]
	mov	w1, w0
	mov	x0, x2
	bl	_ZN6OutputlsEt
	mov	x2, x0
	adrp	x0, .LC1
	add	x0, x0, :lo12:.LC1
	mov	x1, x0
	mov	x0, x2
	bl	_ZN6OutputlsEPKc
	.loc 1 51 0
	adrp	x0, .LC37
	add	x1, x0, :lo12:.LC37
	adrp	x0, kout
	add	x0, x0, :lo12:kout
	bl	_ZN6OutputlsEPKc
	mov	x2, x0
	ldr	x0, [x29, 24]
	ldrh	w0, [x0, 19]
	mov	w1, w0
	mov	x0, x2
	bl	_ZN6OutputlsEt
	mov	x2, x0
	adrp	x0, .LC1
	add	x0, x0, :lo12:.LC1
	mov	x1, x0
	mov	x0, x2
	bl	_ZN6OutputlsEPKc
	.loc 1 52 0
	adrp	x0, .LC38
	add	x1, x0, :lo12:.LC38
	adrp	x0, kout
	add	x0, x0, :lo12:kout
	bl	_ZN6OutputlsEPKc
	mov	x2, x0
	ldr	x0, [x29, 24]
	ldrb	w0, [x0, 21]
	mov	w1, w0
	mov	x0, x2
	bl	_ZN6OutputlsEh
	mov	x2, x0
	adrp	x0, .LC1
	add	x0, x0, :lo12:.LC1
	mov	x1, x0
	mov	x0, x2
	bl	_ZN6OutputlsEPKc
	.loc 1 53 0
	adrp	x0, .LC39
	add	x1, x0, :lo12:.LC39
	adrp	x0, kout
	add	x0, x0, :lo12:kout
	bl	_ZN6OutputlsEPKc
	mov	x2, x0
	ldr	x0, [x29, 24]
	ldrh	w0, [x0, 22]
	mov	w1, w0
	mov	x0, x2
	bl	_ZN6OutputlsEt
	mov	x2, x0
	adrp	x0, .LC1
	add	x0, x0, :lo12:.LC1
	mov	x1, x0
	mov	x0, x2
	bl	_ZN6OutputlsEPKc
	.loc 1 54 0
	adrp	x0, .LC40
	add	x1, x0, :lo12:.LC40
	adrp	x0, kout
	add	x0, x0, :lo12:kout
	bl	_ZN6OutputlsEPKc
	mov	x2, x0
	ldr	x0, [x29, 24]
	ldrh	w0, [x0, 24]
	mov	w1, w0
	mov	x0, x2
	bl	_ZN6OutputlsEt
	mov	x2, x0
	adrp	x0, .LC1
	add	x0, x0, :lo12:.LC1
	mov	x1, x0
	mov	x0, x2
	bl	_ZN6OutputlsEPKc
	.loc 1 55 0
	adrp	x0, .LC41
	add	x1, x0, :lo12:.LC41
	adrp	x0, kout
	add	x0, x0, :lo12:kout
	bl	_ZN6OutputlsEPKc
	mov	x2, x0
	ldr	x0, [x29, 24]
	ldrh	w0, [x0, 26]
	mov	w1, w0
	mov	x0, x2
	bl	_ZN6OutputlsEt
	mov	x2, x0
	adrp	x0, .LC1
	add	x0, x0, :lo12:.LC1
	mov	x1, x0
	mov	x0, x2
	bl	_ZN6OutputlsEPKc
	.loc 1 56 0
	adrp	x0, .LC42
	add	x1, x0, :lo12:.LC42
	adrp	x0, kout
	add	x0, x0, :lo12:kout
	bl	_ZN6OutputlsEPKc
	mov	x2, x0
	ldr	x0, [x29, 24]
	ldr	w0, [x0, 28]
	mov	w1, w0
	mov	x0, x2
	bl	_ZN6OutputlsEj
	mov	x2, x0
	adrp	x0, .LC1
	add	x0, x0, :lo12:.LC1
	mov	x1, x0
	mov	x0, x2
	bl	_ZN6OutputlsEPKc
	.loc 1 57 0
	adrp	x0, .LC43
	add	x1, x0, :lo12:.LC43
	adrp	x0, kout
	add	x0, x0, :lo12:kout
	bl	_ZN6OutputlsEPKc
	mov	x2, x0
	ldr	x0, [x29, 24]
	ldr	w0, [x0, 32]
	mov	w1, w0
	mov	x0, x2
	bl	_ZN6OutputlsEj
	mov	x2, x0
	adrp	x0, .LC1
	add	x0, x0, :lo12:.LC1
	mov	x1, x0
	mov	x0, x2
	bl	_ZN6OutputlsEPKc
	.loc 1 58 0
	nop
	ldp	x29, x30, [sp], 32
	.cfi_restore 30
	.cfi_restore 29
	.cfi_def_cfa 31, 0
	ret
	.cfi_endproc
.LFE56:
	.size	_ZN13Fat32Dubugger7dumpBPBEP7FAT_BPB, .-_ZN13Fat32Dubugger7dumpBPBEP7FAT_BPB
	.section	.rodata
	.align	3
.LC44:
	.string	"bpb->FATSz32 = "
	.align	3
.LC45:
	.string	"bpb->extFlags = "
	.align	3
.LC46:
	.string	"bpb->FSVer = "
	.align	3
.LC47:
	.string	"bpb->rootClus = "
	.align	3
.LC48:
	.string	"bpb->FSInfo = "
	.align	3
.LC49:
	.string	"bpb->bkBootSe = "
	.align	3
.LC50:
	.string	"bpb->reserved = "
	.align	3
.LC51:
	.string	"bpb->BS_DrvNum = "
	.align	3
.LC52:
	.string	"bpb->BS_Reserved1 = "
	.align	3
.LC53:
	.string	"bpb->BS_BootSig = "
	.align	3
.LC54:
	.string	"bpb->BS_VolID = "
	.align	3
.LC55:
	.string	"bpb->BS_VolLab = "
	.align	3
.LC56:
	.string	"bpb->BS_FilSysType = "
	.align	3
.LC57:
	.string	"bpb->undefined = "
	.align	3
.LC58:
	.string	"bpb->Signature_word = "
	.text
	.align	2
	.global	_ZN13Fat32Dubugger12dumpExtBPB32EP11FAT32ExtBPB
	.type	_ZN13Fat32Dubugger12dumpExtBPB32EP11FAT32ExtBPB, %function
_ZN13Fat32Dubugger12dumpExtBPB32EP11FAT32ExtBPB:
.LFB57:
	.loc 1 61 0
	.cfi_startproc
	stp	x29, x30, [sp, -32]!
	.cfi_def_cfa_offset 32
	.cfi_offset 29, -32
	.cfi_offset 30, -24
	add	x29, sp, 0
	.cfi_def_cfa_register 29
	str	x0, [x29, 24]
	.loc 1 62 0
	ldr	x0, [x29, 24]
	bl	_ZN13Fat32Dubugger7dumpBPBEP7FAT_BPB
	.loc 1 63 0
	adrp	x0, .LC44
	add	x1, x0, :lo12:.LC44
	adrp	x0, kout
	add	x0, x0, :lo12:kout
	bl	_ZN6OutputlsEPKc
	mov	x2, x0
	ldr	x0, [x29, 24]
	ldr	w0, [x0, 36]
	mov	w1, w0
	mov	x0, x2
	bl	_ZN6OutputlsEj
	mov	x2, x0
	adrp	x0, .LC1
	add	x0, x0, :lo12:.LC1
	mov	x1, x0
	mov	x0, x2
	bl	_ZN6OutputlsEPKc
	.loc 1 64 0
	adrp	x0, .LC45
	add	x1, x0, :lo12:.LC45
	adrp	x0, kout
	add	x0, x0, :lo12:kout
	bl	_ZN6OutputlsEPKc
	mov	x2, x0
	ldr	x0, [x29, 24]
	ldrh	w0, [x0, 40]
	mov	w1, w0
	mov	x0, x2
	bl	_ZN6OutputlsEt
	mov	x2, x0
	adrp	x0, .LC1
	add	x0, x0, :lo12:.LC1
	mov	x1, x0
	mov	x0, x2
	bl	_ZN6OutputlsEPKc
	.loc 1 65 0
	adrp	x0, .LC46
	add	x1, x0, :lo12:.LC46
	adrp	x0, kout
	add	x0, x0, :lo12:kout
	bl	_ZN6OutputlsEPKc
	mov	x2, x0
	ldr	x0, [x29, 24]
	ldrh	w0, [x0, 42]
	mov	w1, w0
	mov	x0, x2
	bl	_ZN6OutputlsEt
	mov	x2, x0
	adrp	x0, .LC1
	add	x0, x0, :lo12:.LC1
	mov	x1, x0
	mov	x0, x2
	bl	_ZN6OutputlsEPKc
	.loc 1 66 0
	adrp	x0, .LC47
	add	x1, x0, :lo12:.LC47
	adrp	x0, kout
	add	x0, x0, :lo12:kout
	bl	_ZN6OutputlsEPKc
	mov	x2, x0
	ldr	x0, [x29, 24]
	ldr	w0, [x0, 44]
	mov	w1, w0
	mov	x0, x2
	bl	_ZN6OutputlsEj
	mov	x2, x0
	adrp	x0, .LC1
	add	x0, x0, :lo12:.LC1
	mov	x1, x0
	mov	x0, x2
	bl	_ZN6OutputlsEPKc
	.loc 1 67 0
	adrp	x0, .LC48
	add	x1, x0, :lo12:.LC48
	adrp	x0, kout
	add	x0, x0, :lo12:kout
	bl	_ZN6OutputlsEPKc
	mov	x2, x0
	ldr	x0, [x29, 24]
	ldrh	w0, [x0, 48]
	mov	w1, w0
	mov	x0, x2
	bl	_ZN6OutputlsEt
	mov	x2, x0
	adrp	x0, .LC1
	add	x0, x0, :lo12:.LC1
	mov	x1, x0
	mov	x0, x2
	bl	_ZN6OutputlsEPKc
	.loc 1 68 0
	adrp	x0, .LC49
	add	x1, x0, :lo12:.LC49
	adrp	x0, kout
	add	x0, x0, :lo12:kout
	bl	_ZN6OutputlsEPKc
	mov	x2, x0
	ldr	x0, [x29, 24]
	ldrh	w0, [x0, 50]
	mov	w1, w0
	mov	x0, x2
	bl	_ZN6OutputlsEt
	mov	x2, x0
	adrp	x0, .LC1
	add	x0, x0, :lo12:.LC1
	mov	x1, x0
	mov	x0, x2
	bl	_ZN6OutputlsEPKc
	.loc 1 69 0
	adrp	x0, .LC50
	add	x1, x0, :lo12:.LC50
	adrp	x0, kout
	add	x0, x0, :lo12:kout
	bl	_ZN6OutputlsEPKc
	mov	x2, x0
	ldr	x0, [x29, 24]
	add	x0, x0, 52
	mov	x1, x0
	mov	x0, x2
	bl	_ZN6OutputlsEPKv
	mov	x2, x0
	adrp	x0, .LC1
	add	x0, x0, :lo12:.LC1
	mov	x1, x0
	mov	x0, x2
	bl	_ZN6OutputlsEPKc
	.loc 1 70 0
	adrp	x0, .LC51
	add	x1, x0, :lo12:.LC51
	adrp	x0, kout
	add	x0, x0, :lo12:kout
	bl	_ZN6OutputlsEPKc
	mov	x2, x0
	ldr	x0, [x29, 24]
	ldrb	w0, [x0, 64]
	mov	w1, w0
	mov	x0, x2
	bl	_ZN6OutputlsEh
	mov	x2, x0
	adrp	x0, .LC1
	add	x0, x0, :lo12:.LC1
	mov	x1, x0
	mov	x0, x2
	bl	_ZN6OutputlsEPKc
	.loc 1 71 0
	adrp	x0, .LC52
	add	x1, x0, :lo12:.LC52
	adrp	x0, kout
	add	x0, x0, :lo12:kout
	bl	_ZN6OutputlsEPKc
	mov	x2, x0
	ldr	x0, [x29, 24]
	ldrb	w0, [x0, 65]
	mov	w1, w0
	mov	x0, x2
	bl	_ZN6OutputlsEh
	mov	x2, x0
	adrp	x0, .LC1
	add	x0, x0, :lo12:.LC1
	mov	x1, x0
	mov	x0, x2
	bl	_ZN6OutputlsEPKc
	.loc 1 72 0
	adrp	x0, .LC53
	add	x1, x0, :lo12:.LC53
	adrp	x0, kout
	add	x0, x0, :lo12:kout
	bl	_ZN6OutputlsEPKc
	mov	x2, x0
	ldr	x0, [x29, 24]
	ldrb	w0, [x0, 66]
	mov	w1, w0
	mov	x0, x2
	bl	_ZN6OutputlsEh
	mov	x2, x0
	adrp	x0, .LC1
	add	x0, x0, :lo12:.LC1
	mov	x1, x0
	mov	x0, x2
	bl	_ZN6OutputlsEPKc
	.loc 1 73 0
	adrp	x0, .LC54
	add	x1, x0, :lo12:.LC54
	adrp	x0, kout
	add	x0, x0, :lo12:kout
	bl	_ZN6OutputlsEPKc
	mov	x2, x0
	ldr	x0, [x29, 24]
	ldr	w0, [x0, 67]
	mov	w1, w0
	mov	x0, x2
	bl	_ZN6OutputlsEj
	mov	x2, x0
	adrp	x0, .LC1
	add	x0, x0, :lo12:.LC1
	mov	x1, x0
	mov	x0, x2
	bl	_ZN6OutputlsEPKc
	.loc 1 74 0
	adrp	x0, .LC55
	add	x1, x0, :lo12:.LC55
	adrp	x0, kout
	add	x0, x0, :lo12:kout
	bl	_ZN6OutputlsEPKc
	mov	x2, x0
	ldr	x0, [x29, 24]
	add	x0, x0, 71
	mov	x1, x0
	mov	x0, x2
	bl	_ZN6OutputlsEPKc
	mov	x2, x0
	adrp	x0, .LC1
	add	x0, x0, :lo12:.LC1
	mov	x1, x0
	mov	x0, x2
	bl	_ZN6OutputlsEPKc
	.loc 1 75 0
	adrp	x0, .LC56
	add	x1, x0, :lo12:.LC56
	adrp	x0, kout
	add	x0, x0, :lo12:kout
	bl	_ZN6OutputlsEPKc
	mov	x2, x0
	ldr	x0, [x29, 24]
	add	x0, x0, 82
	mov	x1, x0
	mov	x0, x2
	bl	_ZN6OutputlsEPKc
	mov	x2, x0
	adrp	x0, .LC1
	add	x0, x0, :lo12:.LC1
	mov	x1, x0
	mov	x0, x2
	bl	_ZN6OutputlsEPKc
	.loc 1 76 0
	adrp	x0, .LC57
	add	x1, x0, :lo12:.LC57
	adrp	x0, kout
	add	x0, x0, :lo12:kout
	bl	_ZN6OutputlsEPKc
	mov	x2, x0
	ldr	x0, [x29, 24]
	add	x0, x0, 90
	mov	x1, x0
	mov	x0, x2
	bl	_ZN6OutputlsEPKv
	mov	x2, x0
	adrp	x0, .LC1
	add	x0, x0, :lo12:.LC1
	mov	x1, x0
	mov	x0, x2
	bl	_ZN6OutputlsEPKc
	.loc 1 77 0
	adrp	x0, .LC58
	add	x1, x0, :lo12:.LC58
	adrp	x0, kout
	add	x0, x0, :lo12:kout
	bl	_ZN6OutputlsEPKc
	mov	x2, x0
	ldr	x0, [x29, 24]
	ldrh	w0, [x0, 510]
	mov	w1, w0
	mov	x0, x2
	bl	_ZN6OutputlsEt
	mov	x2, x0
	adrp	x0, .LC1
	add	x0, x0, :lo12:.LC1
	mov	x1, x0
	mov	x0, x2
	bl	_ZN6OutputlsEPKc
	.loc 1 79 0
	nop
	ldp	x29, x30, [sp], 32
	.cfi_restore 30
	.cfi_restore 29
	.cfi_def_cfa 31, 0
	ret
	.cfi_endproc
.LFE57:
	.size	_ZN13Fat32Dubugger12dumpExtBPB32EP11FAT32ExtBPB, .-_ZN13Fat32Dubugger12dumpExtBPB32EP11FAT32ExtBPB
	.section	.rodata
	.align	3
.LC59:
	.string	"lentry.ord = "
	.align	3
.LC60:
	.string	"lentry.name1 = "
	.align	3
.LC61:
	.string	"lentry.attr = "
	.align	3
.LC62:
	.string	"lentry.type = "
	.align	3
.LC63:
	.string	"lentry.chksum = "
	.align	3
.LC64:
	.string	"lentry.name2 = "
	.align	3
.LC65:
	.string	"lentry.fstClusLO = "
	.align	3
.LC66:
	.string	"lentry.name3 = "
	.align	3
.LC67:
	.string	"dentry.name = "
	.align	3
.LC68:
	.string	"dentry.attr = "
	.align	3
.LC69:
	.string	"dentry.NTRes = "
	.align	3
.LC70:
	.string	"dentry.crtTimeTenth = "
	.align	3
.LC71:
	.string	"dentry.crtTime = "
	.align	3
.LC72:
	.string	"dentry.crtDate = "
	.align	3
.LC73:
	.string	"dentry.lstAccData = "
	.align	3
.LC74:
	.string	"dentry.fstClusHI = "
	.align	3
.LC75:
	.string	"dentry.wrtTime = "
	.align	3
.LC76:
	.string	"dentry.wrtDate = "
	.align	3
.LC77:
	.string	"dentry.fstClusLO = "
	.align	3
.LC78:
	.string	"dentry.fileSize = "
	.text
	.align	2
	.global	_ZN13Fat32Dubugger18dumpDirectoryEntryE11FATDirEntry
	.type	_ZN13Fat32Dubugger18dumpDirectoryEntryE11FATDirEntry, %function
_ZN13Fat32Dubugger18dumpDirectoryEntryE11FATDirEntry:
.LFB58:
	.loc 1 82 0
	.cfi_startproc
	stp	x29, x30, [sp, -208]!
	.cfi_def_cfa_offset 208
	.cfi_offset 29, -208
	.cfi_offset 30, -200
	add	x29, sp, 0
	.cfi_def_cfa_register 29
	stp	x19, x20, [sp, 16]
	.cfi_offset 19, -192
	.cfi_offset 20, -184
	mov	x19, x0
.LBB2:
	.loc 1 83 0
	mov	x0, x19
	bl	_ZNK11FATDirEntry19uni_isLongNameEntryEv
	and	w0, w0, 255
	cmp	w0, 0
	beq	.L5
.LBB3:
	.loc 1 85 0
	mov	x0, x19
	add	x2, x29, 32
	mov	x3, x0
	ldp	x0, x1, [x3]
	stp	x0, x1, [x2]
	ldp	x0, x1, [x3, 16]
	stp	x0, x1, [x2, 16]
	.loc 1 86 0
	adrp	x0, .LC59
	add	x1, x0, :lo12:.LC59
	adrp	x0, kout
	add	x0, x0, :lo12:kout
	bl	_ZN6OutputlsEPKc
	mov	x19, x0
	ldrb	w0, [x29, 32]
	and	x1, x0, 255
	add	x0, x29, 64
	bl	_ZN16IntegerFormatterILi16EEC1Em
	add	x0, x29, 64
	mov	x1, x0
	mov	x0, x19
	bl	_ZlsILi16EER6OutputS1_RK16IntegerFormatterIXT_EE
	mov	x2, x0
	adrp	x0, .LC1
	add	x0, x0, :lo12:.LC1
	mov	x1, x0
	mov	x0, x2
	bl	_ZN6OutputlsEPKc
	.loc 1 87 0
	adrp	x0, .LC60
	add	x1, x0, :lo12:.LC60
	adrp	x0, kout
	add	x0, x0, :lo12:kout
	bl	_ZN6OutputlsEPKc
	mov	x19, x0
	add	x0, x29, 32
	add	x1, x0, 1
	add	x0, x29, 72
	mov	x2, 10
	bl	_ZN9StringRefC1EPKvm
	ldp	x1, x2, [x29, 72]
	mov	x0, x19
	bl	_ZlsR6Output9StringRef
	mov	x2, x0
	adrp	x0, .LC1
	add	x0, x0, :lo12:.LC1
	mov	x1, x0
	mov	x0, x2
	bl	_ZN6OutputlsEPKc
	.loc 1 88 0
	adrp	x0, .LC61
	add	x1, x0, :lo12:.LC61
	adrp	x0, kout
	add	x0, x0, :lo12:kout
	bl	_ZN6OutputlsEPKc
	mov	x19, x0
	ldrb	w0, [x29, 43]
	and	x1, x0, 255
	add	x0, x29, 88
	bl	_ZN16IntegerFormatterILi16EEC1Em
	add	x0, x29, 88
	mov	x1, x0
	mov	x0, x19
	bl	_ZlsILi16EER6OutputS1_RK16IntegerFormatterIXT_EE
	mov	x2, x0
	adrp	x0, .LC1
	add	x0, x0, :lo12:.LC1
	mov	x1, x0
	mov	x0, x2
	bl	_ZN6OutputlsEPKc
	.loc 1 89 0
	adrp	x0, .LC62
	add	x1, x0, :lo12:.LC62
	adrp	x0, kout
	add	x0, x0, :lo12:kout
	bl	_ZN6OutputlsEPKc
	mov	x19, x0
	ldrb	w0, [x29, 44]
	and	x1, x0, 255
	add	x0, x29, 96
	bl	_ZN16IntegerFormatterILi16EEC1Em
	add	x0, x29, 96
	mov	x1, x0
	mov	x0, x19
	bl	_ZlsILi16EER6OutputS1_RK16IntegerFormatterIXT_EE
	mov	x2, x0
	adrp	x0, .LC1
	add	x0, x0, :lo12:.LC1
	mov	x1, x0
	mov	x0, x2
	bl	_ZN6OutputlsEPKc
	.loc 1 90 0
	adrp	x0, .LC63
	add	x1, x0, :lo12:.LC63
	adrp	x0, kout
	add	x0, x0, :lo12:kout
	bl	_ZN6OutputlsEPKc
	mov	x19, x0
	ldrb	w0, [x29, 45]
	and	x1, x0, 255
	add	x0, x29, 104
	bl	_ZN16IntegerFormatterILi16EEC1Em
	add	x0, x29, 104
	mov	x1, x0
	mov	x0, x19
	bl	_ZlsILi16EER6OutputS1_RK16IntegerFormatterIXT_EE
	mov	x2, x0
	adrp	x0, .LC1
	add	x0, x0, :lo12:.LC1
	mov	x1, x0
	mov	x0, x2
	bl	_ZN6OutputlsEPKc
	.loc 1 91 0
	adrp	x0, .LC64
	add	x1, x0, :lo12:.LC64
	adrp	x0, kout
	add	x0, x0, :lo12:kout
	bl	_ZN6OutputlsEPKc
	mov	x19, x0
	add	x0, x29, 32
	add	x1, x0, 14
	add	x0, x29, 112
	mov	x2, 12
	bl	_ZN9StringRefC1EPKvm
	ldp	x1, x2, [x29, 112]
	mov	x0, x19
	bl	_ZlsR6Output9StringRef
	mov	x2, x0
	adrp	x0, .LC1
	add	x0, x0, :lo12:.LC1
	mov	x1, x0
	mov	x0, x2
	bl	_ZN6OutputlsEPKc
	.loc 1 92 0
	adrp	x0, .LC65
	add	x1, x0, :lo12:.LC65
	adrp	x0, kout
	add	x0, x0, :lo12:kout
	bl	_ZN6OutputlsEPKc
	mov	x19, x0
	ldrh	w0, [x29, 58]
	and	x1, x0, 65535
	add	x0, x29, 128
	bl	_ZN16IntegerFormatterILi16EEC1Em
	add	x0, x29, 128
	mov	x1, x0
	mov	x0, x19
	bl	_ZlsILi16EER6OutputS1_RK16IntegerFormatterIXT_EE
	mov	x2, x0
	adrp	x0, .LC1
	add	x0, x0, :lo12:.LC1
	mov	x1, x0
	mov	x0, x2
	bl	_ZN6OutputlsEPKc
	.loc 1 93 0
	adrp	x0, .LC66
	add	x1, x0, :lo12:.LC66
	adrp	x0, kout
	add	x0, x0, :lo12:kout
	bl	_ZN6OutputlsEPKc
	mov	x19, x0
	add	x0, x29, 32
	add	x1, x0, 28
	add	x0, x29, 136
	mov	x2, 4
	bl	_ZN9StringRefC1EPKvm
	ldp	x1, x2, [x29, 136]
	mov	x0, x19
	bl	_ZlsR6Output9StringRef
	mov	x2, x0
	adrp	x0, .LC1
	add	x0, x0, :lo12:.LC1
	mov	x1, x0
	mov	x0, x2
	bl	_ZN6OutputlsEPKc
.LBE3:
.LBE2:
	.loc 1 108 0
	b	.L7
.L5:
.LBB4:
	.loc 1 95 0
	adrp	x0, .LC67
	add	x1, x0, :lo12:.LC67
	adrp	x0, kout
	add	x0, x0, :lo12:kout
	bl	_ZN6OutputlsEPKc
	mov	x20, x0
	add	x0, x29, 152
	mov	x2, 11
	mov	x1, x19
	bl	_ZN9StringRefC1EPKvm
	ldp	x1, x2, [x29, 152]
	mov	x0, x20
	bl	_ZlsR6Output9StringRef
	mov	x2, x0
	adrp	x0, .LC1
	add	x0, x0, :lo12:.LC1
	mov	x1, x0
	mov	x0, x2
	bl	_ZN6OutputlsEPKc
	.loc 1 96 0
	adrp	x0, .LC68
	add	x1, x0, :lo12:.LC68
	adrp	x0, kout
	add	x0, x0, :lo12:kout
	bl	_ZN6OutputlsEPKc
	mov	x20, x0
	ldrb	w0, [x19, 11]
	and	x1, x0, 255
	add	x0, x29, 168
	bl	_ZN16IntegerFormatterILi16EEC1Em
	add	x0, x29, 168
	mov	x1, x0
	mov	x0, x20
	bl	_ZlsILi16EER6OutputS1_RK16IntegerFormatterIXT_EE
	mov	x2, x0
	adrp	x0, .LC1
	add	x0, x0, :lo12:.LC1
	mov	x1, x0
	mov	x0, x2
	bl	_ZN6OutputlsEPKc
	.loc 1 97 0
	adrp	x0, .LC69
	add	x1, x0, :lo12:.LC69
	adrp	x0, kout
	add	x0, x0, :lo12:kout
	bl	_ZN6OutputlsEPKc
	mov	x20, x0
	ldrb	w0, [x19, 12]
	and	x1, x0, 255
	add	x0, x29, 176
	bl	_ZN16IntegerFormatterILi16EEC1Em
	add	x0, x29, 176
	mov	x1, x0
	mov	x0, x20
	bl	_ZlsILi16EER6OutputS1_RK16IntegerFormatterIXT_EE
	mov	x2, x0
	adrp	x0, .LC1
	add	x0, x0, :lo12:.LC1
	mov	x1, x0
	mov	x0, x2
	bl	_ZN6OutputlsEPKc
	.loc 1 98 0
	adrp	x0, .LC70
	add	x1, x0, :lo12:.LC70
	adrp	x0, kout
	add	x0, x0, :lo12:kout
	bl	_ZN6OutputlsEPKc
	mov	x2, x0
	ldrb	w0, [x19, 13]
	mov	w1, w0
	mov	x0, x2
	bl	_ZN6OutputlsEh
	mov	x2, x0
	adrp	x0, .LC1
	add	x0, x0, :lo12:.LC1
	mov	x1, x0
	mov	x0, x2
	bl	_ZN6OutputlsEPKc
	.loc 1 99 0
	adrp	x0, .LC71
	add	x1, x0, :lo12:.LC71
	adrp	x0, kout
	add	x0, x0, :lo12:kout
	bl	_ZN6OutputlsEPKc
	mov	x2, x0
	ldrh	w0, [x19, 14]
	mov	w1, w0
	mov	x0, x2
	bl	_ZN6OutputlsEt
	mov	x2, x0
	adrp	x0, .LC1
	add	x0, x0, :lo12:.LC1
	mov	x1, x0
	mov	x0, x2
	bl	_ZN6OutputlsEPKc
	.loc 1 100 0
	adrp	x0, .LC72
	add	x1, x0, :lo12:.LC72
	adrp	x0, kout
	add	x0, x0, :lo12:kout
	bl	_ZN6OutputlsEPKc
	mov	x2, x0
	ldrh	w0, [x19, 16]
	mov	w1, w0
	mov	x0, x2
	bl	_ZN6OutputlsEt
	mov	x2, x0
	adrp	x0, .LC1
	add	x0, x0, :lo12:.LC1
	mov	x1, x0
	mov	x0, x2
	bl	_ZN6OutputlsEPKc
	.loc 1 101 0
	adrp	x0, .LC73
	add	x1, x0, :lo12:.LC73
	adrp	x0, kout
	add	x0, x0, :lo12:kout
	bl	_ZN6OutputlsEPKc
	mov	x2, x0
	ldrh	w0, [x19, 18]
	mov	w1, w0
	mov	x0, x2
	bl	_ZN6OutputlsEt
	mov	x2, x0
	adrp	x0, .LC1
	add	x0, x0, :lo12:.LC1
	mov	x1, x0
	mov	x0, x2
	bl	_ZN6OutputlsEPKc
	.loc 1 102 0
	adrp	x0, .LC74
	add	x1, x0, :lo12:.LC74
	adrp	x0, kout
	add	x0, x0, :lo12:kout
	bl	_ZN6OutputlsEPKc
	mov	x20, x0
	ldrh	w0, [x19, 20]
	and	x1, x0, 65535
	add	x0, x29, 184
	bl	_ZN16IntegerFormatterILi16EEC1Em
	add	x0, x29, 184
	mov	x1, x0
	mov	x0, x20
	bl	_ZlsILi16EER6OutputS1_RK16IntegerFormatterIXT_EE
	mov	x2, x0
	adrp	x0, .LC1
	add	x0, x0, :lo12:.LC1
	mov	x1, x0
	mov	x0, x2
	bl	_ZN6OutputlsEPKc
	.loc 1 103 0
	adrp	x0, .LC75
	add	x1, x0, :lo12:.LC75
	adrp	x0, kout
	add	x0, x0, :lo12:kout
	bl	_ZN6OutputlsEPKc
	mov	x2, x0
	ldrh	w0, [x19, 22]
	mov	w1, w0
	mov	x0, x2
	bl	_ZN6OutputlsEt
	mov	x2, x0
	adrp	x0, .LC1
	add	x0, x0, :lo12:.LC1
	mov	x1, x0
	mov	x0, x2
	bl	_ZN6OutputlsEPKc
	.loc 1 104 0
	adrp	x0, .LC76
	add	x1, x0, :lo12:.LC76
	adrp	x0, kout
	add	x0, x0, :lo12:kout
	bl	_ZN6OutputlsEPKc
	mov	x2, x0
	ldrh	w0, [x19, 24]
	mov	w1, w0
	mov	x0, x2
	bl	_ZN6OutputlsEt
	mov	x2, x0
	adrp	x0, .LC1
	add	x0, x0, :lo12:.LC1
	mov	x1, x0
	mov	x0, x2
	bl	_ZN6OutputlsEPKc
	.loc 1 105 0
	adrp	x0, .LC77
	add	x1, x0, :lo12:.LC77
	adrp	x0, kout
	add	x0, x0, :lo12:kout
	bl	_ZN6OutputlsEPKc
	mov	x20, x0
	ldrh	w0, [x19, 26]
	and	x1, x0, 65535
	add	x0, x29, 192
	bl	_ZN16IntegerFormatterILi16EEC1Em
	add	x0, x29, 192
	mov	x1, x0
	mov	x0, x20
	bl	_ZlsILi16EER6OutputS1_RK16IntegerFormatterIXT_EE
	mov	x2, x0
	adrp	x0, .LC1
	add	x0, x0, :lo12:.LC1
	mov	x1, x0
	mov	x0, x2
	bl	_ZN6OutputlsEPKc
	.loc 1 106 0
	adrp	x0, .LC78
	add	x1, x0, :lo12:.LC78
	adrp	x0, kout
	add	x0, x0, :lo12:kout
	bl	_ZN6OutputlsEPKc
	mov	x20, x0
	ldr	w0, [x19, 28]
	uxtw	x1, w0
	add	x0, x29, 200
	bl	_ZN16IntegerFormatterILi16EEC1Em
	add	x0, x29, 200
	mov	x1, x0
	mov	x0, x20
	bl	_ZlsILi16EER6OutputS1_RK16IntegerFormatterIXT_EE
	mov	x2, x0
	adrp	x0, .LC1
	add	x0, x0, :lo12:.LC1
	mov	x1, x0
	mov	x0, x2
	bl	_ZN6OutputlsEPKc
.L7:
.LBE4:
	.loc 1 108 0
	nop
	ldp	x19, x20, [sp, 16]
	ldp	x29, x30, [sp], 208
	.cfi_restore 30
	.cfi_restore 29
	.cfi_restore 19
	.cfi_restore 20
	.cfi_def_cfa 31, 0
	ret
	.cfi_endproc
.LFE58:
	.size	_ZN13Fat32Dubugger18dumpDirectoryEntryE11FATDirEntry, .-_ZN13Fat32Dubugger18dumpDirectoryEntryE11FATDirEntry
	.section	.text._ZN6StringD2Ev,"axG",@progbits,_ZN6StringD5Ev,comdat
	.align	2
	.weak	_ZN6StringD2Ev
	.type	_ZN6StringD2Ev, %function
_ZN6StringD2Ev:
.LFB61:
	.file 2 "D:\\Pool\\eclipse-workspace_aarch64\\newspace\\raspiOS\\include/data_structures/String.h"
	.loc 2 14 0
	.cfi_startproc
	stp	x29, x30, [sp, -32]!
	.cfi_def_cfa_offset 32
	.cfi_offset 29, -32
	.cfi_offset 30, -24
	add	x29, sp, 0
	.cfi_def_cfa_register 29
	str	x0, [x29, 24]
.LBB5:
	.loc 2 14 0
	ldr	x0, [x29, 24]
	bl	_ZN6VectorIcED2Ev
.LBE5:
	nop
	ldp	x29, x30, [sp], 32
	.cfi_restore 30
	.cfi_restore 29
	.cfi_def_cfa 31, 0
	ret
	.cfi_endproc
.LFE61:
	.size	_ZN6StringD2Ev, .-_ZN6StringD2Ev
	.weak	_ZN6StringD1Ev
	.set	_ZN6StringD1Ev,_ZN6StringD2Ev
	.section	.rodata
	.align	3
.LC79:
	.string	"lentry.name = "
	.text
	.align	2
	.global	_ZN13Fat32Dubugger12dumpDirNamesE11FATDirEntry
	.type	_ZN13Fat32Dubugger12dumpDirNamesE11FATDirEntry, %function
_ZN13Fat32Dubugger12dumpDirNamesE11FATDirEntry:
.LFB59:
	.loc 1 111 0
	.cfi_startproc
	stp	x29, x30, [sp, -112]!
	.cfi_def_cfa_offset 112
	.cfi_offset 29, -112
	.cfi_offset 30, -104
	add	x29, sp, 0
	.cfi_def_cfa_register 29
	stp	x19, x20, [sp, 16]
	.cfi_offset 19, -96
	.cfi_offset 20, -88
	mov	x19, x0
.LBB6:
	.loc 1 112 0
	mov	x0, x19
	bl	_ZNK11FATDirEntry19uni_isLongNameEntryEv
	and	w0, w0, 255
	cmp	w0, 0
	beq	.L10
.LBB7:
	.loc 1 114 0
	mov	x0, x19
	add	x2, x29, 40
	mov	x3, x0
	ldp	x0, x1, [x3]
	stp	x0, x1, [x2]
	ldp	x0, x1, [x3, 16]
	stp	x0, x1, [x2, 16]
	.loc 1 115 0
	adrp	x0, .LC79
	add	x1, x0, :lo12:.LC79
	adrp	x0, kout
	add	x0, x0, :lo12:kout
	bl	_ZN6OutputlsEPKc
	mov	x19, x0
	add	x0, x29, 40
	add	x1, x29, 72
	mov	x8, x1
	mov	w1, 1
	bl	_ZNK16FATLongNameEntry14getAsAsciiNameEb
	add	x0, x29, 72
	mov	x1, x0
	mov	x0, x19
	bl	_ZlsIcER6OutputS1_RK6VectorIT_E
	mov	x2, x0
	adrp	x0, .LC1
	add	x0, x0, :lo12:.LC1
	mov	x1, x0
	mov	x0, x2
	bl	_ZN6OutputlsEPKc
	add	x0, x29, 72
	bl	_ZN6StringD1Ev
.LBE7:
.LBE6:
	.loc 1 119 0
	b	.L12
.L10:
.LBB8:
	.loc 1 117 0
	adrp	x0, .LC67
	add	x1, x0, :lo12:.LC67
	adrp	x0, kout
	add	x0, x0, :lo12:kout
	bl	_ZN6OutputlsEPKc
	mov	x20, x0
	add	x0, x29, 96
	mov	x2, 11
	mov	x1, x19
	bl	_ZN9StringRefC1EPKvm
	ldp	x1, x2, [x29, 96]
	mov	x0, x20
	bl	_ZlsR6Output9StringRef
	mov	x2, x0
	adrp	x0, .LC1
	add	x0, x0, :lo12:.LC1
	mov	x1, x0
	mov	x0, x2
	bl	_ZN6OutputlsEPKc
.L12:
.LBE8:
	.loc 1 119 0
	nop
	ldp	x19, x20, [sp, 16]
	ldp	x29, x30, [sp], 112
	.cfi_restore 30
	.cfi_restore 29
	.cfi_restore 19
	.cfi_restore 20
	.cfi_def_cfa 31, 0
	ret
	.cfi_endproc
.LFE59:
	.size	_ZN13Fat32Dubugger12dumpDirNamesE11FATDirEntry, .-_ZN13Fat32Dubugger12dumpDirNamesE11FATDirEntry
	.align	2
	.global	_ZN13Fat32Dubugger12dumpDirNamesEP11FATDirEntrym
	.type	_ZN13Fat32Dubugger12dumpDirNamesEP11FATDirEntrym, %function
_ZN13Fat32Dubugger12dumpDirNamesEP11FATDirEntrym:
.LFB63:
	.loc 1 122 0
	.cfi_startproc
	stp	x29, x30, [sp, -80]!
	.cfi_def_cfa_offset 80
	.cfi_offset 29, -80
	.cfi_offset 30, -72
	add	x29, sp, 0
	.cfi_def_cfa_register 29
	str	x0, [x29, 56]
	str	x1, [x29, 48]
.LBB9:
	.loc 1 123 0
	str	xzr, [x29, 72]
.L15:
	.loc 1 123 0 is_stmt 0 discriminator 3
	ldr	x1, [x29, 72]
	ldr	x0, [x29, 48]
	cmp	x1, x0
	beq	.L16
	.loc 1 124 0 is_stmt 1 discriminator 2
	ldr	x0, [x29, 72]
	lsl	x0, x0, 5
	ldr	x1, [x29, 56]
	add	x0, x1, x0
	add	x2, x29, 16
	mov	x3, x0
	ldp	x0, x1, [x3]
	stp	x0, x1, [x2]
	ldp	x0, x1, [x3, 16]
	stp	x0, x1, [x2, 16]
	add	x0, x29, 16
	bl	_ZN13Fat32Dubugger12dumpDirNamesE11FATDirEntry
	.loc 1 123 0 discriminator 2
	ldr	x0, [x29, 72]
	add	x0, x0, 1
	str	x0, [x29, 72]
	b	.L15
.L16:
.LBE9:
	.loc 1 125 0
	nop
	ldp	x29, x30, [sp], 80
	.cfi_restore 30
	.cfi_restore 29
	.cfi_def_cfa 31, 0
	ret
	.cfi_endproc
.LFE63:
	.size	_ZN13Fat32Dubugger12dumpDirNamesEP11FATDirEntrym, .-_ZN13Fat32Dubugger12dumpDirNamesEP11FATDirEntrym
	.section	.text._ZN16IntegerFormatterILi16EEC2Em,"axG",@progbits,_ZN16IntegerFormatterILi16EEC5Em,comdat
	.align	2
	.weak	_ZN16IntegerFormatterILi16EEC2Em
	.type	_ZN16IntegerFormatterILi16EEC2Em, %function
_ZN16IntegerFormatterILi16EEC2Em:
.LFB65:
	.file 3 "D:\\Pool\\eclipse-workspace_aarch64\\newspace\\raspiOS\\include/templates_implementation/IntegerFormatter.h"
	.loc 3 16 0
	.cfi_startproc
	sub	sp, sp, #16
	.cfi_def_cfa_offset 16
	str	x0, [sp, 8]
	str	x1, [sp]
.LBB10:
	.loc 3 17 0
	ldr	x0, [sp, 8]
	ldr	x1, [sp]
	str	x1, [x0]
.LBE10:
	nop
	add	sp, sp, 16
	.cfi_def_cfa_offset 0
	ret
	.cfi_endproc
.LFE65:
	.size	_ZN16IntegerFormatterILi16EEC2Em, .-_ZN16IntegerFormatterILi16EEC2Em
	.weak	_ZN16IntegerFormatterILi16EEC1Em
	.set	_ZN16IntegerFormatterILi16EEC1Em,_ZN16IntegerFormatterILi16EEC2Em
	.section	.text._ZlsILi16EER6OutputS1_RK16IntegerFormatterIXT_EE,"axG",@progbits,_ZlsILi16EER6OutputS1_RK16IntegerFormatterIXT_EE,comdat
	.align	2
	.weak	_ZlsILi16EER6OutputS1_RK16IntegerFormatterIXT_EE
	.type	_ZlsILi16EER6OutputS1_RK16IntegerFormatterIXT_EE, %function
_ZlsILi16EER6OutputS1_RK16IntegerFormatterIXT_EE:
.LFB67:
	.loc 3 31 0
	.cfi_startproc
	stp	x29, x30, [sp, -32]!
	.cfi_def_cfa_offset 32
	.cfi_offset 29, -32
	.cfi_offset 30, -24
	add	x29, sp, 0
	.cfi_def_cfa_register 29
	str	x0, [x29, 24]
	str	x1, [x29, 16]
	.loc 3 33 0
	ldr	x0, [x29, 16]
	bl	_ZNK16IntegerFormatterILi16EE6formatEv
	mov	x1, x0
	ldr	x0, [x29, 24]
	bl	_ZN6OutputlsEPKc
	.loc 3 34 0
	ldr	x0, [x29, 24]
	.loc 3 35 0
	ldp	x29, x30, [sp], 32
	.cfi_restore 30
	.cfi_restore 29
	.cfi_def_cfa 31, 0
	ret
	.cfi_endproc
.LFE67:
	.size	_ZlsILi16EER6OutputS1_RK16IntegerFormatterIXT_EE, .-_ZlsILi16EER6OutputS1_RK16IntegerFormatterIXT_EE
	.section	.text._ZN6VectorIcED2Ev,"axG",@progbits,_ZN6VectorIcED5Ev,comdat
	.align	2
	.weak	_ZN6VectorIcED2Ev
	.type	_ZN6VectorIcED2Ev, %function
_ZN6VectorIcED2Ev:
.LFB69:
	.file 4 "D:\\Pool\\eclipse-workspace_aarch64\\newspace\\raspiOS\\include/templates_implementation/data_structures/Vector.h"
	.loc 4 53 0
	.cfi_startproc
	stp	x29, x30, [sp, -32]!
	.cfi_def_cfa_offset 32
	.cfi_offset 29, -32
	.cfi_offset 30, -24
	add	x29, sp, 0
	.cfi_def_cfa_register 29
	str	x0, [x29, 24]
.LBB11:
	.loc 4 55 0
	ldr	x0, [x29, 24]
	ldr	x0, [x0]
	cmp	x0, 0
	beq	.L22
	.loc 4 57 0
	ldr	x0, [x29, 24]
	ldr	x1, [x0]
	adrp	x0, mman
	add	x0, x0, :lo12:mman
	bl	_ZN13MemoryManager10deallocateEPv
	.loc 4 58 0
	ldr	x0, [x29, 24]
	str	xzr, [x0]
.L22:
.LBE11:
	.loc 4 60 0
	nop
	ldp	x29, x30, [sp], 32
	.cfi_restore 30
	.cfi_restore 29
	.cfi_def_cfa 31, 0
	ret
	.cfi_endproc
.LFE69:
	.size	_ZN6VectorIcED2Ev, .-_ZN6VectorIcED2Ev
	.weak	_ZN6VectorIcED1Ev
	.set	_ZN6VectorIcED1Ev,_ZN6VectorIcED2Ev
	.section	.text._ZlsIcER6OutputS1_RK6VectorIT_E,"axG",@progbits,_ZlsIcER6OutputS1_RK6VectorIT_E,comdat
	.align	2
	.weak	_ZlsIcER6OutputS1_RK6VectorIT_E
	.type	_ZlsIcER6OutputS1_RK6VectorIT_E, %function
_ZlsIcER6OutputS1_RK6VectorIT_E:
.LFB71:
	.loc 4 215 0
	.cfi_startproc
	stp	x29, x30, [sp, -48]!
	.cfi_def_cfa_offset 48
	.cfi_offset 29, -48
	.cfi_offset 30, -40
	add	x29, sp, 0
	.cfi_def_cfa_register 29
	str	x0, [x29, 24]
	str	x1, [x29, 16]
.LBB12:
	.loc 4 217 0
	str	xzr, [x29, 40]
.L25:
	.loc 4 217 0 is_stmt 0 discriminator 3
	ldr	x0, [x29, 16]
	bl	_ZNK6VectorIcE7getSizeEv
	mov	x1, x0
	ldr	x0, [x29, 40]
	cmp	x0, x1
	cset	w0, ne
	and	w0, w0, 255
	cmp	w0, 0
	beq	.L24
	.loc 4 218 0 is_stmt 1 discriminator 2
	ldr	x1, [x29, 40]
	ldr	x0, [x29, 16]
	bl	_ZNK6VectorIcEixEm
	ldrsb	w0, [x0]
	mov	w1, w0
	ldr	x0, [x29, 24]
	bl	_ZN6OutputlsEc
	.loc 4 217 0 discriminator 2
	ldr	x0, [x29, 40]
	add	x0, x0, 1
	str	x0, [x29, 40]
	b	.L25
.L24:
.LBE12:
	.loc 4 219 0
	ldr	x0, [x29, 24]
	.loc 4 220 0
	ldp	x29, x30, [sp], 48
	.cfi_restore 30
	.cfi_restore 29
	.cfi_def_cfa 31, 0
	ret
	.cfi_endproc
.LFE71:
	.size	_ZlsIcER6OutputS1_RK6VectorIT_E, .-_ZlsIcER6OutputS1_RK6VectorIT_E
	.section	.text._ZNK16IntegerFormatterILi16EE6formatEv,"axG",@progbits,_ZNK16IntegerFormatterILi16EE6formatEv,comdat
	.align	2
	.weak	_ZNK16IntegerFormatterILi16EE6formatEv
	.type	_ZNK16IntegerFormatterILi16EE6formatEv, %function
_ZNK16IntegerFormatterILi16EE6formatEv:
.LFB72:
	.loc 3 24 0
	.cfi_startproc
	stp	x29, x30, [sp, -32]!
	.cfi_def_cfa_offset 32
	.cfi_offset 29, -32
	.cfi_offset 30, -24
	add	x29, sp, 0
	.cfi_def_cfa_register 29
	str	x0, [x29, 24]
	.loc 3 26 0
	ldr	x0, [x29, 24]
	ldr	x4, [x0]
	adrp	x0, koutBuf
	add	x0, x0, :lo12:koutBuf
	mov	x3, 65
	mov	x2, x0
	mov	w1, 16
	mov	x0, x4
	bl	_Z4itosmjPcm
	.loc 3 27 0
	adrp	x0, koutBuf
	add	x0, x0, :lo12:koutBuf
	.loc 3 28 0
	ldp	x29, x30, [sp], 32
	.cfi_restore 30
	.cfi_restore 29
	.cfi_def_cfa 31, 0
	ret
	.cfi_endproc
.LFE72:
	.size	_ZNK16IntegerFormatterILi16EE6formatEv, .-_ZNK16IntegerFormatterILi16EE6formatEv
	.section	.text._ZNK6VectorIcE7getSizeEv,"axG",@progbits,_ZNK6VectorIcE7getSizeEv,comdat
	.align	2
	.weak	_ZNK6VectorIcE7getSizeEv
	.type	_ZNK6VectorIcE7getSizeEv, %function
_ZNK6VectorIcE7getSizeEv:
.LFB73:
	.loc 4 103 0
	.cfi_startproc
	sub	sp, sp, #16
	.cfi_def_cfa_offset 16
	str	x0, [sp, 8]
	.loc 4 105 0
	ldr	x0, [sp, 8]
	ldr	x0, [x0, 16]
	.loc 4 106 0
	add	sp, sp, 16
	.cfi_def_cfa_offset 0
	ret
	.cfi_endproc
.LFE73:
	.size	_ZNK6VectorIcE7getSizeEv, .-_ZNK6VectorIcE7getSizeEv
	.section	.text._ZNK6VectorIcEixEm,"axG",@progbits,_ZNK6VectorIcEixEm,comdat
	.align	2
	.weak	_ZNK6VectorIcEixEm
	.type	_ZNK6VectorIcEixEm, %function
_ZNK6VectorIcEixEm:
.LFB74:
	.loc 4 63 0
	.cfi_startproc
	sub	sp, sp, #16
	.cfi_def_cfa_offset 16
	str	x0, [sp, 8]
	str	x1, [sp]
	.loc 4 65 0
	ldr	x0, [sp, 8]
	ldr	x1, [x0]
	ldr	x0, [sp]
	add	x0, x1, x0
	.loc 4 66 0
	add	sp, sp, 16
	.cfi_def_cfa_offset 0
	ret
	.cfi_endproc
.LFE74:
	.size	_ZNK6VectorIcEixEm, .-_ZNK6VectorIcEixEm
	.text
.Letext0:
	.file 5 "d:\\installed\\gcc-linaro-7.2.1-2017.11-i686-mingw32_aarch64-elf\\aarch64-elf\\include\\c++\\7.2.1\\cstddef"
	.file 6 "d:\\installed\\gcc-linaro-7.2.1-2017.11-i686-mingw32_aarch64-elf\\aarch64-elf\\include\\c++\\7.2.1\\cstdint"
	.file 7 "d:\\installed\\gcc-linaro-7.2.1-2017.11-i686-mingw32_aarch64-elf\\aarch64-elf\\include\\c++\\7.2.1\\aarch64-elf\\bits\\c++config.h"
	.file 8 "d:\\installed\\gcc-linaro-7.2.1-2017.11-i686-mingw32_aarch64-elf\\lib\\gcc\\aarch64-elf\\7.2.1\\include\\stddef.h"
	.file 9 "d:\\installed\\gcc-linaro-7.2.1-2017.11-i686-mingw32_aarch64-elf\\lib\\gcc\\aarch64-elf\\7.2.1\\include\\stdint-gcc.h"
	.file 10 "D:\\Pool\\eclipse-workspace_aarch64\\newspace\\raspiOS\\include/def.h"
	.file 11 "D:\\Pool\\eclipse-workspace_aarch64\\newspace\\raspiOS\\include/filesystem/fat/FAT_BPB.h"
	.file 12 "D:\\Pool\\eclipse-workspace_aarch64\\newspace\\raspiOS\\include/io/Output.h"
	.file 13 "D:\\Pool\\eclipse-workspace_aarch64\\newspace\\raspiOS\\include/generic_util.h"
	.file 14 "D:\\Pool\\eclipse-workspace_aarch64\\newspace\\raspiOS\\include/memory/MemoryChunk.h"
	.file 15 "D:\\Pool\\eclipse-workspace_aarch64\\newspace\\raspiOS\\include/memory/MemoryManager.h"
	.file 16 "D:\\Pool\\eclipse-workspace_aarch64\\newspace\\raspiOS\\include/data_structures/Vector.h"
	.file 17 "D:\\Pool\\eclipse-workspace_aarch64\\newspace\\raspiOS\\include/data_structures/VectorRef.h"
	.file 18 "D:\\Pool\\eclipse-workspace_aarch64\\newspace\\raspiOS\\include/templates_implementation/data_structures/VectorRef.h"
	.file 19 "D:\\Pool\\eclipse-workspace_aarch64\\newspace\\raspiOS\\include/data_structures/StringRef.h"
	.file 20 "D:\\Pool\\eclipse-workspace_aarch64\\newspace\\raspiOS\\include/filesystem/fat/FATDirEntry.h"
	.file 21 "D:\\Pool\\eclipse-workspace_aarch64\\newspace\\raspiOS\\include/filesystem/fat/FAT32ExtBPB.h"
	.file 22 "D:\\Pool\\eclipse-workspace_aarch64\\newspace\\raspiOS\\include/filesystem/fat/FATLongNameEntry.h"
	.file 23 "D:\\Pool\\eclipse-workspace_aarch64\\newspace\\raspiOS\\include/filesystem/fat/FAT32Debugger.h"
	.file 24 "D:\\Pool\\eclipse-workspace_aarch64\\newspace\\raspiOS\\include/IntegerFormatter.h"
	.file 25 "<built-in>"