	.arch armv8.2-a+crc
	.file	"main_run_process.cpp"
	.text
.Ltext0:
	.cfi_sections	.debug_frame
	.section	.rodata
	.align	2
	.type	_ZL6UNIT_K, %object
	.size	_ZL6UNIT_K, 4
_ZL6UNIT_K:
	.word	1024
	.align	2
	.type	_ZL3KiB, %object
	.size	_ZL3KiB, 4
_ZL3KiB:
	.word	1024
	.align	2
	.type	_ZL3MiB, %object
	.size	_ZL3MiB, 4
_ZL3MiB:
	.word	1048576
	.align	2
	.type	_ZL3GiB, %object
	.size	_ZL3GiB, 4
_ZL3GiB:
	.word	1073741824
	.align	3
	.type	_ZL11koutBufSize, %object
	.size	_ZL11koutBufSize, 8
_ZL11koutBufSize:
	.xword	65
	.align	3
	.type	_ZStL19piecewise_construct, %object
	.size	_ZStL19piecewise_construct, 1
_ZStL19piecewise_construct:
	.zero	1
	.section	.text._ZnwmPv,"axG",@progbits,_ZnwmPv,comdat
	.align	2
	.weak	_ZnwmPv
	.type	_ZnwmPv, %function
_ZnwmPv:
.LFB438:
	.file 1 "d:\\installed\\gcc-linaro-7.2.1-2017.11-i686-mingw32_aarch64-elf\\aarch64-elf\\include\\c++\\7.2.1\\new"
	.loc 1 169 0
	.cfi_startproc
	sub	sp, sp, #16
	.cfi_def_cfa_offset 16
	str	x0, [sp, 8]
	str	x1, [sp]
	.loc 1 169 0
	ldr	x0, [sp]
	add	sp, sp, 16
	.cfi_def_cfa_offset 0
	ret
	.cfi_endproc
.LFE438:
	.size	_ZnwmPv, .-_ZnwmPv
	.text
	.align	2
	.type	_ZL20__gthread_key_deletei, %function
_ZL20__gthread_key_deletei:
.LFB835:
	.file 2 "d:\\installed\\gcc-linaro-7.2.1-2017.11-i686-mingw32_aarch64-elf\\aarch64-elf\\include\\c++\\7.2.1\\aarch64-elf\\bits\\gthr-default.h"
	.loc 2 230 0
	.cfi_startproc
	sub	sp, sp, #16
	.cfi_def_cfa_offset 16
	str	w0, [sp, 12]
	.loc 2 231 0
	mov	w0, 0
	.loc 2 232 0
	add	sp, sp, 16
	.cfi_def_cfa_offset 0
	ret
	.cfi_endproc
.LFE835:
	.size	_ZL20__gthread_key_deletei, .-_ZL20__gthread_key_deletei
	.section	.rodata
	.align	3
	.type	_ZStL13allocator_arg, %object
	.size	_ZStL13allocator_arg, 1
_ZStL13allocator_arg:
	.zero	1
	.align	3
	.type	_ZStL6ignore, %object
	.size	_ZStL6ignore, 1
_ZStL6ignore:
	.zero	1
	.align	1
	.type	_ZL11PID_INVALID, %object
	.size	_ZL11PID_INVALID, 2
_ZL11PID_INVALID:
	.zero	2
	.align	1
	.type	_ZL11PID_CURRENT, %object
	.size	_ZL11PID_CURRENT, 2
_ZL11PID_CURRENT:
	.hword	1
	.align	1
	.type	_ZL10PID_PARENT, %object
	.size	_ZL10PID_PARENT, 2
_ZL10PID_PARENT:
	.hword	2
	.align	3
.LC3:
	.string	"[FATAL] "
	.align	3
.LC4:
	.string	"create process failed\n"
	.text
	.align	2
	.global	main
	.type	main, %function
main:
.LFB1592:
	.file 3 "D:/Pool/eclipse-workspace_aarch64/newspace/raspiOS/src/arch/qemu_virt/main_run_process.cpp"
	.loc 3 23 0
	.cfi_startproc
	stp	x29, x30, [sp, -160]!
	.cfi_def_cfa_offset 160
	.cfi_offset 29, -160
	.cfi_offset 30, -152
	add	x29, sp, 0
	.cfi_def_cfa_register 29
	str	x19, [sp, 16]
	.cfi_offset 19, -144
	.loc 3 24 0
	bl	_Z9enableMMUv
	cmp	w0, 0
	cset	w0, ne
	and	w0, w0, 255
	cmp	w0, 0
	beq	.L6
	.loc 3 25 0
	mov	w0, 1
	b	.L21
.L6:
.LBB78:
.LBB79:
	.file 4 "D:\\Pool\\eclipse-workspace_aarch64\\newspace\\raspiOS\\include/arch/common_aarch64/system_common_registers.h"
	.loc 4 716 0
	// Start of user assembly
// 716 "D:\Pool\eclipse-workspace_aarch64\newspace\raspiOS\include/arch/common_aarch64/system_common_registers.h" 1
	mrs x0,TCR_EL1
	
// 0 "" 2
	// End of user assembly
	str	x0, [x29, 40]
	ldr	x0, [x29, 40]
	str	x0, [x29, 56]
.LBE79:
.LBE78:
	.loc 3 27 0
	ldrb	w0, [x29, 58]
	ubfx	x0, x0, 0, 6
	and	w0, w0, 255
	and	x0, x0, 255
	str	x0, [x29, 96]
.LBB80:
.LBB81:
	.file 5 "D:\\Pool\\eclipse-workspace_aarch64\\newspace\\raspiOS\\include/generic_util.h"
	.loc 5 54 0
	ldr	x0, [x29, 96]
	mov	w1, w0
	mov	w0, 64
	sub	w0, w0, w1
	mov	x1, -1
	lsr	x1, x1, x0
	ldr	x0, [x29, 96]
	mov	w2, w0
	mov	w0, 64
	sub	w0, w0, w2
	lsl	x0, x1, x0
.LBE81:
.LBE80:
	.loc 3 27 0
	str	x0, [x29, 152]
	.loc 3 34 0
	ldr	x1, [x29, 152]
	// Start of user assembly
// 34 "D:/Pool/eclipse-workspace_aarch64/newspace/raspiOS/src/arch/qemu_virt/main_run_process.cpp" 1
	mov x0,sp 
	orr x0,x0,x1 
	mov sp,x0 
	orr x29,x29, x1 
	
// 0 "" 2
	.loc 3 39 0
	// End of user assembly
	adrp	x0, mainStart
	add	x1, x0, :lo12:mainStart
	ldr	x0, [x29, 152]
	orr	x1, x1, x0
	ldr	x0, [x29, 48]
	bfi	x0, x1, 0, 64
	str	x0, [x29, 48]
.LBB82:
.LBB83:
	.loc 4 631 0
	ldr	x0, [x29, 48]
	// Start of user assembly
// 631 "D:\Pool\eclipse-workspace_aarch64\newspace\raspiOS\include/arch/common_aarch64/system_common_registers.h" 1
	br x0
	
// 0 "" 2
.L10:
	// End of user assembly
.LBE83:
.LBE82:
	.loc 3 41 0
	// Start of user assembly
// 41 "D:/Pool/eclipse-workspace_aarch64/newspace/raspiOS/src/arch/qemu_virt/main_run_process.cpp" 1
	mainStart:
	
// 0 "" 2
	.loc 3 46 0
	// End of user assembly
	adrp	x0, ramEnd
	add	x1, x0, :lo12:ramEnd
	adrp	x0, ramStart
	add	x0, x0, :lo12:ramStart
	sub	x0, x1, x0
	str	x0, [x29, 144]
	.loc 3 47 0
	adrp	x0, mman
	add	x0, x0, :lo12:mman
	mov	x1, x0
	mov	x0, 24
	bl	_ZnwmPv
	mov	x4, x0
	cmp	x4, 0
	beq	.L12
	.loc 3 47 0 is_stmt 0 discriminator 1
	adrp	x0, ramStart
	add	x1, x0, :lo12:ramStart
	ldr	x0, [x29, 152]
	orr	x0, x1, x0
	mov	w3, 1
	ldr	x2, [x29, 144]
	mov	x1, x0
	mov	x0, x4
	bl	_ZN13MemoryManagerC1EPvmb
.L12:
	.loc 3 50 0 is_stmt 1
	adrp	x0, pidManager
	add	x0, x0, :lo12:pidManager
	mov	x1, x0
	mov	x0, 128
	bl	_ZnwmPv
	cmp	x0, 0
	beq	.L14
	.loc 3 50 0 is_stmt 0 discriminator 1
	bl	_ZN10PidManagerC1Ev
.L14:
	.loc 3 51 0 is_stmt 1
	adrp	x0, processManager
	add	x0, x0, :lo12:processManager
	mov	x1, x0
	mov	x0, 112
	bl	_ZnwmPv
	cmp	x0, 0
	beq	.L16
	.loc 3 51 0 is_stmt 0 discriminator 1
	bl	_ZN14ProcessManagerC1Ev
.L16:
	.loc 3 55 0 is_stmt 1
	ldrb	w0, [x29, 56]
	ubfx	x0, x0, 0, 6
	and	w0, w0, 255
	mov	w1, w0
	mov	w0, 64
	sub	w0, w0, w1
	str	w0, [x29, 68]
	.loc 3 54 0
	str	xzr, [x29, 72]
	mov	w0, 10
	str	w0, [x29, 80]
	mov	w0, 20480
	str	w0, [x29, 84]
	.loc 3 59 0
	mov	w0, 8192
	str	w0, [x29, 88]
	.loc 3 60 0
	mov	w0, 8192
	str	w0, [x29, 92]
	.loc 3 61 0
	add	x6, x29, 92
	add	x5, x29, 88
	add	x4, x29, 84
	add	x3, x29, 80
	add	x2, x29, 72
	add	x1, x29, 68
	adrp	x0, processManager
	add	x0, x0, :lo12:processManager
	bl	_ZN14ProcessManager16createNewProcessIJiDniiiiEEEP16DoublyLinkedNodeI7ProcessEDpOT_
	str	x0, [x29, 136]
	.loc 3 62 0
	ldr	x0, [x29, 136]
	bl	_ZN16DoublyLinkedNodeI7ProcessE4dataILb1EEEN18ReturnTypeSelectorIS0_XT_ELb0EE4typeEv
	str	x0, [x29, 128]
	.loc 3 63 0
	ldr	x0, [x29, 136]
	cmp	x0, 0
	beq	.L17
	.loc 3 64 0 discriminator 2
	ldr	x0, [x29, 128]
	bl	_ZNK7Process6statusEv
	.loc 3 63 0 discriminator 2
	cmp	w0, 0
	bne	.L18
.L17:
	.loc 3 63 0 is_stmt 0 discriminator 3
	mov	w0, 1
	b	.L19
.L18:
	.loc 3 63 0 discriminator 4
	mov	w0, 0
.L19:
	.loc 3 63 0 discriminator 6
	cmp	w0, 0
	beq	.L20
	.loc 3 66 0 is_stmt 1
	adrp	x0, .LC3
	add	x1, x0, :lo12:.LC3
	adrp	x0, kout
	add	x0, x0, :lo12:kout
	bl	_ZN6OutputlsEPKc
	mov	x2, x0
	adrp	x0, .LC4
	add	x0, x0, :lo12:.LC4
	mov	x1, x0
	mov	x0, x2
	bl	_ZN6OutputlsEPKc
	.loc 3 67 0
	mov	w0, 1
	b	.L21
.L20:
	.loc 3 71 0
	ldr	x0, [x29, 128]
	bl	_ZNK7Process8codeBaseEv
	str	x0, [x29, 120]
	.loc 3 72 0
	ldr	x0, [x29, 152]
	orr	x0, x0, 524288
	str	x0, [x29, 112]
	.loc 3 73 0
	mov	x2, 20480
	ldr	x1, [x29, 112]
	ldr	x0, [x29, 120]
	bl	memcpy
	.loc 3 75 0
	ldr	x0, [x29, 128]
	bl	_ZNK7Process3ELREv
	mov	x19, x0
	ldr	x0, [x29, 128]
	bl	_ZN7Process9registersEv
	add	x0, x0, 240
	mov	x1, x19
	str	x1, [x0]
	.loc 3 78 0
	adrp	x0, processManager
	add	x0, x0, :lo12:processManager
	mov	w2, 3
	ldr	x1, [x29, 136]
	bl	_ZN14ProcessManager19changeProcessStatusEP16DoublyLinkedNodeI7ProcessENS1_6StatusE
	.loc 3 81 0
	adrp	x0, __stack_top
	add	x1, x0, :lo12:__stack_top
	ldr	x0, [x29, 152]
	orr	x0, x1, x0
	str	x0, [x29, 104]
	.loc 3 82 0
	ldr	x1, [x29, 104]
	ldr	x0, [x29, 128]
	bl	_ZN7Process24restoreContextAndExecuteEPv
	.loc 3 84 0
	mov	w0, 0
.L21:
	.loc 3 85 0 discriminator 1
	ldr	x19, [sp, 16]
	ldp	x29, x30, [sp], 160
	.cfi_restore 30
	.cfi_restore 29
	.cfi_restore 19
	.cfi_def_cfa 31, 0
	ret
	.cfi_endproc
.LFE1592:
	.size	main, .-main
	.section	.rodata
	.align	3
.LC5:
	.string	" Not at EL1 \n"
	.align	3
.LC6:
	.string	"ID_AA64MMFR0_EL1 : "
	.align	3
.LC7:
	.string	"PARange = "
	.align	3
.LC8:
	.string	","
	.align	3
.LC9:
	.string	"ASIDBits = "
	.align	3
.LC10:
	.string	"BigEnd = "
	.align	3
.LC11:
	.string	"SNSMem = "
	.align	3
.LC12:
	.string	"BigEndEL0 = "
	.align	3
.LC13:
	.string	"TGran16 = "
	.align	3
.LC14:
	.string	"TGran64 = "
	.align	3
.LC15:
	.string	"TGran4 = "
	.align	3
.LC16:
	.string	"RES0 = "
	.align	3
.LC17:
	.string	"\n"
	.align	3
.LC18:
	.string	"4KB granule is not supported\n"
	.align	3
.LC19:
	.string	"PARange not supported\n"
	.align	3
.LC20:
	.string	"[INFO] "
	.align	3
.LC21:
	.string	"PARange is 52, we need to reduce it to 48\n"
	.align	3
.LC22:
	.string	"Initial level not at 0,which this program designed for specifically."
	.align	3
.LC23:
	.string	"end of main overflows, meaning that it may not be flatten mapped.\n"
	.align	3
.LC24:
	.string	"L0Table = "
	.align	3
.LC25:
	.string	"L1Table = "
	.align	3
.LC26:
	.string	"TTBR0_EL1 : "
	.align	3
.LC27:
	.string	"CnP = "
	.align	3
.LC28:
	.string	"BADDR = "
	.align	3
.LC29:
	.string	"ASID = "
	.align	3
.LC30:
	.string	"TTBR1_EL1 : "
	.align	3
.LC31:
	.string	"TCR_EL1 : "
	.align	3
.LC32:
	.string	"T0SZ = "
	.align	3
.LC33:
	.string	"RES0_0 = "
	.align	3
.LC34:
	.string	"EPD0 = "
	.align	3
.LC35:
	.string	"IRGN0 = "
	.align	3
.LC36:
	.string	"ORGN0 = "
	.align	3
.LC37:
	.string	"SH0 = "
	.align	3
.LC38:
	.string	"TG0 = "
	.align	3
.LC39:
	.string	"T1SZ = "
	.align	3
.LC40:
	.string	"A1 = "
	.align	3
.LC41:
	.string	"EPD1 = "
	.align	3
.LC42:
	.string	"IRGN1 = "
	.align	3
.LC43:
	.string	"ORGN1 = "
	.align	3
.LC44:
	.string	"SH1 = "
	.align	3
.LC45:
	.string	"TG1 = "
	.align	3
.LC46:
	.string	"IPS = "
	.align	3
.LC47:
	.string	"RES0_1 = "
	.align	3
.LC48:
	.string	"AS = "
	.align	3
.LC49:
	.string	"TBI0 = "
	.align	3
.LC50:
	.string	"TBI1 = "
	.align	3
.LC51:
	.string	"HA = "
	.align	3
.LC52:
	.string	"HD = "
	.align	3
.LC53:
	.string	"HPD0 = "
	.align	3
.LC54:
	.string	"HPD1 = "
	.align	3
.LC55:
	.string	"HWU059 = "
	.align	3
.LC56:
	.string	"HWU060 = "
	.align	3
.LC57:
	.string	"HWU061 = "
	.align	3
.LC58:
	.string	"HWU062 = "
	.align	3
.LC59:
	.string	"HWU159 = "
	.align	3
.LC60:
	.string	"HWU160 = "
	.align	3
.LC61:
	.string	"HWU161 = "
	.align	3
.LC62:
	.string	"HWU162 = "
	.align	3
.LC63:
	.string	"RES0_2 = "
	.align	3
.LC64:
	.string	"NFD0 = "
	.align	3
.LC65:
	.string	"NFD1 = "
	.align	3
.LC66:
	.string	"RES0_3 = "
	.align	3
.LC67:
	.string	"Descriptor4KBL0 : "
	.align	3
.LC68:
	.string	"Valid = "
	.align	3
.LC69:
	.string	"IsTable = "
	.align	3
.LC70:
	.string	"Ignored_0 = "
	.align	3
.LC71:
	.string	"NextLevelTableAddr = "
	.align	3
.LC72:
	.string	"Ignored_1 = "
	.align	3
.LC73:
	.string	"PXNTable = "
	.align	3
.LC74:
	.string	"XNTable = "
	.align	3
.LC75:
	.string	"APTable = "
	.align	3
.LC76:
	.string	"NSTable = "
	.align	3
.LC77:
	.string	"Descriptor4KBL1 : "
	.align	3
.LC78:
	.string	"S0.Valid = "
	.align	3
.LC79:
	.string	"S0.IsTable = "
	.align	3
.LC80:
	.string	"S0.AttrIndex = "
	.align	3
.LC81:
	.string	"S0.NS = "
	.align	3
.LC82:
	.string	"S0.AP = "
	.align	3
.LC83:
	.string	"S0.SH = "
	.align	3
.LC84:
	.string	"S0.AF = "
	.align	3
.LC85:
	.string	"S0.nG = "
	.align	3
.LC86:
	.string	"S0.RES0_0 = "
	.align	3
.LC87:
	.string	"S0.OutputAddr = "
	.align	3
.LC88:
	.string	"S0.RES0_1 = "
	.align	3
.LC89:
	.string	"S0.Contiguous = "
	.align	3
.LC90:
	.string	"S0.PXN = "
	.align	3
.LC91:
	.string	"S0.UXN = "
	.align	3
.LC92:
	.string	"S0.Reserved = "
	.align	3
.LC93:
	.string	"S0.PBHA = "
	.align	3
.LC94:
	.string	"S0.Ignored = "
	.align	3
.LC95:
	.string	"S1.Valid = "
	.align	3
.LC96:
	.string	"S1.IsTable = "
	.align	3
.LC97:
	.string	"S1.Ignored_0 = "
	.align	3
.LC98:
	.string	"S1.NextLevelTableAddr = "
	.align	3
.LC99:
	.string	"S1.RES0 = "
	.align	3
.LC100:
	.string	"S1.Ignored_1 = "
	.align	3
.LC101:
	.string	"S1.PXNTable = "
	.align	3
.LC102:
	.string	"S1.XNTable = "
	.align	3
.LC103:
	.string	"S1.APTable = "
	.align	3
.LC104:
	.string	"S1.NSTable = "
	.align	3
.LC105:
	.string	"SCTLR_EL1 : "
	.align	3
.LC106:
	.string	"M = "
	.align	3
.LC107:
	.string	"A = "
	.align	3
.LC108:
	.string	"C = "
	.align	3
.LC109:
	.string	"SA = "
	.align	3
.LC110:
	.string	"SA0 = "
	.align	3
.LC111:
	.string	"CP15BEN = "
	.align	3
.LC112:
	.string	"ITD = "
	.align	3
.LC113:
	.string	"SED = "
	.align	3
.LC114:
	.string	"UMA = "
	.align	3
.LC115:
	.string	"RES1_2 = "
	.align	3
.LC116:
	.string	"I = "
	.align	3
.LC117:
	.string	"DZE = "
	.align	3
.LC118:
	.string	"UCT = "
	.align	3
.LC119:
	.string	"nTWI = "
	.align	3
.LC120:
	.string	"RES0_4 = "
	.align	3
.LC121:
	.string	"nTWE = "
	.align	3
.LC122:
	.string	"WXN = "
	.align	3
.LC123:
	.string	"RES1_5 = "
	.align	3
.LC124:
	.string	"IESB = "
	.align	3
.LC125:
	.string	"RES1_6 = "
	.align	3
.LC126:
	.string	"SPAN = "
	.align	3
.LC127:
	.string	"E0E = "
	.align	3
.LC128:
	.string	"EE = "
	.align	3
.LC129:
	.string	"UCI = "
	.align	3
.LC130:
	.string	"RES0_7 = "
	.align	3
.LC131:
	.string	"nTLSMD = "
	.align	3
.LC132:
	.string	"LSMAOE = "
	.align	3
.LC133:
	.string	"RES0_8 = "
	.align	3
.LC134:
	.string	"PAN not supported\n"
	.align	3
.LC135:
	.string	"PAN : "
	.align	3
.LC136:
	.string	"PAN = "
	.align	3
.LC137:
	.string	"Successfully set TTBR0\n"
	.align	3
.LC138:
	.string	"afterMMUSet = "
	.align	3
.LC139:
	.string	"mainEnd = "
	.align	3
.LC140:
	.string	"Successfully enabled MMU\n"
	.align	3
.LC141:
	.string	"end enableMMU.\n"
	.text
	.align	2
	.global	_Z9enableMMUv
	.type	_Z9enableMMUv, %function
_Z9enableMMUv:
.LFB1593:
	.loc 3 88 0
	.cfi_startproc
	stp	x29, x30, [sp, -448]!
	.cfi_def_cfa_offset 448
	.cfi_offset 29, -448
	.cfi_offset 30, -440
	add	x29, sp, 0
	.cfi_def_cfa_register 29
	str	x19, [sp, 16]
	.cfi_offset 19, -432
.LBB84:
.LBB85:
	.loc 4 25 0
	// Start of user assembly
// 25 "D:\Pool\eclipse-workspace_aarch64\newspace\raspiOS\include/arch/common_aarch64/system_common_registers.h" 1
	mrs x0,CurrentEL
	
// 0 "" 2
	// End of user assembly
	str	w0, [x29, 40]
	ldr	w0, [x29, 40]
	str	w0, [x29, 264]
.LBE85:
.LBE84:
	.loc 3 94 0
	ldrb	w0, [x29, 264]
	and	w0, w0, 12
	and	w0, w0, 255
	cmp	w0, 4
	beq	.L24
	.loc 3 96 0
	adrp	x0, .LC3
	add	x1, x0, :lo12:.LC3
	adrp	x0, kout
	add	x0, x0, :lo12:kout
	bl	_ZN6OutputlsEPKc
	mov	x2, x0
	adrp	x0, .LC5
	add	x0, x0, :lo12:.LC5
	mov	x1, x0
	mov	x0, x2
	bl	_ZN6OutputlsEPKc
	.loc 3 97 0
	mov	w0, 1
	b	.L51
.L24:
	.loc 3 100 0
	str	wzr, [x29, 256]
	.loc 3 101 0
	ldrb	w0, [x29, 256]
	orr	w0, w0, 1
	strb	w0, [x29, 256]
.LBB86:
.LBB87:
	.loc 4 589 0
	ldr	w0, [x29, 256]
	// Start of user assembly
// 589 "D:\Pool\eclipse-workspace_aarch64\newspace\raspiOS\include/arch/common_aarch64/system_common_registers.h" 1
	msr SPSel,x0 
	
// 0 "" 2
	// End of user assembly
.LBE87:
.LBE86:
	.loc 3 109 0
	adrp	x0, ExceptionVectorEL1
	add	x1, x0, :lo12:ExceptionVectorEL1
	ldr	x0, [x29, 248]
	bfi	x0, x1, 0, 64
	str	x0, [x29, 248]
.LBB88:
.LBB89:
	.loc 4 75 0
	ldr	x0, [x29, 248]
	// Start of user assembly
// 75 "D:\Pool\eclipse-workspace_aarch64\newspace\raspiOS\include/arch/common_aarch64/system_common_registers.h" 1
	msr VBAR_EL1,x0 
	
// 0 "" 2
	// End of user assembly
.LBE89:
.LBE88:
.LBB90:
.LBB91:
	.loc 4 850 0
	// Start of user assembly
// 850 "D:\Pool\eclipse-workspace_aarch64\newspace\raspiOS\include/arch/common_aarch64/system_common_registers.h" 1
	mrs x0,ID_AA64MMFR0_EL1
	
// 0 "" 2
	// End of user assembly
	str	x0, [x29, 48]
	ldr	x0, [x29, 48]
.LBE91:
.LBE90:
	.loc 3 113 0
	str	x0, [x29, 240]
.LBB92:
.LBB93:
	.loc 4 834 0
	adrp	x0, .LC6
	add	x1, x0, :lo12:.LC6
	adrp	x0, kout
	add	x0, x0, :lo12:kout
	bl	_ZN6OutputlsEPKc
	mov	x2, x0
	.loc 4 835 0
	adrp	x0, .LC7
	add	x0, x0, :lo12:.LC7
	mov	x1, x0
	mov	x0, x2
	bl	_ZN6OutputlsEPKc
	mov	x2, x0
	ldrb	w0, [x29, 240]
	ubfx	x0, x0, 0, 4
	and	w0, w0, 255
	and	x0, x0, 255
	mov	x1, x0
	mov	x0, x2
	bl	_ZN6OutputlsEm
	mov	x2, x0
	adrp	x0, .LC8
	add	x0, x0, :lo12:.LC8
	mov	x1, x0
	mov	x0, x2
	bl	_ZN6OutputlsEPKc
	mov	x2, x0
	.loc 4 836 0
	adrp	x0, .LC9
	add	x0, x0, :lo12:.LC9
	mov	x1, x0
	mov	x0, x2
	bl	_ZN6OutputlsEPKc
	mov	x2, x0
	ldrb	w0, [x29, 240]
	ubfx	x0, x0, 4, 4
	and	w0, w0, 255
	and	x0, x0, 255
	mov	x1, x0
	mov	x0, x2
	bl	_ZN6OutputlsEm
	mov	x2, x0
	adrp	x0, .LC8
	add	x0, x0, :lo12:.LC8
	mov	x1, x0
	mov	x0, x2
	bl	_ZN6OutputlsEPKc
	mov	x2, x0
	.loc 4 837 0
	adrp	x0, .LC10
	add	x0, x0, :lo12:.LC10
	mov	x1, x0
	mov	x0, x2
	bl	_ZN6OutputlsEPKc
	mov	x2, x0
	ldrb	w0, [x29, 241]
	ubfx	x0, x0, 0, 4
	and	w0, w0, 255
	and	x0, x0, 255
	mov	x1, x0
	mov	x0, x2
	bl	_ZN6OutputlsEm
	mov	x2, x0
	adrp	x0, .LC8
	add	x0, x0, :lo12:.LC8
	mov	x1, x0
	mov	x0, x2
	bl	_ZN6OutputlsEPKc
	mov	x2, x0
	.loc 4 838 0
	adrp	x0, .LC11
	add	x0, x0, :lo12:.LC11
	mov	x1, x0
	mov	x0, x2
	bl	_ZN6OutputlsEPKc
	mov	x2, x0
	ldrb	w0, [x29, 241]
	ubfx	x0, x0, 4, 4
	and	w0, w0, 255
	and	x0, x0, 255
	mov	x1, x0
	mov	x0, x2
	bl	_ZN6OutputlsEm
	mov	x2, x0
	adrp	x0, .LC8
	add	x0, x0, :lo12:.LC8
	mov	x1, x0
	mov	x0, x2
	bl	_ZN6OutputlsEPKc
	mov	x2, x0
	.loc 4 839 0
	adrp	x0, .LC12
	add	x0, x0, :lo12:.LC12
	mov	x1, x0
	mov	x0, x2
	bl	_ZN6OutputlsEPKc
	mov	x2, x0
	ldrb	w0, [x29, 242]
	ubfx	x0, x0, 0, 4
	and	w0, w0, 255
	and	x0, x0, 255
	mov	x1, x0
	mov	x0, x2
	bl	_ZN6OutputlsEm
	mov	x2, x0
	adrp	x0, .LC8
	add	x0, x0, :lo12:.LC8
	mov	x1, x0
	mov	x0, x2
	bl	_ZN6OutputlsEPKc
	mov	x2, x0
	.loc 4 840 0
	adrp	x0, .LC13
	add	x0, x0, :lo12:.LC13
	mov	x1, x0
	mov	x0, x2
	bl	_ZN6OutputlsEPKc
	mov	x19, x0
	ldrb	w0, [x29, 242]
	ubfx	x0, x0, 4, 4
	and	w0, w0, 255
	and	x1, x0, 255
	add	x0, x29, 336
	bl	_ZN16IntegerFormatterILi16EEC1Em
	add	x0, x29, 336
	mov	x1, x0
	mov	x0, x19
	bl	_ZlsILi16EER6OutputS1_RK16IntegerFormatterIXT_EE
	mov	x2, x0
	adrp	x0, .LC8
	add	x0, x0, :lo12:.LC8
	mov	x1, x0
	mov	x0, x2
	bl	_ZN6OutputlsEPKc
	mov	x2, x0
	.loc 4 841 0
	adrp	x0, .LC14
	add	x0, x0, :lo12:.LC14
	mov	x1, x0
	mov	x0, x2
	bl	_ZN6OutputlsEPKc
	mov	x19, x0
	ldrb	w0, [x29, 243]
	ubfx	x0, x0, 0, 4
	and	w0, w0, 255
	and	x1, x0, 255
	add	x0, x29, 328
	bl	_ZN16IntegerFormatterILi16EEC1Em
	add	x0, x29, 328
	mov	x1, x0
	mov	x0, x19
	bl	_ZlsILi16EER6OutputS1_RK16IntegerFormatterIXT_EE
	mov	x2, x0
	adrp	x0, .LC8
	add	x0, x0, :lo12:.LC8
	mov	x1, x0
	mov	x0, x2
	bl	_ZN6OutputlsEPKc
	mov	x2, x0
	.loc 4 842 0
	adrp	x0, .LC15
	add	x0, x0, :lo12:.LC15
	mov	x1, x0
	mov	x0, x2
	bl	_ZN6OutputlsEPKc
	mov	x19, x0
	ldrb	w0, [x29, 243]
	ubfx	x0, x0, 4, 4
	and	w0, w0, 255
	and	x1, x0, 255
	add	x0, x29, 320
	bl	_ZN16IntegerFormatterILi16EEC1Em
	add	x0, x29, 320
	mov	x1, x0
	mov	x0, x19
	bl	_ZlsILi16EER6OutputS1_RK16IntegerFormatterIXT_EE
	mov	x2, x0
	adrp	x0, .LC8
	add	x0, x0, :lo12:.LC8
	mov	x1, x0
	mov	x0, x2
	bl	_ZN6OutputlsEPKc
	mov	x2, x0
	.loc 4 843 0
	adrp	x0, .LC16
	add	x0, x0, :lo12:.LC16
	mov	x1, x0
	mov	x0, x2
	bl	_ZN6OutputlsEPKc
	mov	x2, x0
	ldr	w0, [x29, 244]
	uxtw	x0, w0
	mov	x1, x0
	mov	x0, x2
	bl	_ZN6OutputlsEm
	mov	x2, x0
	.loc 4 844 0
	adrp	x0, .LC17
	add	x0, x0, :lo12:.LC17
	mov	x1, x0
	mov	x0, x2
	bl	_ZN6OutputlsEPKc
.LBE93:
.LBE92:
	.loc 3 115 0
	ldrb	w0, [x29, 243]
	and	w0, w0, -16
	and	w0, w0, 255
	cmp	w0, 0
	beq	.L27
	.loc 3 117 0
	adrp	x0, .LC3
	add	x1, x0, :lo12:.LC3
	adrp	x0, kout
	add	x0, x0, :lo12:kout
	bl	_ZN6OutputlsEPKc
	mov	x2, x0
	adrp	x0, .LC18
	add	x0, x0, :lo12:.LC18
	mov	x1, x0
	mov	x0, x2
	bl	_ZN6OutputlsEPKc
	.loc 3 118 0
	mov	w0, 1
	b	.L51
.L27:
	.loc 3 121 0
	adrp	x0, .LC0
	add	x1, x0, :lo12:.LC0
	add	x0, x29, 208
	ldp	x2, x3, [x1]
	stp	x2, x3, [x0]
	ldr	x2, [x1, 16]
	str	x2, [x0, 16]
	ldr	w1, [x1, 24]
	str	w1, [x0, 24]
	.loc 3 122 0
	adrp	x0, .LC1
	add	x1, x0, :lo12:.LC1
	add	x0, x29, 176
	ldp	x2, x3, [x1]
	stp	x2, x3, [x0]
	ldr	x2, [x1, 16]
	str	x2, [x0, 16]
	ldr	w1, [x1, 24]
	str	w1, [x0, 24]
	.loc 3 124 0
	adrp	x0, .LC2
	add	x1, x0, :lo12:.LC2
	add	x0, x29, 144
	ldp	x2, x3, [x1]
	stp	x2, x3, [x0]
	ldr	x2, [x1, 16]
	str	x2, [x0, 16]
	ldr	w1, [x1, 24]
	str	w1, [x0, 24]
	.loc 3 126 0
	ldrb	w0, [x29, 240]
	ubfx	x0, x0, 0, 4
	and	w0, w0, 255
	cmp	w0, 6
	bls	.L28
	.loc 3 128 0
	adrp	x0, .LC3
	add	x1, x0, :lo12:.LC3
	adrp	x0, kout
	add	x0, x0, :lo12:kout
	bl	_ZN6OutputlsEPKc
	mov	x2, x0
	adrp	x0, .LC19
	add	x0, x0, :lo12:.LC19
	mov	x1, x0
	mov	x0, x2
	bl	_ZN6OutputlsEPKc
	.loc 3 129 0
	mov	w0, 1
	b	.L51
.L28:
	.loc 3 131 0
	ldrb	w0, [x29, 240]
	ubfx	x0, x0, 0, 4
	and	w0, w0, 255
	str	w0, [x29, 444]
	.loc 3 132 0
	ldrsw	x0, [x29, 444]
	lsl	x0, x0, 2
	add	x1, x29, 208
	ldr	w0, [x1, x0]
	cmp	w0, 52
	bne	.L29
	.loc 3 134 0
	adrp	x0, .LC20
	add	x1, x0, :lo12:.LC20
	adrp	x0, kout
	add	x0, x0, :lo12:kout
	bl	_ZN6OutputlsEPKc
	mov	x2, x0
	adrp	x0, .LC21
	add	x0, x0, :lo12:.LC21
	mov	x1, x0
	mov	x0, x2
	bl	_ZN6OutputlsEPKc
	.loc 3 135 0
	ldr	w0, [x29, 444]
	sub	w0, w0, #1
	str	w0, [x29, 444]
.L29:
	.loc 3 138 0
	ldrsw	x0, [x29, 444]
	lsl	x0, x0, 2
	add	x1, x29, 144
	ldr	w0, [x1, x0]
	cmp	w0, 0
	beq	.L30
	.loc 3 140 0
	adrp	x0, .LC3
	add	x1, x0, :lo12:.LC3
	adrp	x0, kout
	add	x0, x0, :lo12:kout
	bl	_ZN6OutputlsEPKc
	mov	x2, x0
	adrp	x0, .LC22
	add	x0, x0, :lo12:.LC22
	mov	x1, x0
	mov	x0, x2
	bl	_ZN6OutputlsEPKc
	.loc 3 141 0
	mov	w0, 1
	b	.L51
.L30:
.LBB94:
.LBB95:
	.loc 4 716 0
	// Start of user assembly
// 716 "D:\Pool\eclipse-workspace_aarch64\newspace\raspiOS\include/arch/common_aarch64/system_common_registers.h" 1
	mrs x0,TCR_EL1
	
// 0 "" 2
	// End of user assembly
	str	x0, [x29, 56]
	ldr	x0, [x29, 56]
.LBE95:
.LBE94:
	.loc 3 145 0
	str	x0, [x29, 136]
	.loc 3 147 0
	ldrb	w0, [x29, 140]
	and	w0, w0, -65
	strb	w0, [x29, 140]
	ldrb	w0, [x29, 140]
	ubfx	x0, x0, 6, 1
	and	w1, w0, 255
	ldrb	w0, [x29, 140]
	bfi	w0, w1, 5, 1
	strb	w0, [x29, 140]
	.loc 3 149 0
	ldr	w0, [x29, 444]
	and	w0, w0, 7
	and	w1, w0, 255
	ldrb	w0, [x29, 140]
	bfi	w0, w1, 0, 3
	strb	w0, [x29, 140]
	.loc 3 151 0
	ldrsw	x0, [x29, 444]
	lsl	x0, x0, 2
	add	x1, x29, 208
	ldr	w0, [x1, x0]
	and	w0, w0, 255
	mov	w1, 64
	sub	w0, w1, w0
	and	w0, w0, 255
	and	w0, w0, 63
	and	w1, w0, 255
	ldrb	w0, [x29, 138]
	bfi	w0, w1, 0, 6
	strb	w0, [x29, 138]
	ldrb	w0, [x29, 138]
	ubfx	x0, x0, 0, 6
	and	w1, w0, 255
	ldrb	w0, [x29, 136]
	bfi	w0, w1, 0, 6
	strb	w0, [x29, 136]
	.loc 3 152 0
	ldrb	w0, [x29, 138]
	and	w0, w0, -65
	strb	w0, [x29, 138]
	.loc 3 153 0
	ldrb	w0, [x29, 137]
	and	w0, w0, 63
	strb	w0, [x29, 137]
	.loc 3 154 0
	ldrb	w0, [x29, 139]
	mov	w1, 2
	bfi	w0, w1, 6, 2
	strb	w0, [x29, 139]
	.loc 3 155 0
	ldrb	w0, [x29, 139]
	mov	w1, 2
	bfi	w0, w1, 4, 2
	strb	w0, [x29, 139]
	ldrb	w0, [x29, 139]
	ubfx	x0, x0, 4, 2
	and	w1, w0, 255
	ldrb	w0, [x29, 137]
	bfi	w0, w1, 4, 2
	strb	w0, [x29, 137]
	.loc 3 156 0
	ldrb	w0, [x29, 139]
	mov	w1, 1
	bfi	w0, w1, 0, 2
	strb	w0, [x29, 139]
	ldrb	w0, [x29, 139]
	ubfx	x0, x0, 0, 2
	and	w1, w0, 255
	ldrb	w0, [x29, 137]
	bfi	w0, w1, 0, 2
	strb	w0, [x29, 137]
	.loc 3 157 0
	ldrb	w0, [x29, 139]
	mov	w1, 1
	bfi	w0, w1, 2, 2
	strb	w0, [x29, 139]
	ldrb	w0, [x29, 139]
	ubfx	x0, x0, 2, 2
	and	w1, w0, 255
	ldrb	w0, [x29, 137]
	bfi	w0, w1, 2, 2
	strb	w0, [x29, 137]
	.loc 3 158 0
	ldrb	w0, [x29, 138]
	and	w0, w0, 127
	strb	w0, [x29, 138]
	ldrb	w0, [x29, 138]
	ubfx	x0, x0, 7, 1
	and	w1, w0, 255
	ldrb	w0, [x29, 136]
	bfi	w0, w1, 7, 1
	strb	w0, [x29, 136]
.LBB96:
.LBB97:
	.loc 4 718 0
	ldr	x0, [x29, 136]
	// Start of user assembly
// 718 "D:\Pool\eclipse-workspace_aarch64\newspace\raspiOS\include/arch/common_aarch64/system_common_registers.h" 1
	msr TCR_EL1,x0 
	
// 0 "" 2
	// End of user assembly
.LBE97:
.LBE96:
	.loc 3 169 0
	str	xzr, [x29, 128]
	.loc 3 170 0
	strb	wzr, [x29, 128]
	.loc 3 171 0
	mov	w0, -1
	strb	w0, [x29, 129]
	.loc 3 172 0
	mov	w0, 68
	strb	w0, [x29, 131]
.LBB98:
.LBB99:
	.loc 4 1069 0
	ldr	x0, [x29, 128]
	// Start of user assembly
// 1069 "D:\Pool\eclipse-workspace_aarch64\newspace\raspiOS\include/arch/common_aarch64/system_common_registers.h" 1
	msr MAIR_EL1,x0 
	
// 0 "" 2
	// End of user assembly
.LBE99:
.LBE98:
	.loc 3 186 0
	adrp	x0, mainEnd
	add	x0, x0, :lo12:mainEnd
	lsr	x0, x0, 30
	cmp	x0, 0
	beq	.L32
	.loc 3 188 0
	adrp	x0, .LC3
	add	x1, x0, :lo12:.LC3
	adrp	x0, kout
	add	x0, x0, :lo12:kout
	bl	_ZN6OutputlsEPKc
	mov	x2, x0
	adrp	x0, .LC23
	add	x0, x0, :lo12:.LC23
	mov	x1, x0
	mov	x0, x2
	bl	_ZN6OutputlsEPKc
	.loc 3 189 0
	mov	w0, 1
	b	.L51
.L32:
	.loc 3 198 0
	adrp	x0, L0Table
	add	x0, x0, :lo12:L0Table
	str	x0, [x29, 432]
	.loc 3 199 0
	ldr	x0, [x29, 432]
	ldrb	w1, [x0]
	orr	w1, w1, 2
	strb	w1, [x0]
	.loc 3 200 0
	ldr	x0, [x29, 432]
	ldrb	w1, [x0]
	orr	w1, w1, 1
	strb	w1, [x0]
	.loc 3 201 0
	ldr	x0, [x29, 432]
	ldrb	w1, [x0, 6]
	and	w1, w1, -16
	strb	w1, [x0, 6]
	.loc 3 202 0
	ldr	x0, [x29, 432]
	ldrb	w1, [x0, 7]
	and	w1, w1, 127
	strb	w1, [x0, 7]
	mov	x0, 52
	str	x0, [x29, 408]
.LBB100:
.LBB101:
	.loc 5 54 0
	ldr	x0, [x29, 408]
	mov	w1, w0
	mov	w0, 64
	sub	w0, w0, w1
	mov	x1, -1
	lsr	x1, x1, x0
	ldr	x0, [x29, 408]
	mov	w2, w0
	mov	w0, 64
	sub	w0, w0, w2
	lsl	x1, x1, x0
.LBE101:
.LBE100:
	.loc 3 203 0
	adrp	x0, L1Table
	add	x0, x0, :lo12:L1Table
	and	x0, x1, x0
	lsr	x0, x0, 12
	and	x2, x0, 68719476735
	ldr	x1, [x29, 432]
	ldr	x0, [x1]
	bfi	x0, x2, 12, 36
	str	x0, [x1]
	.loc 3 204 0
	ldr	x0, [x29, 432]
	ldrb	w1, [x0, 7]
	and	w1, w1, -97
	strb	w1, [x0, 7]
	.loc 3 205 0
	ldr	x0, [x29, 432]
	ldrb	w1, [x0, 7]
	and	w1, w1, -9
	strb	w1, [x0, 7]
	.loc 3 206 0
	ldr	x0, [x29, 432]
	ldrb	w1, [x0, 7]
	and	w1, w1, -17
	strb	w1, [x0, 7]
	.loc 3 207 0
	ldr	x0, [x29, 432]
	ldrb	w1, [x0]
	and	w1, w1, 3
	strb	w1, [x0]
	ldrb	w1, [x0, 1]
	and	w1, w1, -16
	strb	w1, [x0, 1]
	.loc 3 208 0
	ldr	x0, [x29, 432]
	ldrb	w1, [x0, 6]
	and	w1, w1, 15
	strb	w1, [x0, 6]
	ldrb	w1, [x0, 7]
	and	w1, w1, -8
	strb	w1, [x0, 7]
	.loc 3 224 0
	adrp	x0, L1Table
	add	x0, x0, :lo12:L1Table
	str	x0, [x29, 424]
	.loc 3 225 0
	ldr	x0, [x29, 424]
	ldrb	w1, [x0]
	and	w1, w1, -3
	strb	w1, [x0]
	.loc 3 226 0
	ldr	x0, [x29, 424]
	ldrb	w1, [x0]
	orr	w1, w1, 32
	strb	w1, [x0]
	.loc 3 227 0
	ldr	x0, [x29, 424]
	ldrb	w1, [x0, 3]
	and	w1, w1, 63
	strb	w1, [x0, 3]
	ldrb	w1, [x0, 4]
	mov	w2, 0
	and	w1, w1, w2
	strb	w1, [x0, 4]
	ldrb	w1, [x0, 5]
	mov	w2, 0
	and	w1, w1, w2
	strb	w1, [x0, 5]
	.loc 3 228 0
	ldr	x0, [x29, 424]
	ldrb	w1, [x0, 1]
	orr	w1, w1, 4
	strb	w1, [x0, 1]
	.loc 3 229 0
	ldr	x1, [x29, 424]
	ldrb	w0, [x1]
	mov	w2, 1
	bfi	w0, w2, 2, 3
	strb	w0, [x1]
	.loc 3 230 0
	ldr	x0, [x29, 424]
	ldrb	w1, [x0]
	orr	w1, w1, 1
	strb	w1, [x0]
	.loc 3 231 0
	ldr	x0, [x29, 424]
	ldrb	w1, [x0, 6]
	and	w1, w1, -33
	strb	w1, [x0, 6]
	.loc 3 232 0
	ldr	x0, [x29, 424]
	ldrb	w1, [x0, 6]
	and	w1, w1, -65
	strb	w1, [x0, 6]
	.loc 3 233 0
	ldr	x0, [x29, 424]
	ldrb	w1, [x0, 6]
	orr	w1, w1, 16
	strb	w1, [x0, 6]
	.loc 3 234 0
	ldr	x0, [x29, 424]
	ldrb	w1, [x0, 1]
	and	w1, w1, -9
	strb	w1, [x0, 1]
	.loc 3 237 0
	ldr	x0, [x29, 424]
	ldrb	w1, [x0]
	and	w1, w1, 63
	strb	w1, [x0]
	.loc 3 238 0
	ldr	x0, [x29, 424]
	ldrb	w1, [x0]
	orr	w1, w1, 32
	strb	w1, [x0]
	.loc 3 239 0
	ldr	x1, [x29, 424]
	ldrb	w0, [x1, 1]
	mov	w2, 2
	bfi	w0, w2, 0, 2
	strb	w0, [x1, 1]
	.loc 3 240 0
	ldr	x0, [x29, 424]
	ldrb	w1, [x0, 7]
	and	w1, w1, 127
	strb	w1, [x0, 7]
	.loc 3 241 0
	ldr	x0, [x29, 424]
	ldrb	w1, [x0, 1]
	and	w1, w1, 15
	strb	w1, [x0, 1]
	ldrb	w1, [x0, 2]
	mov	w2, 0
	and	w1, w1, w2
	strb	w1, [x0, 2]
	ldrb	w1, [x0, 3]
	and	w1, w1, -64
	strb	w1, [x0, 3]
	.loc 3 242 0
	ldr	x0, [x29, 424]
	ldrb	w1, [x0, 6]
	and	w1, w1, -16
	strb	w1, [x0, 6]
	.loc 3 243 0
	ldr	x0, [x29, 424]
	ldrb	w1, [x0, 6]
	and	w1, w1, 127
	strb	w1, [x0, 6]
	ldrb	w1, [x0, 7]
	and	w1, w1, -8
	strb	w1, [x0, 7]
	.loc 3 246 0
	adrp	x0, L1Table
	add	x0, x0, :lo12:L1Table
	adrp	x1, L1Table
	add	x1, x1, :lo12:L1Table
	ldr	x1, [x1]
	str	x1, [x0, 8]
	.loc 3 247 0
	adrp	x0, L1Table
	add	x0, x0, :lo12:L1Table
	ldrb	w1, [x0, 8]
	and	w1, w1, 63
	strb	w1, [x0, 8]
	.loc 3 248 0
	adrp	x0, L1Table
	add	x0, x0, :lo12:L1Table
	add	x1, x0, 8
	ldr	x0, [x1]
	mov	x2, 1
	bfi	x0, x2, 30, 18
	str	x0, [x1]
	.loc 3 251 0
	str	xzr, [x29, 120]
	.loc 3 255 0
	ldrsw	x0, [x29, 444]
	lsl	x0, x0, 2
	add	x1, x29, 176
	ldr	w0, [x1, x0]
	mov	w1, 9
	sub	w0, w1, w0
	str	w0, [x29, 420]
	.loc 3 261 0
	adrp	x0, L0Table
	add	x0, x0, :lo12:L0Table
	lsr	x0, x0, 1
	and	x1, x0, 140737488355327
	ldr	x0, [x29, 120]
	bfi	x0, x1, 1, 47
	str	x0, [x29, 120]
	.loc 3 262 0
	ldrh	w0, [x29, 126]
	mov	w1, 0
	and	w0, w0, w1
	strh	w0, [x29, 126]
	.loc 3 263 0
	ldrb	w0, [x29, 120]
	and	w0, w0, -2
	strb	w0, [x29, 120]
	.loc 3 268 0
	str	xzr, [x29, 112]
	.loc 3 269 0
	ldr	x0, [x29, 120]
	ubfx	x1, x0, 1, 47
	ldr	x0, [x29, 112]
	bfi	x0, x1, 1, 47
	str	x0, [x29, 112]
	.loc 3 270 0
	ldrh	w0, [x29, 118]
	mov	w1, 0
	and	w0, w0, w1
	strh	w0, [x29, 118]
	.loc 3 271 0
	ldrb	w0, [x29, 112]
	and	w0, w0, -2
	strb	w0, [x29, 112]
.LBB102:
.LBB103:
	.loc 4 937 0
	ldr	x0, [x29, 120]
	// Start of user assembly
// 937 "D:\Pool\eclipse-workspace_aarch64\newspace\raspiOS\include/arch/common_aarch64/system_common_registers.h" 1
	msr TTBR0_EL1,x0 
	
// 0 "" 2
	// End of user assembly
.LBE103:
.LBE102:
.LBB104:
.LBB105:
	.loc 4 960 0
	ldr	x0, [x29, 112]
	// Start of user assembly
// 960 "D:\Pool\eclipse-workspace_aarch64\newspace\raspiOS\include/arch/common_aarch64/system_common_registers.h" 1
	msr TTBR1_EL1,x0 
	
// 0 "" 2
	// End of user assembly
.LBE105:
.LBE104:
.LBB106:
.LBB107:
	.file 6 "D:\\Pool\\eclipse-workspace_aarch64\\newspace\\raspiOS\\include/asm_instructions.h"
	.loc 6 50 0
	// Start of user assembly
// 50 "D:\Pool\eclipse-workspace_aarch64\newspace\raspiOS\include/asm_instructions.h" 1
	isb 
	
// 0 "" 2
	// End of user assembly
.LBE107:
.LBE106:
	.loc 3 279 0
	adrp	x0, .LC24
	add	x1, x0, :lo12:.LC24
	adrp	x0, kout
	add	x0, x0, :lo12:kout
	bl	_ZN6OutputlsEPKc
	mov	x19, x0
	adrp	x0, L0Table
	add	x1, x0, :lo12:L0Table
	add	x0, x29, 272
	bl	_ZN16IntegerFormatterILi16EEC1Em
	add	x0, x29, 272
	mov	x1, x0
	mov	x0, x19
	bl	_ZlsILi16EER6OutputS1_RK16IntegerFormatterIXT_EE
	mov	x2, x0
	adrp	x0, .LC17
	add	x0, x0, :lo12:.LC17
	mov	x1, x0
	mov	x0, x2
	bl	_ZN6OutputlsEPKc
	.loc 3 280 0
	adrp	x0, .LC25
	add	x1, x0, :lo12:.LC25
	adrp	x0, kout
	add	x0, x0, :lo12:kout
	bl	_ZN6OutputlsEPKc
	mov	x19, x0
	adrp	x0, L1Table
	add	x1, x0, :lo12:L1Table
	add	x0, x29, 280
	bl	_ZN16IntegerFormatterILi16EEC1Em
	add	x0, x29, 280
	mov	x1, x0
	mov	x0, x19
	bl	_ZlsILi16EER6OutputS1_RK16IntegerFormatterIXT_EE
	mov	x2, x0
	adrp	x0, .LC17
	add	x0, x0, :lo12:.LC17
	mov	x1, x0
	mov	x0, x2
	bl	_ZN6OutputlsEPKc
.LBB108:
.LBB109:
	.loc 4 936 0
	// Start of user assembly
// 936 "D:\Pool\eclipse-workspace_aarch64\newspace\raspiOS\include/arch/common_aarch64/system_common_registers.h" 1
	mrs x0,TTBR0_EL1
	
// 0 "" 2
	// End of user assembly
	str	x0, [x29, 120]
.LBE109:
.LBE108:
.LBB110:
.LBB111:
	.loc 4 925 0
	adrp	x0, .LC26
	add	x1, x0, :lo12:.LC26
	adrp	x0, kout
	add	x0, x0, :lo12:kout
	bl	_ZN6OutputlsEPKc
	mov	x2, x0
	.loc 4 926 0
	adrp	x0, .LC27
	add	x0, x0, :lo12:.LC27
	mov	x1, x0
	mov	x0, x2
	bl	_ZN6OutputlsEPKc
	mov	x2, x0
	ldrb	w0, [x29, 120]
	ubfx	x0, x0, 0, 1
	and	w0, w0, 255
	and	x0, x0, 255
	mov	x1, x0
	mov	x0, x2
	bl	_ZN6OutputlsEm
	mov	x2, x0
	adrp	x0, .LC8
	add	x0, x0, :lo12:.LC8
	mov	x1, x0
	mov	x0, x2
	bl	_ZN6OutputlsEPKc
	mov	x2, x0
	.loc 4 927 0
	adrp	x0, .LC28
	add	x0, x0, :lo12:.LC28
	mov	x1, x0
	mov	x0, x2
	bl	_ZN6OutputlsEPKc
	mov	x19, x0
	ldr	x0, [x29, 120]
	ubfx	x0, x0, 1, 47
	mov	x1, x0
	add	x0, x29, 376
	bl	_ZN16IntegerFormatterILi16EEC1Em
	add	x0, x29, 376
	mov	x1, x0
	mov	x0, x19
	bl	_ZlsILi16EER6OutputS1_RK16IntegerFormatterIXT_EE
	mov	x2, x0
	adrp	x0, .LC8
	add	x0, x0, :lo12:.LC8
	mov	x1, x0
	mov	x0, x2
	bl	_ZN6OutputlsEPKc
	mov	x2, x0
	.loc 4 928 0
	adrp	x0, .LC29
	add	x0, x0, :lo12:.LC29
	mov	x1, x0
	mov	x0, x2
	bl	_ZN6OutputlsEPKc
	mov	x2, x0
	ldrh	w0, [x29, 126]
	and	x0, x0, 65535
	mov	x1, x0
	mov	x0, x2
	bl	_ZN6OutputlsEm
	mov	x2, x0
	.loc 4 929 0
	adrp	x0, .LC17
	add	x0, x0, :lo12:.LC17
	mov	x1, x0
	mov	x0, x2
	bl	_ZN6OutputlsEPKc
.LBE111:
.LBE110:
.LBB112:
.LBB113:
	.loc 4 959 0
	// Start of user assembly
// 959 "D:\Pool\eclipse-workspace_aarch64\newspace\raspiOS\include/arch/common_aarch64/system_common_registers.h" 1
	mrs x0,TTBR1_EL1
	
// 0 "" 2
	// End of user assembly
	str	x0, [x29, 112]
.LBE113:
.LBE112:
.LBB114:
.LBB115:
	.loc 4 948 0
	adrp	x0, .LC30
	add	x1, x0, :lo12:.LC30
	adrp	x0, kout
	add	x0, x0, :lo12:kout
	bl	_ZN6OutputlsEPKc
	mov	x2, x0
	.loc 4 949 0
	adrp	x0, .LC27
	add	x0, x0, :lo12:.LC27
	mov	x1, x0
	mov	x0, x2
	bl	_ZN6OutputlsEPKc
	mov	x2, x0
	ldrb	w0, [x29, 112]
	ubfx	x0, x0, 0, 1
	and	w0, w0, 255
	and	x0, x0, 255
	mov	x1, x0
	mov	x0, x2
	bl	_ZN6OutputlsEm
	mov	x2, x0
	adrp	x0, .LC8
	add	x0, x0, :lo12:.LC8
	mov	x1, x0
	mov	x0, x2
	bl	_ZN6OutputlsEPKc
	mov	x2, x0
	.loc 4 950 0
	adrp	x0, .LC28
	add	x0, x0, :lo12:.LC28
	mov	x1, x0
	mov	x0, x2
	bl	_ZN6OutputlsEPKc
	mov	x19, x0
	ldr	x0, [x29, 112]
	ubfx	x0, x0, 1, 47
	mov	x1, x0
	add	x0, x29, 368
	bl	_ZN16IntegerFormatterILi16EEC1Em
	add	x0, x29, 368
	mov	x1, x0
	mov	x0, x19
	bl	_ZlsILi16EER6OutputS1_RK16IntegerFormatterIXT_EE
	mov	x2, x0
	adrp	x0, .LC8
	add	x0, x0, :lo12:.LC8
	mov	x1, x0
	mov	x0, x2
	bl	_ZN6OutputlsEPKc
	mov	x2, x0
	.loc 4 951 0
	adrp	x0, .LC29
	add	x0, x0, :lo12:.LC29
	mov	x1, x0
	mov	x0, x2
	bl	_ZN6OutputlsEPKc
	mov	x2, x0
	ldrh	w0, [x29, 118]
	and	x0, x0, 65535
	mov	x1, x0
	mov	x0, x2
	bl	_ZN6OutputlsEm
	mov	x2, x0
	.loc 4 952 0
	adrp	x0, .LC17
	add	x0, x0, :lo12:.LC17
	mov	x1, x0
	mov	x0, x2
	bl	_ZN6OutputlsEPKc
.LBE115:
.LBE114:
.LBB116:
.LBB117:
	.loc 4 717 0
	// Start of user assembly
// 717 "D:\Pool\eclipse-workspace_aarch64\newspace\raspiOS\include/arch/common_aarch64/system_common_registers.h" 1
	mrs x0,TCR_EL1
	
// 0 "" 2
	// End of user assembly
	str	x0, [x29, 136]
.LBE117:
.LBE116:
.LBB118:
.LBB119:
	.loc 4 674 0
	adrp	x0, .LC31
	add	x1, x0, :lo12:.LC31
	adrp	x0, kout
	add	x0, x0, :lo12:kout
	bl	_ZN6OutputlsEPKc
	mov	x2, x0
	.loc 4 675 0
	adrp	x0, .LC32
	add	x0, x0, :lo12:.LC32
	mov	x1, x0
	mov	x0, x2
	bl	_ZN6OutputlsEPKc
	mov	x2, x0
	ldrb	w0, [x29, 136]
	ubfx	x0, x0, 0, 6
	and	w0, w0, 255
	and	x0, x0, 255
	mov	x1, x0
	mov	x0, x2
	bl	_ZN6OutputlsEm
	mov	x2, x0
	adrp	x0, .LC8
	add	x0, x0, :lo12:.LC8
	mov	x1, x0
	mov	x0, x2
	bl	_ZN6OutputlsEPKc
	mov	x2, x0
	.loc 4 676 0
	adrp	x0, .LC33
	add	x0, x0, :lo12:.LC33
	mov	x1, x0
	mov	x0, x2
	bl	_ZN6OutputlsEPKc
	mov	x2, x0
	ldrb	w0, [x29, 136]
	ubfx	x0, x0, 6, 1
	and	w0, w0, 255
	and	x0, x0, 255
	mov	x1, x0
	mov	x0, x2
	bl	_ZN6OutputlsEm
	mov	x2, x0
	adrp	x0, .LC8
	add	x0, x0, :lo12:.LC8
	mov	x1, x0
	mov	x0, x2
	bl	_ZN6OutputlsEPKc
	mov	x2, x0
	.loc 4 677 0
	adrp	x0, .LC34
	add	x0, x0, :lo12:.LC34
	mov	x1, x0
	mov	x0, x2
	bl	_ZN6OutputlsEPKc
	mov	x2, x0
	ldrb	w0, [x29, 136]
	ubfx	x0, x0, 7, 1
	and	w0, w0, 255
	and	x0, x0, 255
	mov	x1, x0
	mov	x0, x2
	bl	_ZN6OutputlsEm
	mov	x2, x0
	adrp	x0, .LC8
	add	x0, x0, :lo12:.LC8
	mov	x1, x0
	mov	x0, x2
	bl	_ZN6OutputlsEPKc
	mov	x2, x0
	.loc 4 678 0
	adrp	x0, .LC35
	add	x0, x0, :lo12:.LC35
	mov	x1, x0
	mov	x0, x2
	bl	_ZN6OutputlsEPKc
	mov	x2, x0
	ldrb	w0, [x29, 137]
	ubfx	x0, x0, 0, 2
	and	w0, w0, 255
	and	x0, x0, 255
	mov	x1, x0
	mov	x0, x2
	bl	_ZN6OutputlsEm
	mov	x2, x0
	adrp	x0, .LC8
	add	x0, x0, :lo12:.LC8
	mov	x1, x0
	mov	x0, x2
	bl	_ZN6OutputlsEPKc
	mov	x2, x0
	.loc 4 679 0
	adrp	x0, .LC36
	add	x0, x0, :lo12:.LC36
	mov	x1, x0
	mov	x0, x2
	bl	_ZN6OutputlsEPKc
	mov	x2, x0
	ldrb	w0, [x29, 137]
	ubfx	x0, x0, 2, 2
	and	w0, w0, 255
	and	x0, x0, 255
	mov	x1, x0
	mov	x0, x2
	bl	_ZN6OutputlsEm
	mov	x2, x0
	adrp	x0, .LC8
	add	x0, x0, :lo12:.LC8
	mov	x1, x0
	mov	x0, x2
	bl	_ZN6OutputlsEPKc
	mov	x2, x0
	.loc 4 680 0
	adrp	x0, .LC37
	add	x0, x0, :lo12:.LC37
	mov	x1, x0
	mov	x0, x2
	bl	_ZN6OutputlsEPKc
	mov	x2, x0
	ldrb	w0, [x29, 137]
	ubfx	x0, x0, 4, 2
	and	w0, w0, 255
	and	x0, x0, 255
	mov	x1, x0
	mov	x0, x2
	bl	_ZN6OutputlsEm
	mov	x2, x0
	adrp	x0, .LC8
	add	x0, x0, :lo12:.LC8
	mov	x1, x0
	mov	x0, x2
	bl	_ZN6OutputlsEPKc
	mov	x2, x0
	.loc 4 681 0
	adrp	x0, .LC38
	add	x0, x0, :lo12:.LC38
	mov	x1, x0
	mov	x0, x2
	bl	_ZN6OutputlsEPKc
	mov	x2, x0
	ldrb	w0, [x29, 137]
	ubfx	x0, x0, 6, 2
	and	w0, w0, 255
	and	x0, x0, 255
	mov	x1, x0
	mov	x0, x2
	bl	_ZN6OutputlsEm
	mov	x2, x0
	adrp	x0, .LC8
	add	x0, x0, :lo12:.LC8
	mov	x1, x0
	mov	x0, x2
	bl	_ZN6OutputlsEPKc
	mov	x2, x0
	.loc 4 682 0
	adrp	x0, .LC39
	add	x0, x0, :lo12:.LC39
	mov	x1, x0
	mov	x0, x2
	bl	_ZN6OutputlsEPKc
	mov	x2, x0
	ldrb	w0, [x29, 138]
	ubfx	x0, x0, 0, 6
	and	w0, w0, 255
	and	x0, x0, 255
	mov	x1, x0
	mov	x0, x2
	bl	_ZN6OutputlsEm
	mov	x2, x0
	adrp	x0, .LC8
	add	x0, x0, :lo12:.LC8
	mov	x1, x0
	mov	x0, x2
	bl	_ZN6OutputlsEPKc
	mov	x2, x0
	.loc 4 683 0
	adrp	x0, .LC40
	add	x0, x0, :lo12:.LC40
	mov	x1, x0
	mov	x0, x2
	bl	_ZN6OutputlsEPKc
	mov	x2, x0
	ldrb	w0, [x29, 138]
	ubfx	x0, x0, 6, 1
	and	w0, w0, 255
	and	x0, x0, 255
	mov	x1, x0
	mov	x0, x2
	bl	_ZN6OutputlsEm
	mov	x2, x0
	adrp	x0, .LC8
	add	x0, x0, :lo12:.LC8
	mov	x1, x0
	mov	x0, x2
	bl	_ZN6OutputlsEPKc
	mov	x2, x0
	.loc 4 684 0
	adrp	x0, .LC41
	add	x0, x0, :lo12:.LC41
	mov	x1, x0
	mov	x0, x2
	bl	_ZN6OutputlsEPKc
	mov	x2, x0
	ldrb	w0, [x29, 138]
	ubfx	x0, x0, 7, 1
	and	w0, w0, 255
	and	x0, x0, 255
	mov	x1, x0
	mov	x0, x2
	bl	_ZN6OutputlsEm
	mov	x2, x0
	adrp	x0, .LC8
	add	x0, x0, :lo12:.LC8
	mov	x1, x0
	mov	x0, x2
	bl	_ZN6OutputlsEPKc
	mov	x2, x0
	.loc 4 685 0
	adrp	x0, .LC42
	add	x0, x0, :lo12:.LC42
	mov	x1, x0
	mov	x0, x2
	bl	_ZN6OutputlsEPKc
	mov	x2, x0
	ldrb	w0, [x29, 139]
	ubfx	x0, x0, 0, 2
	and	w0, w0, 255
	and	x0, x0, 255
	mov	x1, x0
	mov	x0, x2
	bl	_ZN6OutputlsEm
	mov	x2, x0
	adrp	x0, .LC8
	add	x0, x0, :lo12:.LC8
	mov	x1, x0
	mov	x0, x2
	bl	_ZN6OutputlsEPKc
	mov	x2, x0
	.loc 4 686 0
	adrp	x0, .LC43
	add	x0, x0, :lo12:.LC43
	mov	x1, x0
	mov	x0, x2
	bl	_ZN6OutputlsEPKc
	mov	x2, x0
	ldrb	w0, [x29, 139]
	ubfx	x0, x0, 2, 2
	and	w0, w0, 255
	and	x0, x0, 255
	mov	x1, x0
	mov	x0, x2
	bl	_ZN6OutputlsEm
	mov	x2, x0
	adrp	x0, .LC8
	add	x0, x0, :lo12:.LC8
	mov	x1, x0
	mov	x0, x2
	bl	_ZN6OutputlsEPKc
	mov	x2, x0
	.loc 4 687 0
	adrp	x0, .LC44
	add	x0, x0, :lo12:.LC44
	mov	x1, x0
	mov	x0, x2
	bl	_ZN6OutputlsEPKc
	mov	x2, x0
	ldrb	w0, [x29, 139]
	ubfx	x0, x0, 4, 2
	and	w0, w0, 255
	and	x0, x0, 255
	mov	x1, x0
	mov	x0, x2
	bl	_ZN6OutputlsEm
	mov	x2, x0
	adrp	x0, .LC8
	add	x0, x0, :lo12:.LC8
	mov	x1, x0
	mov	x0, x2
	bl	_ZN6OutputlsEPKc
	mov	x2, x0
	.loc 4 688 0
	adrp	x0, .LC45
	add	x0, x0, :lo12:.LC45
	mov	x1, x0
	mov	x0, x2
	bl	_ZN6OutputlsEPKc
	mov	x2, x0
	ldrb	w0, [x29, 139]
	ubfx	x0, x0, 6, 2
	and	w0, w0, 255
	and	x0, x0, 255
	mov	x1, x0
	mov	x0, x2
	bl	_ZN6OutputlsEm
	mov	x2, x0
	adrp	x0, .LC8
	add	x0, x0, :lo12:.LC8
	mov	x1, x0
	mov	x0, x2
	bl	_ZN6OutputlsEPKc
	mov	x2, x0
	.loc 4 689 0
	adrp	x0, .LC46
	add	x0, x0, :lo12:.LC46
	mov	x1, x0
	mov	x0, x2
	bl	_ZN6OutputlsEPKc
	mov	x2, x0
	ldrb	w0, [x29, 140]
	ubfx	x0, x0, 0, 3
	and	w0, w0, 255
	and	x0, x0, 255
	mov	x1, x0
	mov	x0, x2
	bl	_ZN6OutputlsEm
	mov	x2, x0
	adrp	x0, .LC8
	add	x0, x0, :lo12:.LC8
	mov	x1, x0
	mov	x0, x2
	bl	_ZN6OutputlsEPKc
	mov	x2, x0
	.loc 4 690 0
	adrp	x0, .LC47
	add	x0, x0, :lo12:.LC47
	mov	x1, x0
	mov	x0, x2
	bl	_ZN6OutputlsEPKc
	mov	x2, x0
	ldrb	w0, [x29, 140]
	ubfx	x0, x0, 3, 1
	and	w0, w0, 255
	and	x0, x0, 255
	mov	x1, x0
	mov	x0, x2
	bl	_ZN6OutputlsEm
	mov	x2, x0
	adrp	x0, .LC8
	add	x0, x0, :lo12:.LC8
	mov	x1, x0
	mov	x0, x2
	bl	_ZN6OutputlsEPKc
	mov	x2, x0
	.loc 4 691 0
	adrp	x0, .LC48
	add	x0, x0, :lo12:.LC48
	mov	x1, x0
	mov	x0, x2
	bl	_ZN6OutputlsEPKc
	mov	x2, x0
	ldrb	w0, [x29, 140]
	ubfx	x0, x0, 4, 1
	and	w0, w0, 255
	and	x0, x0, 255
	mov	x1, x0
	mov	x0, x2
	bl	_ZN6OutputlsEm
	mov	x2, x0
	adrp	x0, .LC8
	add	x0, x0, :lo12:.LC8
	mov	x1, x0
	mov	x0, x2
	bl	_ZN6OutputlsEPKc
	mov	x2, x0
	.loc 4 692 0
	adrp	x0, .LC49
	add	x0, x0, :lo12:.LC49
	mov	x1, x0
	mov	x0, x2
	bl	_ZN6OutputlsEPKc
	mov	x2, x0
	ldrb	w0, [x29, 140]
	ubfx	x0, x0, 5, 1
	and	w0, w0, 255
	and	x0, x0, 255
	mov	x1, x0
	mov	x0, x2
	bl	_ZN6OutputlsEm
	mov	x2, x0
	adrp	x0, .LC8
	add	x0, x0, :lo12:.LC8
	mov	x1, x0
	mov	x0, x2
	bl	_ZN6OutputlsEPKc
	mov	x2, x0
	.loc 4 693 0
	adrp	x0, .LC50
	add	x0, x0, :lo12:.LC50
	mov	x1, x0
	mov	x0, x2
	bl	_ZN6OutputlsEPKc
	mov	x2, x0
	ldrb	w0, [x29, 140]
	ubfx	x0, x0, 6, 1
	and	w0, w0, 255
	and	x0, x0, 255
	mov	x1, x0
	mov	x0, x2
	bl	_ZN6OutputlsEm
	mov	x2, x0
	adrp	x0, .LC8
	add	x0, x0, :lo12:.LC8
	mov	x1, x0
	mov	x0, x2
	bl	_ZN6OutputlsEPKc
	mov	x2, x0
	.loc 4 694 0
	adrp	x0, .LC51
	add	x0, x0, :lo12:.LC51
	mov	x1, x0
	mov	x0, x2
	bl	_ZN6OutputlsEPKc
	mov	x2, x0
	ldrb	w0, [x29, 140]
	ubfx	x0, x0, 7, 1
	and	w0, w0, 255
	and	x0, x0, 255
	mov	x1, x0
	mov	x0, x2
	bl	_ZN6OutputlsEm
	mov	x2, x0
	adrp	x0, .LC8
	add	x0, x0, :lo12:.LC8
	mov	x1, x0
	mov	x0, x2
	bl	_ZN6OutputlsEPKc
	mov	x2, x0
	.loc 4 695 0
	adrp	x0, .LC52
	add	x0, x0, :lo12:.LC52
	mov	x1, x0
	mov	x0, x2
	bl	_ZN6OutputlsEPKc
	mov	x2, x0
	ldrb	w0, [x29, 141]
	ubfx	x0, x0, 0, 1
	and	w0, w0, 255
	and	x0, x0, 255
	mov	x1, x0
	mov	x0, x2
	bl	_ZN6OutputlsEm
	mov	x2, x0
	adrp	x0, .LC8
	add	x0, x0, :lo12:.LC8
	mov	x1, x0
	mov	x0, x2
	bl	_ZN6OutputlsEPKc
	mov	x2, x0
	.loc 4 696 0
	adrp	x0, .LC53
	add	x0, x0, :lo12:.LC53
	mov	x1, x0
	mov	x0, x2
	bl	_ZN6OutputlsEPKc
	mov	x2, x0
	ldrb	w0, [x29, 141]
	ubfx	x0, x0, 1, 1
	and	w0, w0, 255
	and	x0, x0, 255
	mov	x1, x0
	mov	x0, x2
	bl	_ZN6OutputlsEm
	mov	x2, x0
	adrp	x0, .LC8
	add	x0, x0, :lo12:.LC8
	mov	x1, x0
	mov	x0, x2
	bl	_ZN6OutputlsEPKc
	mov	x2, x0
	.loc 4 697 0
	adrp	x0, .LC54
	add	x0, x0, :lo12:.LC54
	mov	x1, x0
	mov	x0, x2
	bl	_ZN6OutputlsEPKc
	mov	x2, x0
	ldrb	w0, [x29, 141]
	ubfx	x0, x0, 2, 1
	and	w0, w0, 255
	and	x0, x0, 255
	mov	x1, x0
	mov	x0, x2
	bl	_ZN6OutputlsEm
	mov	x2, x0
	adrp	x0, .LC8
	add	x0, x0, :lo12:.LC8
	mov	x1, x0
	mov	x0, x2
	bl	_ZN6OutputlsEPKc
	mov	x2, x0
	.loc 4 698 0
	adrp	x0, .LC55
	add	x0, x0, :lo12:.LC55
	mov	x1, x0
	mov	x0, x2
	bl	_ZN6OutputlsEPKc
	mov	x2, x0
	ldrb	w0, [x29, 141]
	ubfx	x0, x0, 3, 1
	and	w0, w0, 255
	and	x0, x0, 255
	mov	x1, x0
	mov	x0, x2
	bl	_ZN6OutputlsEm
	mov	x2, x0
	adrp	x0, .LC8
	add	x0, x0, :lo12:.LC8
	mov	x1, x0
	mov	x0, x2
	bl	_ZN6OutputlsEPKc
	mov	x2, x0
	.loc 4 699 0
	adrp	x0, .LC56
	add	x0, x0, :lo12:.LC56
	mov	x1, x0
	mov	x0, x2
	bl	_ZN6OutputlsEPKc
	mov	x2, x0
	ldrb	w0, [x29, 141]
	ubfx	x0, x0, 4, 1
	and	w0, w0, 255
	and	x0, x0, 255
	mov	x1, x0
	mov	x0, x2
	bl	_ZN6OutputlsEm
	mov	x2, x0
	adrp	x0, .LC8
	add	x0, x0, :lo12:.LC8
	mov	x1, x0
	mov	x0, x2
	bl	_ZN6OutputlsEPKc
	mov	x2, x0
	.loc 4 700 0
	adrp	x0, .LC57
	add	x0, x0, :lo12:.LC57
	mov	x1, x0
	mov	x0, x2
	bl	_ZN6OutputlsEPKc
	mov	x2, x0
	ldrb	w0, [x29, 141]
	ubfx	x0, x0, 5, 1
	and	w0, w0, 255
	and	x0, x0, 255
	mov	x1, x0
	mov	x0, x2
	bl	_ZN6OutputlsEm
	mov	x2, x0
	adrp	x0, .LC8
	add	x0, x0, :lo12:.LC8
	mov	x1, x0
	mov	x0, x2
	bl	_ZN6OutputlsEPKc
	mov	x2, x0
	.loc 4 701 0
	adrp	x0, .LC58
	add	x0, x0, :lo12:.LC58
	mov	x1, x0
	mov	x0, x2
	bl	_ZN6OutputlsEPKc
	mov	x2, x0
	ldrb	w0, [x29, 141]
	ubfx	x0, x0, 6, 1
	and	w0, w0, 255
	and	x0, x0, 255
	mov	x1, x0
	mov	x0, x2
	bl	_ZN6OutputlsEm
	mov	x2, x0
	adrp	x0, .LC8
	add	x0, x0, :lo12:.LC8
	mov	x1, x0
	mov	x0, x2
	bl	_ZN6OutputlsEPKc
	mov	x2, x0
	.loc 4 702 0
	adrp	x0, .LC59
	add	x0, x0, :lo12:.LC59
	mov	x1, x0
	mov	x0, x2
	bl	_ZN6OutputlsEPKc
	mov	x2, x0
	ldrb	w0, [x29, 141]
	ubfx	x0, x0, 7, 1
	and	w0, w0, 255
	and	x0, x0, 255
	mov	x1, x0
	mov	x0, x2
	bl	_ZN6OutputlsEm
	mov	x2, x0
	adrp	x0, .LC8
	add	x0, x0, :lo12:.LC8
	mov	x1, x0
	mov	x0, x2
	bl	_ZN6OutputlsEPKc
	mov	x2, x0
	.loc 4 703 0
	adrp	x0, .LC60
	add	x0, x0, :lo12:.LC60
	mov	x1, x0
	mov	x0, x2
	bl	_ZN6OutputlsEPKc
	mov	x2, x0
	ldrb	w0, [x29, 142]
	ubfx	x0, x0, 0, 1
	and	w0, w0, 255
	and	x0, x0, 255
	mov	x1, x0
	mov	x0, x2
	bl	_ZN6OutputlsEm
	mov	x2, x0
	adrp	x0, .LC8
	add	x0, x0, :lo12:.LC8
	mov	x1, x0
	mov	x0, x2
	bl	_ZN6OutputlsEPKc
	mov	x2, x0
	.loc 4 704 0
	adrp	x0, .LC61
	add	x0, x0, :lo12:.LC61
	mov	x1, x0
	mov	x0, x2
	bl	_ZN6OutputlsEPKc
	mov	x2, x0
	ldrb	w0, [x29, 142]
	ubfx	x0, x0, 1, 1
	and	w0, w0, 255
	and	x0, x0, 255
	mov	x1, x0
	mov	x0, x2
	bl	_ZN6OutputlsEm
	mov	x2, x0
	adrp	x0, .LC8
	add	x0, x0, :lo12:.LC8
	mov	x1, x0
	mov	x0, x2
	bl	_ZN6OutputlsEPKc
	mov	x2, x0
	.loc 4 705 0
	adrp	x0, .LC62
	add	x0, x0, :lo12:.LC62
	mov	x1, x0
	mov	x0, x2
	bl	_ZN6OutputlsEPKc
	mov	x2, x0
	ldrb	w0, [x29, 142]
	ubfx	x0, x0, 2, 1
	and	w0, w0, 255
	and	x0, x0, 255
	mov	x1, x0
	mov	x0, x2
	bl	_ZN6OutputlsEm
	mov	x2, x0
	adrp	x0, .LC8
	add	x0, x0, :lo12:.LC8
	mov	x1, x0
	mov	x0, x2
	bl	_ZN6OutputlsEPKc
	mov	x2, x0
	.loc 4 706 0
	adrp	x0, .LC63
	add	x0, x0, :lo12:.LC63
	mov	x1, x0
	mov	x0, x2
	bl	_ZN6OutputlsEPKc
	mov	x2, x0
	ldrb	w0, [x29, 142]
	ubfx	x0, x0, 3, 2
	and	w0, w0, 255
	and	x0, x0, 255
	mov	x1, x0
	mov	x0, x2
	bl	_ZN6OutputlsEm
	mov	x2, x0
	adrp	x0, .LC8
	add	x0, x0, :lo12:.LC8
	mov	x1, x0
	mov	x0, x2
	bl	_ZN6OutputlsEPKc
	mov	x2, x0
	.loc 4 707 0
	adrp	x0, .LC64
	add	x0, x0, :lo12:.LC64
	mov	x1, x0
	mov	x0, x2
	bl	_ZN6OutputlsEPKc
	mov	x2, x0
	ldrb	w0, [x29, 142]
	ubfx	x0, x0, 5, 1
	and	w0, w0, 255
	and	x0, x0, 255
	mov	x1, x0
	mov	x0, x2
	bl	_ZN6OutputlsEm
	mov	x2, x0
	adrp	x0, .LC8
	add	x0, x0, :lo12:.LC8
	mov	x1, x0
	mov	x0, x2
	bl	_ZN6OutputlsEPKc
	mov	x2, x0
	.loc 4 708 0
	adrp	x0, .LC65
	add	x0, x0, :lo12:.LC65
	mov	x1, x0
	mov	x0, x2
	bl	_ZN6OutputlsEPKc
	mov	x2, x0
	ldrb	w0, [x29, 142]
	ubfx	x0, x0, 6, 1
	and	w0, w0, 255
	and	x0, x0, 255
	mov	x1, x0
	mov	x0, x2
	bl	_ZN6OutputlsEm
	mov	x2, x0
	adrp	x0, .LC8
	add	x0, x0, :lo12:.LC8
	mov	x1, x0
	mov	x0, x2
	bl	_ZN6OutputlsEPKc
	mov	x2, x0
	.loc 4 709 0
	adrp	x0, .LC66
	add	x0, x0, :lo12:.LC66
	mov	x1, x0
	mov	x0, x2
	bl	_ZN6OutputlsEPKc
	mov	x2, x0
	ldrh	w0, [x29, 142]
	ubfx	x0, x0, 7, 9
	and	w0, w0, 65535
	and	x0, x0, 65535
	mov	x1, x0
	mov	x0, x2
	bl	_ZN6OutputlsEm
	mov	x2, x0
	.loc 4 710 0
	adrp	x0, .LC17
	add	x0, x0, :lo12:.LC17
	mov	x1, x0
	mov	x0, x2
	bl	_ZN6OutputlsEPKc
.LBE119:
.LBE118:
.LBB120:
.LBB121:
	.file 7 "D:\\Pool\\eclipse-workspace_aarch64\\newspace\\raspiOS\\include/arch/common_aarch64/vmsa_descriptors.h"
	.loc 7 22 0
	adrp	x0, .LC67
	add	x1, x0, :lo12:.LC67
	adrp	x0, kout
	add	x0, x0, :lo12:kout
	bl	_ZN6OutputlsEPKc
	mov	x2, x0
	.loc 7 23 0
	adrp	x0, .LC68
	add	x0, x0, :lo12:.LC68
	mov	x1, x0
	mov	x0, x2
	bl	_ZN6OutputlsEPKc
	mov	x2, x0
	adrp	x0, L0Table
	add	x0, x0, :lo12:L0Table
	ldrb	w0, [x0]
	ubfx	x0, x0, 0, 1
	and	w0, w0, 255
	and	x0, x0, 255
	mov	x1, x0
	mov	x0, x2
	bl	_ZN6OutputlsEm
	mov	x2, x0
	adrp	x0, .LC8
	add	x0, x0, :lo12:.LC8
	mov	x1, x0
	mov	x0, x2
	bl	_ZN6OutputlsEPKc
	mov	x2, x0
	.loc 7 24 0
	adrp	x0, .LC69
	add	x0, x0, :lo12:.LC69
	mov	x1, x0
	mov	x0, x2
	bl	_ZN6OutputlsEPKc
	mov	x2, x0
	adrp	x0, L0Table
	add	x0, x0, :lo12:L0Table
	ldrb	w0, [x0]
	ubfx	x0, x0, 1, 1
	and	w0, w0, 255
	and	x0, x0, 255
	mov	x1, x0
	mov	x0, x2
	bl	_ZN6OutputlsEm
	mov	x2, x0
	adrp	x0, .LC8
	add	x0, x0, :lo12:.LC8
	mov	x1, x0
	mov	x0, x2
	bl	_ZN6OutputlsEPKc
	mov	x2, x0
	.loc 7 25 0
	adrp	x0, .LC70
	add	x0, x0, :lo12:.LC70
	mov	x1, x0
	mov	x0, x2
	bl	_ZN6OutputlsEPKc
	mov	x2, x0
	adrp	x0, L0Table
	add	x0, x0, :lo12:L0Table
	ldrh	w0, [x0]
	ubfx	x0, x0, 2, 10
	and	w0, w0, 65535
	and	x0, x0, 65535
	mov	x1, x0
	mov	x0, x2
	bl	_ZN6OutputlsEm
	mov	x2, x0
	adrp	x0, .LC8
	add	x0, x0, :lo12:.LC8
	mov	x1, x0
	mov	x0, x2
	bl	_ZN6OutputlsEPKc
	mov	x2, x0
	.loc 7 26 0
	adrp	x0, .LC71
	add	x0, x0, :lo12:.LC71
	mov	x1, x0
	mov	x0, x2
	bl	_ZN6OutputlsEPKc
	mov	x19, x0
	adrp	x0, L0Table
	add	x0, x0, :lo12:L0Table
	ldrb	w1, [x0, 1]
	lsr	w1, w1, 4
	and	x1, x1, 255
	ldrb	w2, [x0, 2]
	lsl	x2, x2, 4
	orr	x1, x2, x1
	ldrb	w2, [x0, 3]
	lsl	x2, x2, 12
	orr	x1, x2, x1
	ldrb	w2, [x0, 4]
	lsl	x2, x2, 20
	orr	x1, x2, x1
	ldrb	w0, [x0, 5]
	lsl	x0, x0, 28
	orr	x0, x0, x1
	mov	x1, x0
	add	x0, x29, 360
	bl	_ZN16IntegerFormatterILi16EEC1Em
	add	x0, x29, 360
	mov	x1, x0
	mov	x0, x19
	bl	_ZlsILi16EER6OutputS1_RK16IntegerFormatterIXT_EE
	mov	x2, x0
	adrp	x0, .LC8
	add	x0, x0, :lo12:.LC8
	mov	x1, x0
	mov	x0, x2
	bl	_ZN6OutputlsEPKc
	mov	x2, x0
	.loc 7 27 0
	adrp	x0, .LC16
	add	x0, x0, :lo12:.LC16
	mov	x1, x0
	mov	x0, x2
	bl	_ZN6OutputlsEPKc
	mov	x2, x0
	adrp	x0, L0Table
	add	x0, x0, :lo12:L0Table
	ldrb	w0, [x0, 6]
	ubfx	x0, x0, 0, 4
	and	w0, w0, 255
	and	x0, x0, 255
	mov	x1, x0
	mov	x0, x2
	bl	_ZN6OutputlsEm
	mov	x2, x0
	adrp	x0, .LC8
	add	x0, x0, :lo12:.LC8
	mov	x1, x0
	mov	x0, x2
	bl	_ZN6OutputlsEPKc
	mov	x2, x0
	.loc 7 28 0
	adrp	x0, .LC72
	add	x0, x0, :lo12:.LC72
	mov	x1, x0
	mov	x0, x2
	bl	_ZN6OutputlsEPKc
	mov	x2, x0
	adrp	x0, L0Table
	add	x0, x0, :lo12:L0Table
	ldrh	w0, [x0, 6]
	ubfx	x0, x0, 4, 7
	and	w0, w0, 255
	and	x0, x0, 255
	mov	x1, x0
	mov	x0, x2
	bl	_ZN6OutputlsEm
	mov	x2, x0
	adrp	x0, .LC8
	add	x0, x0, :lo12:.LC8
	mov	x1, x0
	mov	x0, x2
	bl	_ZN6OutputlsEPKc
	mov	x2, x0
	.loc 7 29 0
	adrp	x0, .LC73
	add	x0, x0, :lo12:.LC73
	mov	x1, x0
	mov	x0, x2
	bl	_ZN6OutputlsEPKc
	mov	x2, x0
	adrp	x0, L0Table
	add	x0, x0, :lo12:L0Table
	ldrb	w0, [x0, 7]
	ubfx	x0, x0, 3, 1
	and	w0, w0, 255
	and	x0, x0, 255
	mov	x1, x0
	mov	x0, x2
	bl	_ZN6OutputlsEm
	mov	x2, x0
	adrp	x0, .LC8
	add	x0, x0, :lo12:.LC8
	mov	x1, x0
	mov	x0, x2
	bl	_ZN6OutputlsEPKc
	mov	x2, x0
	.loc 7 30 0
	adrp	x0, .LC74
	add	x0, x0, :lo12:.LC74
	mov	x1, x0
	mov	x0, x2
	bl	_ZN6OutputlsEPKc
	mov	x2, x0
	adrp	x0, L0Table
	add	x0, x0, :lo12:L0Table
	ldrb	w0, [x0, 7]
	ubfx	x0, x0, 4, 1
	and	w0, w0, 255
	and	x0, x0, 255
	mov	x1, x0
	mov	x0, x2
	bl	_ZN6OutputlsEm
	mov	x2, x0
	adrp	x0, .LC8
	add	x0, x0, :lo12:.LC8
	mov	x1, x0
	mov	x0, x2
	bl	_ZN6OutputlsEPKc
	mov	x2, x0
	.loc 7 31 0
	adrp	x0, .LC75
	add	x0, x0, :lo12:.LC75
	mov	x1, x0
	mov	x0, x2
	bl	_ZN6OutputlsEPKc
	mov	x2, x0
	adrp	x0, L0Table
	add	x0, x0, :lo12:L0Table
	ldrb	w0, [x0, 7]
	ubfx	x0, x0, 5, 2
	and	w0, w0, 255
	and	x0, x0, 255
	mov	x1, x0
	mov	x0, x2
	bl	_ZN6OutputlsEm
	mov	x2, x0
	adrp	x0, .LC8
	add	x0, x0, :lo12:.LC8
	mov	x1, x0
	mov	x0, x2
	bl	_ZN6OutputlsEPKc
	mov	x2, x0
	.loc 7 32 0
	adrp	x0, .LC76
	add	x0, x0, :lo12:.LC76
	mov	x1, x0
	mov	x0, x2
	bl	_ZN6OutputlsEPKc
	mov	x2, x0
	adrp	x0, L0Table
	add	x0, x0, :lo12:L0Table
	ldrb	w0, [x0, 7]
	ubfx	x0, x0, 7, 1
	and	w0, w0, 255
	and	x0, x0, 255
	mov	x1, x0
	mov	x0, x2
	bl	_ZN6OutputlsEm
	mov	x2, x0
	.loc 7 33 0
	adrp	x0, .LC17
	add	x0, x0, :lo12:.LC17
	mov	x1, x0
	mov	x0, x2
	bl	_ZN6OutputlsEPKc
.LBE121:
.LBE120:
.LBB122:
.LBB123:
	.loc 7 85 0
	adrp	x0, .LC77
	add	x1, x0, :lo12:.LC77
	adrp	x0, kout
	add	x0, x0, :lo12:kout
	bl	_ZN6OutputlsEPKc
	.loc 7 86 0
	adrp	x0, L1Table
	add	x0, x0, :lo12:L1Table
	ldrb	w0, [x0]
	and	w0, w0, 2
	and	w0, w0, 255
	cmp	w0, 0
	bne	.L37
	.loc 7 89 0
	adrp	x0, .LC78
	add	x1, x0, :lo12:.LC78
	adrp	x0, kout
	add	x0, x0, :lo12:kout
	bl	_ZN6OutputlsEPKc
	mov	x2, x0
	adrp	x0, L1Table
	add	x0, x0, :lo12:L1Table
	ldrb	w0, [x0]
	ubfx	x0, x0, 0, 1
	and	w0, w0, 255
	and	x0, x0, 255
	mov	x1, x0
	mov	x0, x2
	bl	_ZN6OutputlsEm
	mov	x2, x0
	adrp	x0, .LC8
	add	x0, x0, :lo12:.LC8
	mov	x1, x0
	mov	x0, x2
	bl	_ZN6OutputlsEPKc
	mov	x2, x0
	.loc 7 90 0
	adrp	x0, .LC79
	add	x0, x0, :lo12:.LC79
	mov	x1, x0
	mov	x0, x2
	bl	_ZN6OutputlsEPKc
	mov	x2, x0
	adrp	x0, L1Table
	add	x0, x0, :lo12:L1Table
	ldrb	w0, [x0]
	ubfx	x0, x0, 1, 1
	and	w0, w0, 255
	and	x0, x0, 255
	mov	x1, x0
	mov	x0, x2
	bl	_ZN6OutputlsEm
	mov	x2, x0
	adrp	x0, .LC8
	add	x0, x0, :lo12:.LC8
	mov	x1, x0
	mov	x0, x2
	bl	_ZN6OutputlsEPKc
	mov	x2, x0
	.loc 7 91 0
	adrp	x0, .LC80
	add	x0, x0, :lo12:.LC80
	mov	x1, x0
	mov	x0, x2
	bl	_ZN6OutputlsEPKc
	mov	x2, x0
	adrp	x0, L1Table
	add	x0, x0, :lo12:L1Table
	ldrb	w0, [x0]
	ubfx	x0, x0, 2, 3
	and	w0, w0, 255
	and	x0, x0, 255
	mov	x1, x0
	mov	x0, x2
	bl	_ZN6OutputlsEm
	mov	x2, x0
	adrp	x0, .LC8
	add	x0, x0, :lo12:.LC8
	mov	x1, x0
	mov	x0, x2
	bl	_ZN6OutputlsEPKc
	mov	x2, x0
	.loc 7 92 0
	adrp	x0, .LC81
	add	x0, x0, :lo12:.LC81
	mov	x1, x0
	mov	x0, x2
	bl	_ZN6OutputlsEPKc
	mov	x2, x0
	adrp	x0, L1Table
	add	x0, x0, :lo12:L1Table
	ldrb	w0, [x0]
	ubfx	x0, x0, 5, 1
	and	w0, w0, 255
	and	x0, x0, 255
	mov	x1, x0
	mov	x0, x2
	bl	_ZN6OutputlsEm
	mov	x2, x0
	adrp	x0, .LC8
	add	x0, x0, :lo12:.LC8
	mov	x1, x0
	mov	x0, x2
	bl	_ZN6OutputlsEPKc
	mov	x2, x0
	.loc 7 93 0
	adrp	x0, .LC82
	add	x0, x0, :lo12:.LC82
	mov	x1, x0
	mov	x0, x2
	bl	_ZN6OutputlsEPKc
	mov	x2, x0
	adrp	x0, L1Table
	add	x0, x0, :lo12:L1Table
	ldrb	w0, [x0]
	ubfx	x0, x0, 6, 2
	and	w0, w0, 255
	and	x0, x0, 255
	mov	x1, x0
	mov	x0, x2
	bl	_ZN6OutputlsEm
	mov	x2, x0
	adrp	x0, .LC8
	add	x0, x0, :lo12:.LC8
	mov	x1, x0
	mov	x0, x2
	bl	_ZN6OutputlsEPKc
	mov	x2, x0
	.loc 7 94 0
	adrp	x0, .LC83
	add	x0, x0, :lo12:.LC83
	mov	x1, x0
	mov	x0, x2
	bl	_ZN6OutputlsEPKc
	mov	x2, x0
	adrp	x0, L1Table
	add	x0, x0, :lo12:L1Table
	ldrb	w0, [x0, 1]
	ubfx	x0, x0, 0, 2
	and	w0, w0, 255
	and	x0, x0, 255
	mov	x1, x0
	mov	x0, x2
	bl	_ZN6OutputlsEm
	mov	x2, x0
	adrp	x0, .LC8
	add	x0, x0, :lo12:.LC8
	mov	x1, x0
	mov	x0, x2
	bl	_ZN6OutputlsEPKc
	mov	x2, x0
	.loc 7 95 0
	adrp	x0, .LC84
	add	x0, x0, :lo12:.LC84
	mov	x1, x0
	mov	x0, x2
	bl	_ZN6OutputlsEPKc
	mov	x2, x0
	adrp	x0, L1Table
	add	x0, x0, :lo12:L1Table
	ldrb	w0, [x0, 1]
	ubfx	x0, x0, 2, 1
	and	w0, w0, 255
	and	x0, x0, 255
	mov	x1, x0
	mov	x0, x2
	bl	_ZN6OutputlsEm
	mov	x2, x0
	adrp	x0, .LC8
	add	x0, x0, :lo12:.LC8
	mov	x1, x0
	mov	x0, x2
	bl	_ZN6OutputlsEPKc
	mov	x2, x0
	.loc 7 96 0
	adrp	x0, .LC85
	add	x0, x0, :lo12:.LC85
	mov	x1, x0
	mov	x0, x2
	bl	_ZN6OutputlsEPKc
	mov	x2, x0
	adrp	x0, L1Table
	add	x0, x0, :lo12:L1Table
	ldrb	w0, [x0, 1]
	ubfx	x0, x0, 3, 1
	and	w0, w0, 255
	and	x0, x0, 255
	mov	x1, x0
	mov	x0, x2
	bl	_ZN6OutputlsEm
	mov	x2, x0
	adrp	x0, .LC8
	add	x0, x0, :lo12:.LC8
	mov	x1, x0
	mov	x0, x2
	bl	_ZN6OutputlsEPKc
	mov	x2, x0
	.loc 7 97 0
	adrp	x0, .LC86
	add	x0, x0, :lo12:.LC86
	mov	x1, x0
	mov	x0, x2
	bl	_ZN6OutputlsEPKc
	mov	x2, x0
	adrp	x0, L1Table
	add	x0, x0, :lo12:L1Table
	ldr	w0, [x0]
	ubfx	x0, x0, 12, 18
	uxtw	x0, w0
	mov	x1, x0
	mov	x0, x2
	bl	_ZN6OutputlsEm
	mov	x2, x0
	adrp	x0, .LC8
	add	x0, x0, :lo12:.LC8
	mov	x1, x0
	mov	x0, x2
	bl	_ZN6OutputlsEPKc
	mov	x2, x0
	.loc 7 98 0
	adrp	x0, .LC87
	add	x0, x0, :lo12:.LC87
	mov	x1, x0
	mov	x0, x2
	bl	_ZN6OutputlsEPKc
	mov	x19, x0
	adrp	x0, L1Table
	add	x0, x0, :lo12:L1Table
	ldrb	w1, [x0, 3]
	lsr	w1, w1, 6
	and	x1, x1, 255
	ldrb	w2, [x0, 4]
	lsl	x2, x2, 2
	orr	x1, x2, x1
	ldrb	w0, [x0, 5]
	lsl	x0, x0, 10
	orr	x0, x0, x1
	uxtw	x1, w0
	add	x0, x29, 352
	bl	_ZN16IntegerFormatterILi16EEC1Em
	add	x0, x29, 352
	mov	x1, x0
	mov	x0, x19
	bl	_ZlsILi16EER6OutputS1_RK16IntegerFormatterIXT_EE
	mov	x2, x0
	adrp	x0, .LC8
	add	x0, x0, :lo12:.LC8
	mov	x1, x0
	mov	x0, x2
	bl	_ZN6OutputlsEPKc
	mov	x2, x0
	.loc 7 99 0
	adrp	x0, .LC88
	add	x0, x0, :lo12:.LC88
	mov	x1, x0
	mov	x0, x2
	bl	_ZN6OutputlsEPKc
	mov	x2, x0
	adrp	x0, L1Table
	add	x0, x0, :lo12:L1Table
	ldrb	w0, [x0, 6]
	ubfx	x0, x0, 0, 4
	and	w0, w0, 255
	and	x0, x0, 255
	mov	x1, x0
	mov	x0, x2
	bl	_ZN6OutputlsEm
	mov	x2, x0
	adrp	x0, .LC8
	add	x0, x0, :lo12:.LC8
	mov	x1, x0
	mov	x0, x2
	bl	_ZN6OutputlsEPKc
	mov	x2, x0
	.loc 7 100 0
	adrp	x0, .LC89
	add	x0, x0, :lo12:.LC89
	mov	x1, x0
	mov	x0, x2
	bl	_ZN6OutputlsEPKc
	mov	x2, x0
	adrp	x0, L1Table
	add	x0, x0, :lo12:L1Table
	ldrb	w0, [x0, 6]
	ubfx	x0, x0, 4, 1
	and	w0, w0, 255
	and	x0, x0, 255
	mov	x1, x0
	mov	x0, x2
	bl	_ZN6OutputlsEm
	mov	x2, x0
	adrp	x0, .LC8
	add	x0, x0, :lo12:.LC8
	mov	x1, x0
	mov	x0, x2
	bl	_ZN6OutputlsEPKc
	mov	x2, x0
	.loc 7 101 0
	adrp	x0, .LC90
	add	x0, x0, :lo12:.LC90
	mov	x1, x0
	mov	x0, x2
	bl	_ZN6OutputlsEPKc
	mov	x2, x0
	adrp	x0, L1Table
	add	x0, x0, :lo12:L1Table
	ldrb	w0, [x0, 6]
	ubfx	x0, x0, 5, 1
	and	w0, w0, 255
	and	x0, x0, 255
	mov	x1, x0
	mov	x0, x2
	bl	_ZN6OutputlsEm
	mov	x2, x0
	adrp	x0, .LC8
	add	x0, x0, :lo12:.LC8
	mov	x1, x0
	mov	x0, x2
	bl	_ZN6OutputlsEPKc
	mov	x2, x0
	.loc 7 102 0
	adrp	x0, .LC91
	add	x0, x0, :lo12:.LC91
	mov	x1, x0
	mov	x0, x2
	bl	_ZN6OutputlsEPKc
	mov	x2, x0
	adrp	x0, L1Table
	add	x0, x0, :lo12:L1Table
	ldrb	w0, [x0, 6]
	ubfx	x0, x0, 6, 1
	and	w0, w0, 255
	and	x0, x0, 255
	mov	x1, x0
	mov	x0, x2
	bl	_ZN6OutputlsEm
	mov	x2, x0
	adrp	x0, .LC8
	add	x0, x0, :lo12:.LC8
	mov	x1, x0
	mov	x0, x2
	bl	_ZN6OutputlsEPKc
	mov	x2, x0
	.loc 7 103 0
	adrp	x0, .LC92
	add	x0, x0, :lo12:.LC92
	mov	x1, x0
	mov	x0, x2
	bl	_ZN6OutputlsEPKc
	mov	x2, x0
	adrp	x0, L1Table
	add	x0, x0, :lo12:L1Table
	ldrh	w0, [x0, 6]
	ubfx	x0, x0, 7, 4
	and	w0, w0, 255
	and	x0, x0, 255
	mov	x1, x0
	mov	x0, x2
	bl	_ZN6OutputlsEm
	mov	x2, x0
	adrp	x0, .LC8
	add	x0, x0, :lo12:.LC8
	mov	x1, x0
	mov	x0, x2
	bl	_ZN6OutputlsEPKc
	mov	x2, x0
	.loc 7 104 0
	adrp	x0, .LC93
	add	x0, x0, :lo12:.LC93
	mov	x1, x0
	mov	x0, x2
	bl	_ZN6OutputlsEPKc
	mov	x2, x0
	adrp	x0, L1Table
	add	x0, x0, :lo12:L1Table
	ldrb	w0, [x0, 7]
	ubfx	x0, x0, 3, 4
	and	w0, w0, 255
	and	x0, x0, 255
	mov	x1, x0
	mov	x0, x2
	bl	_ZN6OutputlsEm
	mov	x2, x0
	adrp	x0, .LC8
	add	x0, x0, :lo12:.LC8
	mov	x1, x0
	mov	x0, x2
	bl	_ZN6OutputlsEPKc
	mov	x2, x0
	.loc 7 105 0
	adrp	x0, .LC94
	add	x0, x0, :lo12:.LC94
	mov	x1, x0
	mov	x0, x2
	bl	_ZN6OutputlsEPKc
	mov	x2, x0
	adrp	x0, L1Table
	add	x0, x0, :lo12:L1Table
	ldrb	w0, [x0, 7]
	ubfx	x0, x0, 7, 1
	and	w0, w0, 255
	and	x0, x0, 255
	mov	x1, x0
	mov	x0, x2
	bl	_ZN6OutputlsEm
	b	.L38
.L37:
	.loc 7 110 0
	adrp	x0, .LC95
	add	x1, x0, :lo12:.LC95
	adrp	x0, kout
	add	x0, x0, :lo12:kout
	bl	_ZN6OutputlsEPKc
	mov	x2, x0
	adrp	x0, L1Table
	add	x0, x0, :lo12:L1Table
	ldrb	w0, [x0]
	ubfx	x0, x0, 0, 1
	and	w0, w0, 255
	and	x0, x0, 255
	mov	x1, x0
	mov	x0, x2
	bl	_ZN6OutputlsEm
	mov	x2, x0
	adrp	x0, .LC8
	add	x0, x0, :lo12:.LC8
	mov	x1, x0
	mov	x0, x2
	bl	_ZN6OutputlsEPKc
	mov	x2, x0
	.loc 7 111 0
	adrp	x0, .LC96
	add	x0, x0, :lo12:.LC96
	mov	x1, x0
	mov	x0, x2
	bl	_ZN6OutputlsEPKc
	mov	x2, x0
	adrp	x0, L1Table
	add	x0, x0, :lo12:L1Table
	ldrb	w0, [x0]
	ubfx	x0, x0, 1, 1
	and	w0, w0, 255
	and	x0, x0, 255
	mov	x1, x0
	mov	x0, x2
	bl	_ZN6OutputlsEm
	mov	x2, x0
	adrp	x0, .LC8
	add	x0, x0, :lo12:.LC8
	mov	x1, x0
	mov	x0, x2
	bl	_ZN6OutputlsEPKc
	mov	x2, x0
	.loc 7 112 0
	adrp	x0, .LC97
	add	x0, x0, :lo12:.LC97
	mov	x1, x0
	mov	x0, x2
	bl	_ZN6OutputlsEPKc
	mov	x2, x0
	adrp	x0, L1Table
	add	x0, x0, :lo12:L1Table
	ldrh	w0, [x0]
	ubfx	x0, x0, 2, 10
	and	w0, w0, 65535
	and	x0, x0, 65535
	mov	x1, x0
	mov	x0, x2
	bl	_ZN6OutputlsEm
	mov	x2, x0
	adrp	x0, .LC8
	add	x0, x0, :lo12:.LC8
	mov	x1, x0
	mov	x0, x2
	bl	_ZN6OutputlsEPKc
	mov	x2, x0
	.loc 7 113 0
	adrp	x0, .LC98
	add	x0, x0, :lo12:.LC98
	mov	x1, x0
	mov	x0, x2
	bl	_ZN6OutputlsEPKc
	mov	x19, x0
	adrp	x0, L1Table
	add	x0, x0, :lo12:L1Table
	ldrb	w1, [x0, 1]
	lsr	w1, w1, 4
	and	x1, x1, 255
	ldrb	w2, [x0, 2]
	lsl	x2, x2, 4
	orr	x1, x2, x1
	ldrb	w2, [x0, 3]
	lsl	x2, x2, 12
	orr	x1, x2, x1
	ldrb	w2, [x0, 4]
	lsl	x2, x2, 20
	orr	x1, x2, x1
	ldrb	w0, [x0, 5]
	lsl	x0, x0, 28
	orr	x0, x0, x1
	mov	x1, x0
	add	x0, x29, 344
	bl	_ZN16IntegerFormatterILi16EEC1Em
	add	x0, x29, 344
	mov	x1, x0
	mov	x0, x19
	bl	_ZlsILi16EER6OutputS1_RK16IntegerFormatterIXT_EE
	mov	x2, x0
	adrp	x0, .LC8
	add	x0, x0, :lo12:.LC8
	mov	x1, x0
	mov	x0, x2
	bl	_ZN6OutputlsEPKc
	mov	x2, x0
	.loc 7 114 0
	adrp	x0, .LC99
	add	x0, x0, :lo12:.LC99
	mov	x1, x0
	mov	x0, x2
	bl	_ZN6OutputlsEPKc
	mov	x2, x0
	adrp	x0, L1Table
	add	x0, x0, :lo12:L1Table
	ldrb	w0, [x0, 6]
	ubfx	x0, x0, 0, 4
	and	w0, w0, 255
	and	x0, x0, 255
	mov	x1, x0
	mov	x0, x2
	bl	_ZN6OutputlsEm
	mov	x2, x0
	adrp	x0, .LC8
	add	x0, x0, :lo12:.LC8
	mov	x1, x0
	mov	x0, x2
	bl	_ZN6OutputlsEPKc
	mov	x2, x0
	.loc 7 115 0
	adrp	x0, .LC100
	add	x0, x0, :lo12:.LC100
	mov	x1, x0
	mov	x0, x2
	bl	_ZN6OutputlsEPKc
	mov	x2, x0
	adrp	x0, L1Table
	add	x0, x0, :lo12:L1Table
	ldrh	w0, [x0, 6]
	ubfx	x0, x0, 4, 7
	and	w0, w0, 255
	and	x0, x0, 255
	mov	x1, x0
	mov	x0, x2
	bl	_ZN6OutputlsEm
	mov	x2, x0
	adrp	x0, .LC8
	add	x0, x0, :lo12:.LC8
	mov	x1, x0
	mov	x0, x2
	bl	_ZN6OutputlsEPKc
	mov	x2, x0
	.loc 7 116 0
	adrp	x0, .LC101
	add	x0, x0, :lo12:.LC101
	mov	x1, x0
	mov	x0, x2
	bl	_ZN6OutputlsEPKc
	mov	x2, x0
	adrp	x0, L1Table
	add	x0, x0, :lo12:L1Table
	ldrb	w0, [x0, 7]
	ubfx	x0, x0, 3, 1
	and	w0, w0, 255
	and	x0, x0, 255
	mov	x1, x0
	mov	x0, x2
	bl	_ZN6OutputlsEm
	mov	x2, x0
	adrp	x0, .LC8
	add	x0, x0, :lo12:.LC8
	mov	x1, x0
	mov	x0, x2
	bl	_ZN6OutputlsEPKc
	mov	x2, x0
	.loc 7 117 0
	adrp	x0, .LC102
	add	x0, x0, :lo12:.LC102
	mov	x1, x0
	mov	x0, x2
	bl	_ZN6OutputlsEPKc
	mov	x2, x0
	adrp	x0, L1Table
	add	x0, x0, :lo12:L1Table
	ldrb	w0, [x0, 7]
	ubfx	x0, x0, 4, 1
	and	w0, w0, 255
	and	x0, x0, 255
	mov	x1, x0
	mov	x0, x2
	bl	_ZN6OutputlsEm
	mov	x2, x0
	adrp	x0, .LC8
	add	x0, x0, :lo12:.LC8
	mov	x1, x0
	mov	x0, x2
	bl	_ZN6OutputlsEPKc
	mov	x2, x0
	.loc 7 118 0
	adrp	x0, .LC103
	add	x0, x0, :lo12:.LC103
	mov	x1, x0
	mov	x0, x2
	bl	_ZN6OutputlsEPKc
	mov	x2, x0
	adrp	x0, L1Table
	add	x0, x0, :lo12:L1Table
	ldrb	w0, [x0, 7]
	ubfx	x0, x0, 5, 2
	and	w0, w0, 255
	and	x0, x0, 255
	mov	x1, x0
	mov	x0, x2
	bl	_ZN6OutputlsEm
	mov	x2, x0
	adrp	x0, .LC8
	add	x0, x0, :lo12:.LC8
	mov	x1, x0
	mov	x0, x2
	bl	_ZN6OutputlsEPKc
	mov	x2, x0
	.loc 7 119 0
	adrp	x0, .LC104
	add	x0, x0, :lo12:.LC104
	mov	x1, x0
	mov	x0, x2
	bl	_ZN6OutputlsEPKc
	mov	x2, x0
	adrp	x0, L1Table
	add	x0, x0, :lo12:L1Table
	ldrb	w0, [x0, 7]
	ubfx	x0, x0, 7, 1
	and	w0, w0, 255
	and	x0, x0, 255
	mov	x1, x0
	mov	x0, x2
	bl	_ZN6OutputlsEm
.L38:
	.loc 7 121 0
	adrp	x0, .LC17
	add	x1, x0, :lo12:.LC17
	adrp	x0, kout
	add	x0, x0, :lo12:kout
	bl	_ZN6OutputlsEPKc
.LBE123:
.LBE122:
.LBB124:
.LBB125:
	.loc 4 1212 0
	// Start of user assembly
// 1212 "D:\Pool\eclipse-workspace_aarch64\newspace\raspiOS\include/arch/common_aarch64/system_common_registers.h" 1
	mrs x0,SCTLR_EL1
	
// 0 "" 2
	// End of user assembly
	str	w0, [x29, 72]
	ldr	w0, [x29, 72]
.LBE125:
.LBE124:
	.loc 3 291 0
	str	w0, [x29, 288]
.LBB126:
.LBB127:
	.loc 4 1174 0
	adrp	x0, .LC105
	add	x1, x0, :lo12:.LC105
	adrp	x0, kout
	add	x0, x0, :lo12:kout
	bl	_ZN6OutputlsEPKc
	mov	x2, x0
	.loc 4 1175 0
	adrp	x0, .LC106
	add	x0, x0, :lo12:.LC106
	mov	x1, x0
	mov	x0, x2
	bl	_ZN6OutputlsEPKc
	mov	x2, x0
	ldrb	w0, [x29, 288]
	ubfx	x0, x0, 0, 1
	and	w0, w0, 255
	mov	w1, w0
	mov	x0, x2
	bl	_ZN6OutputlsEj
	mov	x2, x0
	adrp	x0, .LC8
	add	x0, x0, :lo12:.LC8
	mov	x1, x0
	mov	x0, x2
	bl	_ZN6OutputlsEPKc
	mov	x2, x0
	.loc 4 1176 0
	adrp	x0, .LC107
	add	x0, x0, :lo12:.LC107
	mov	x1, x0
	mov	x0, x2
	bl	_ZN6OutputlsEPKc
	mov	x2, x0
	ldrb	w0, [x29, 288]
	ubfx	x0, x0, 1, 1
	and	w0, w0, 255
	mov	w1, w0
	mov	x0, x2
	bl	_ZN6OutputlsEj
	mov	x2, x0
	adrp	x0, .LC8
	add	x0, x0, :lo12:.LC8
	mov	x1, x0
	mov	x0, x2
	bl	_ZN6OutputlsEPKc
	mov	x2, x0
	.loc 4 1177 0
	adrp	x0, .LC108
	add	x0, x0, :lo12:.LC108
	mov	x1, x0
	mov	x0, x2
	bl	_ZN6OutputlsEPKc
	mov	x2, x0
	ldrb	w0, [x29, 288]
	ubfx	x0, x0, 2, 1
	and	w0, w0, 255
	mov	w1, w0
	mov	x0, x2
	bl	_ZN6OutputlsEj
	mov	x2, x0
	adrp	x0, .LC8
	add	x0, x0, :lo12:.LC8
	mov	x1, x0
	mov	x0, x2
	bl	_ZN6OutputlsEPKc
	mov	x2, x0
	.loc 4 1178 0
	adrp	x0, .LC109
	add	x0, x0, :lo12:.LC109
	mov	x1, x0
	mov	x0, x2
	bl	_ZN6OutputlsEPKc
	mov	x2, x0
	ldrb	w0, [x29, 288]
	ubfx	x0, x0, 3, 1
	and	w0, w0, 255
	mov	w1, w0
	mov	x0, x2
	bl	_ZN6OutputlsEj
	mov	x2, x0
	adrp	x0, .LC8
	add	x0, x0, :lo12:.LC8
	mov	x1, x0
	mov	x0, x2
	bl	_ZN6OutputlsEPKc
	mov	x2, x0
	.loc 4 1179 0
	adrp	x0, .LC110
	add	x0, x0, :lo12:.LC110
	mov	x1, x0
	mov	x0, x2
	bl	_ZN6OutputlsEPKc
	mov	x2, x0
	ldrb	w0, [x29, 288]
	ubfx	x0, x0, 4, 1
	and	w0, w0, 255
	mov	w1, w0
	mov	x0, x2
	bl	_ZN6OutputlsEj
	mov	x2, x0
	adrp	x0, .LC8
	add	x0, x0, :lo12:.LC8
	mov	x1, x0
	mov	x0, x2
	bl	_ZN6OutputlsEPKc
	mov	x2, x0
	.loc 4 1180 0
	adrp	x0, .LC111
	add	x0, x0, :lo12:.LC111
	mov	x1, x0
	mov	x0, x2
	bl	_ZN6OutputlsEPKc
	mov	x2, x0
	ldrb	w0, [x29, 288]
	ubfx	x0, x0, 5, 1
	and	w0, w0, 255
	mov	w1, w0
	mov	x0, x2
	bl	_ZN6OutputlsEj
	mov	x2, x0
	adrp	x0, .LC8
	add	x0, x0, :lo12:.LC8
	mov	x1, x0
	mov	x0, x2
	bl	_ZN6OutputlsEPKc
	mov	x2, x0
	.loc 4 1181 0
	adrp	x0, .LC33
	add	x0, x0, :lo12:.LC33
	mov	x1, x0
	mov	x0, x2
	bl	_ZN6OutputlsEPKc
	mov	x2, x0
	ldrb	w0, [x29, 288]
	ubfx	x0, x0, 6, 1
	and	w0, w0, 255
	mov	w1, w0
	mov	x0, x2
	bl	_ZN6OutputlsEj
	mov	x2, x0
	adrp	x0, .LC8
	add	x0, x0, :lo12:.LC8
	mov	x1, x0
	mov	x0, x2
	bl	_ZN6OutputlsEPKc
	mov	x2, x0
	.loc 4 1182 0
	adrp	x0, .LC112
	add	x0, x0, :lo12:.LC112
	mov	x1, x0
	mov	x0, x2
	bl	_ZN6OutputlsEPKc
	mov	x2, x0
	ldrb	w0, [x29, 288]
	ubfx	x0, x0, 7, 1
	and	w0, w0, 255
	mov	w1, w0
	mov	x0, x2
	bl	_ZN6OutputlsEj
	mov	x2, x0
	adrp	x0, .LC8
	add	x0, x0, :lo12:.LC8
	mov	x1, x0
	mov	x0, x2
	bl	_ZN6OutputlsEPKc
	mov	x2, x0
	.loc 4 1183 0
	adrp	x0, .LC113
	add	x0, x0, :lo12:.LC113
	mov	x1, x0
	mov	x0, x2
	bl	_ZN6OutputlsEPKc
	mov	x2, x0
	ldrb	w0, [x29, 289]
	ubfx	x0, x0, 0, 1
	and	w0, w0, 255
	mov	w1, w0
	mov	x0, x2
	bl	_ZN6OutputlsEj
	mov	x2, x0
	adrp	x0, .LC8
	add	x0, x0, :lo12:.LC8
	mov	x1, x0
	mov	x0, x2
	bl	_ZN6OutputlsEPKc
	mov	x2, x0
	.loc 4 1184 0
	adrp	x0, .LC114
	add	x0, x0, :lo12:.LC114
	mov	x1, x0
	mov	x0, x2
	bl	_ZN6OutputlsEPKc
	mov	x2, x0
	ldrb	w0, [x29, 289]
	ubfx	x0, x0, 1, 1
	and	w0, w0, 255
	mov	w1, w0
	mov	x0, x2
	bl	_ZN6OutputlsEj
	mov	x2, x0
	adrp	x0, .LC8
	add	x0, x0, :lo12:.LC8
	mov	x1, x0
	mov	x0, x2
	bl	_ZN6OutputlsEPKc
	mov	x2, x0
	.loc 4 1185 0
	adrp	x0, .LC47
	add	x0, x0, :lo12:.LC47
	mov	x1, x0
	mov	x0, x2
	bl	_ZN6OutputlsEPKc
	mov	x2, x0
	ldrb	w0, [x29, 289]
	ubfx	x0, x0, 2, 1
	and	w0, w0, 255
	mov	w1, w0
	mov	x0, x2
	bl	_ZN6OutputlsEj
	mov	x2, x0
	adrp	x0, .LC8
	add	x0, x0, :lo12:.LC8
	mov	x1, x0
	mov	x0, x2
	bl	_ZN6OutputlsEPKc
	mov	x2, x0
	.loc 4 1186 0
	adrp	x0, .LC115
	add	x0, x0, :lo12:.LC115
	mov	x1, x0
	mov	x0, x2
	bl	_ZN6OutputlsEPKc
	mov	x2, x0
	ldrb	w0, [x29, 289]
	ubfx	x0, x0, 3, 1
	and	w0, w0, 255
	mov	w1, w0
	mov	x0, x2
	bl	_ZN6OutputlsEj
	mov	x2, x0
	adrp	x0, .LC8
	add	x0, x0, :lo12:.LC8
	mov	x1, x0
	mov	x0, x2
	bl	_ZN6OutputlsEPKc
	mov	x2, x0
	.loc 4 1187 0
	adrp	x0, .LC116
	add	x0, x0, :lo12:.LC116
	mov	x1, x0
	mov	x0, x2
	bl	_ZN6OutputlsEPKc
	mov	x2, x0
	ldrb	w0, [x29, 289]
	ubfx	x0, x0, 4, 1
	and	w0, w0, 255
	mov	w1, w0
	mov	x0, x2
	bl	_ZN6OutputlsEj
	mov	x2, x0
	adrp	x0, .LC8
	add	x0, x0, :lo12:.LC8
	mov	x1, x0
	mov	x0, x2
	bl	_ZN6OutputlsEPKc
	mov	x2, x0
	.loc 4 1188 0
	adrp	x0, .LC66
	add	x0, x0, :lo12:.LC66
	mov	x1, x0
	mov	x0, x2
	bl	_ZN6OutputlsEPKc
	mov	x2, x0
	ldrb	w0, [x29, 289]
	ubfx	x0, x0, 5, 1
	and	w0, w0, 255
	mov	w1, w0
	mov	x0, x2
	bl	_ZN6OutputlsEj
	mov	x2, x0
	adrp	x0, .LC8
	add	x0, x0, :lo12:.LC8
	mov	x1, x0
	mov	x0, x2
	bl	_ZN6OutputlsEPKc
	mov	x2, x0
	.loc 4 1189 0
	adrp	x0, .LC117
	add	x0, x0, :lo12:.LC117
	mov	x1, x0
	mov	x0, x2
	bl	_ZN6OutputlsEPKc
	mov	x2, x0
	ldrb	w0, [x29, 289]
	ubfx	x0, x0, 6, 1
	and	w0, w0, 255
	mov	w1, w0
	mov	x0, x2
	bl	_ZN6OutputlsEj
	mov	x2, x0
	adrp	x0, .LC8
	add	x0, x0, :lo12:.LC8
	mov	x1, x0
	mov	x0, x2
	bl	_ZN6OutputlsEPKc
	mov	x2, x0
	.loc 4 1190 0
	adrp	x0, .LC118
	add	x0, x0, :lo12:.LC118
	mov	x1, x0
	mov	x0, x2
	bl	_ZN6OutputlsEPKc
	mov	x2, x0
	ldrb	w0, [x29, 289]
	ubfx	x0, x0, 7, 1
	and	w0, w0, 255
	mov	w1, w0
	mov	x0, x2
	bl	_ZN6OutputlsEj
	mov	x2, x0
	adrp	x0, .LC8
	add	x0, x0, :lo12:.LC8
	mov	x1, x0
	mov	x0, x2
	bl	_ZN6OutputlsEPKc
	mov	x2, x0
	.loc 4 1191 0
	adrp	x0, .LC119
	add	x0, x0, :lo12:.LC119
	mov	x1, x0
	mov	x0, x2
	bl	_ZN6OutputlsEPKc
	mov	x2, x0
	ldrb	w0, [x29, 290]
	ubfx	x0, x0, 0, 1
	and	w0, w0, 255
	mov	w1, w0
	mov	x0, x2
	bl	_ZN6OutputlsEj
	mov	x2, x0
	adrp	x0, .LC8
	add	x0, x0, :lo12:.LC8
	mov	x1, x0
	mov	x0, x2
	bl	_ZN6OutputlsEPKc
	mov	x2, x0
	.loc 4 1192 0
	adrp	x0, .LC120
	add	x0, x0, :lo12:.LC120
	mov	x1, x0
	mov	x0, x2
	bl	_ZN6OutputlsEPKc
	mov	x2, x0
	ldrb	w0, [x29, 290]
	ubfx	x0, x0, 1, 1
	and	w0, w0, 255
	mov	w1, w0
	mov	x0, x2
	bl	_ZN6OutputlsEj
	mov	x2, x0
	adrp	x0, .LC8
	add	x0, x0, :lo12:.LC8
	mov	x1, x0
	mov	x0, x2
	bl	_ZN6OutputlsEPKc
	mov	x2, x0
	.loc 4 1193 0
	adrp	x0, .LC121
	add	x0, x0, :lo12:.LC121
	mov	x1, x0
	mov	x0, x2
	bl	_ZN6OutputlsEPKc
	mov	x2, x0
	ldrb	w0, [x29, 290]
	ubfx	x0, x0, 2, 1
	and	w0, w0, 255
	mov	w1, w0
	mov	x0, x2
	bl	_ZN6OutputlsEj
	mov	x2, x0
	adrp	x0, .LC8
	add	x0, x0, :lo12:.LC8
	mov	x1, x0
	mov	x0, x2
	bl	_ZN6OutputlsEPKc
	mov	x2, x0
	.loc 4 1194 0
	adrp	x0, .LC122
	add	x0, x0, :lo12:.LC122
	mov	x1, x0
	mov	x0, x2
	bl	_ZN6OutputlsEPKc
	mov	x2, x0
	ldrb	w0, [x29, 290]
	ubfx	x0, x0, 3, 1
	and	w0, w0, 255
	mov	w1, w0
	mov	x0, x2
	bl	_ZN6OutputlsEj
	mov	x2, x0
	adrp	x0, .LC8
	add	x0, x0, :lo12:.LC8
	mov	x1, x0
	mov	x0, x2
	bl	_ZN6OutputlsEPKc
	mov	x2, x0
	.loc 4 1195 0
	adrp	x0, .LC123
	add	x0, x0, :lo12:.LC123
	mov	x1, x0
	mov	x0, x2
	bl	_ZN6OutputlsEPKc
	mov	x2, x0
	ldrb	w0, [x29, 290]
	ubfx	x0, x0, 4, 1
	and	w0, w0, 255
	mov	w1, w0
	mov	x0, x2
	bl	_ZN6OutputlsEj
	mov	x2, x0
	adrp	x0, .LC8
	add	x0, x0, :lo12:.LC8
	mov	x1, x0
	mov	x0, x2
	bl	_ZN6OutputlsEPKc
	mov	x2, x0
	.loc 4 1196 0
	adrp	x0, .LC124
	add	x0, x0, :lo12:.LC124
	mov	x1, x0
	mov	x0, x2
	bl	_ZN6OutputlsEPKc
	mov	x2, x0
	ldrb	w0, [x29, 290]
	ubfx	x0, x0, 5, 1
	and	w0, w0, 255
	mov	w1, w0
	mov	x0, x2
	bl	_ZN6OutputlsEj
	mov	x2, x0
	adrp	x0, .LC8
	add	x0, x0, :lo12:.LC8
	mov	x1, x0
	mov	x0, x2
	bl	_ZN6OutputlsEPKc
	mov	x2, x0
	.loc 4 1197 0
	adrp	x0, .LC125
	add	x0, x0, :lo12:.LC125
	mov	x1, x0
	mov	x0, x2
	bl	_ZN6OutputlsEPKc
	mov	x2, x0
	ldrb	w0, [x29, 290]
	ubfx	x0, x0, 6, 1
	and	w0, w0, 255
	mov	w1, w0
	mov	x0, x2
	bl	_ZN6OutputlsEj
	mov	x2, x0
	adrp	x0, .LC8
	add	x0, x0, :lo12:.LC8
	mov	x1, x0
	mov	x0, x2
	bl	_ZN6OutputlsEPKc
	mov	x2, x0
	.loc 4 1198 0
	adrp	x0, .LC126
	add	x0, x0, :lo12:.LC126
	mov	x1, x0
	mov	x0, x2
	bl	_ZN6OutputlsEPKc
	mov	x2, x0
	ldrb	w0, [x29, 290]
	ubfx	x0, x0, 7, 1
	and	w0, w0, 255
	mov	w1, w0
	mov	x0, x2
	bl	_ZN6OutputlsEj
	mov	x2, x0
	adrp	x0, .LC8
	add	x0, x0, :lo12:.LC8
	mov	x1, x0
	mov	x0, x2
	bl	_ZN6OutputlsEPKc
	mov	x2, x0
	.loc 4 1199 0
	adrp	x0, .LC127
	add	x0, x0, :lo12:.LC127
	mov	x1, x0
	mov	x0, x2
	bl	_ZN6OutputlsEPKc
	mov	x2, x0
	ldrb	w0, [x29, 291]
	ubfx	x0, x0, 0, 1
	and	w0, w0, 255
	mov	w1, w0
	mov	x0, x2
	bl	_ZN6OutputlsEj
	mov	x2, x0
	adrp	x0, .LC8
	add	x0, x0, :lo12:.LC8
	mov	x1, x0
	mov	x0, x2
	bl	_ZN6OutputlsEPKc
	mov	x2, x0
	.loc 4 1200 0
	adrp	x0, .LC128
	add	x0, x0, :lo12:.LC128
	mov	x1, x0
	mov	x0, x2
	bl	_ZN6OutputlsEPKc
	mov	x2, x0
	ldrb	w0, [x29, 291]
	ubfx	x0, x0, 1, 1
	and	w0, w0, 255
	mov	w1, w0
	mov	x0, x2
	bl	_ZN6OutputlsEj
	mov	x2, x0
	adrp	x0, .LC8
	add	x0, x0, :lo12:.LC8
	mov	x1, x0
	mov	x0, x2
	bl	_ZN6OutputlsEPKc
	mov	x2, x0
	.loc 4 1201 0
	adrp	x0, .LC129
	add	x0, x0, :lo12:.LC129
	mov	x1, x0
	mov	x0, x2
	bl	_ZN6OutputlsEPKc
	mov	x2, x0
	ldrb	w0, [x29, 291]
	ubfx	x0, x0, 2, 1
	and	w0, w0, 255
	mov	w1, w0
	mov	x0, x2
	bl	_ZN6OutputlsEj
	mov	x2, x0
	adrp	x0, .LC8
	add	x0, x0, :lo12:.LC8
	mov	x1, x0
	mov	x0, x2
	bl	_ZN6OutputlsEPKc
	mov	x2, x0
	.loc 4 1202 0
	adrp	x0, .LC130
	add	x0, x0, :lo12:.LC130
	mov	x1, x0
	mov	x0, x2
	bl	_ZN6OutputlsEPKc
	mov	x2, x0
	ldrb	w0, [x29, 291]
	ubfx	x0, x0, 3, 1
	and	w0, w0, 255
	mov	w1, w0
	mov	x0, x2
	bl	_ZN6OutputlsEj
	mov	x2, x0
	adrp	x0, .LC8
	add	x0, x0, :lo12:.LC8
	mov	x1, x0
	mov	x0, x2
	bl	_ZN6OutputlsEPKc
	mov	x2, x0
	.loc 4 1203 0
	adrp	x0, .LC131
	add	x0, x0, :lo12:.LC131
	mov	x1, x0
	mov	x0, x2
	bl	_ZN6OutputlsEPKc
	mov	x2, x0
	ldrb	w0, [x29, 291]
	ubfx	x0, x0, 4, 1
	and	w0, w0, 255
	mov	w1, w0
	mov	x0, x2
	bl	_ZN6OutputlsEj
	mov	x2, x0
	adrp	x0, .LC8
	add	x0, x0, :lo12:.LC8
	mov	x1, x0
	mov	x0, x2
	bl	_ZN6OutputlsEPKc
	mov	x2, x0
	.loc 4 1204 0
	adrp	x0, .LC132
	add	x0, x0, :lo12:.LC132
	mov	x1, x0
	mov	x0, x2
	bl	_ZN6OutputlsEPKc
	mov	x2, x0
	ldrb	w0, [x29, 291]
	ubfx	x0, x0, 5, 1
	and	w0, w0, 255
	mov	w1, w0
	mov	x0, x2
	bl	_ZN6OutputlsEj
	mov	x2, x0
	adrp	x0, .LC8
	add	x0, x0, :lo12:.LC8
	mov	x1, x0
	mov	x0, x2
	bl	_ZN6OutputlsEPKc
	mov	x2, x0
	.loc 4 1205 0
	adrp	x0, .LC133
	add	x0, x0, :lo12:.LC133
	mov	x1, x0
	mov	x0, x2
	bl	_ZN6OutputlsEPKc
	mov	x2, x0
	ldrb	w0, [x29, 291]
	ubfx	x0, x0, 6, 2
	and	w0, w0, 255
	mov	w1, w0
	mov	x0, x2
	bl	_ZN6OutputlsEj
	mov	x2, x0
	.loc 4 1206 0
	adrp	x0, .LC17
	add	x0, x0, :lo12:.LC17
	mov	x1, x0
	mov	x0, x2
	bl	_ZN6OutputlsEPKc
.LBE127:
.LBE126:
.LBB128:
.LBB129:
	.loc 4 815 0
	// Start of user assembly
// 815 "D:\Pool\eclipse-workspace_aarch64\newspace\raspiOS\include/arch/common_aarch64/system_common_registers.h" 1
	mrs x0,ID_AA64MMFR1_EL1
	
// 0 "" 2
	// End of user assembly
	str	x0, [x29, 64]
	ldr	x0, [x29, 64]
.LBE129:
.LBE128:
	.loc 3 294 0
	ubfx	x0, x0, 16, 8
	and	w0, w0, 255
	and	w0, w0, -16
	and	w0, w0, 255
	cmp	w0, 0
	cset	w0, eq
	and	w0, w0, 255
	cmp	w0, 0
	beq	.L41
	.loc 3 296 0
	adrp	x0, .LC20
	add	x1, x0, :lo12:.LC20
	adrp	x0, kout
	add	x0, x0, :lo12:kout
	bl	_ZN6OutputlsEPKc
	mov	x2, x0
	adrp	x0, .LC134
	add	x0, x0, :lo12:.LC134
	mov	x1, x0
	mov	x0, x2
	bl	_ZN6OutputlsEPKc
	b	.L42
.L41:
.LBB130:
.LBB131:
	.loc 4 566 0
	// Start of user assembly
// 566 "D:\Pool\eclipse-workspace_aarch64\newspace\raspiOS\include/arch/common_aarch64/system_common_registers.h" 1
	mrs x0,PAN
	
// 0 "" 2
	// End of user assembly
	str	w0, [x29, 80]
	ldr	w0, [x29, 80]
.LBE131:
.LBE130:
	.loc 3 299 0
	str	w0, [x29, 296]
.LBB132:
.LBB133:
	.loc 4 556 0
	adrp	x0, .LC135
	add	x1, x0, :lo12:.LC135
	adrp	x0, kout
	add	x0, x0, :lo12:kout
	bl	_ZN6OutputlsEPKc
	mov	x2, x0
	.loc 4 557 0
	adrp	x0, .LC33
	add	x0, x0, :lo12:.LC33
	mov	x1, x0
	mov	x0, x2
	bl	_ZN6OutputlsEPKc
	mov	x2, x0
	ldr	w0, [x29, 296]
	ubfx	x0, x0, 0, 22
	mov	w1, w0
	mov	x0, x2
	bl	_ZN6OutputlsEj
	mov	x2, x0
	adrp	x0, .LC8
	add	x0, x0, :lo12:.LC8
	mov	x1, x0
	mov	x0, x2
	bl	_ZN6OutputlsEPKc
	mov	x2, x0
	.loc 4 558 0
	adrp	x0, .LC136
	add	x0, x0, :lo12:.LC136
	mov	x1, x0
	mov	x0, x2
	bl	_ZN6OutputlsEPKc
	mov	x2, x0
	ldrb	w0, [x29, 298]
	ubfx	x0, x0, 6, 1
	and	w0, w0, 255
	mov	w1, w0
	mov	x0, x2
	bl	_ZN6OutputlsEj
	mov	x2, x0
	adrp	x0, .LC8
	add	x0, x0, :lo12:.LC8
	mov	x1, x0
	mov	x0, x2
	bl	_ZN6OutputlsEPKc
	mov	x2, x0
	.loc 4 559 0
	adrp	x0, .LC47
	add	x0, x0, :lo12:.LC47
	mov	x1, x0
	mov	x0, x2
	bl	_ZN6OutputlsEPKc
	mov	x2, x0
	ldrh	w0, [x29, 298]
	ubfx	x0, x0, 7, 9
	and	w0, w0, 65535
	mov	w1, w0
	mov	x0, x2
	bl	_ZN6OutputlsEj
	mov	x2, x0
	.loc 4 560 0
	adrp	x0, .LC17
	add	x0, x0, :lo12:.LC17
	mov	x1, x0
	mov	x0, x2
	bl	_ZN6OutputlsEPKc
.L42:
.LBE133:
.LBE132:
.LBB134:
.LBB135:
	.loc 4 1212 0
	// Start of user assembly
// 1212 "D:\Pool\eclipse-workspace_aarch64\newspace\raspiOS\include/arch/common_aarch64/system_common_registers.h" 1
	mrs x0,SCTLR_EL1
	
// 0 "" 2
	// End of user assembly
	str	w0, [x29, 88]
	ldr	w0, [x29, 88]
.LBE135:
.LBE134:
	.loc 3 314 0
	str	w0, [x29, 104]
	.loc 3 315 0
	ldrb	w0, [x29, 107]
	and	w0, w0, -3
	strb	w0, [x29, 107]
	.loc 3 316 0
	ldrb	w0, [x29, 107]
	and	w0, w0, -2
	strb	w0, [x29, 107]
	.loc 3 317 0
	ldrb	w0, [x29, 106]
	and	w0, w0, -9
	strb	w0, [x29, 106]
	.loc 3 318 0
	ldrb	w0, [x29, 105]
	orr	w0, w0, 16
	strb	w0, [x29, 105]
	.loc 3 319 0
	ldrb	w0, [x29, 104]
	and	w0, w0, -9
	strb	w0, [x29, 104]
	.loc 3 320 0
	ldrb	w0, [x29, 104]
	and	w0, w0, -17
	strb	w0, [x29, 104]
	.loc 3 321 0
	ldrb	w0, [x29, 104]
	orr	w0, w0, 4
	strb	w0, [x29, 104]
	.loc 3 322 0
	ldrb	w0, [x29, 104]
	and	w0, w0, -3
	strb	w0, [x29, 104]
	.loc 3 323 0
	ldrb	w0, [x29, 104]
	orr	w0, w0, 1
	strb	w0, [x29, 104]
.LBB136:
.LBB137:
	.loc 4 1214 0
	ldr	w0, [x29, 104]
	// Start of user assembly
// 1214 "D:\Pool\eclipse-workspace_aarch64\newspace\raspiOS\include/arch/common_aarch64/system_common_registers.h" 1
	msr SCTLR_EL1,x0 
	
// 0 "" 2
	// End of user assembly
.LBE137:
.LBE136:
.LBB138:
.LBB139:
	.loc 6 50 0
	// Start of user assembly
// 50 "D:\Pool\eclipse-workspace_aarch64\newspace\raspiOS\include/asm_instructions.h" 1
	isb 
	
// 0 "" 2
	// End of user assembly
.LBE139:
.LBE138:
.LBB140:
.LBB141:
	.loc 4 1213 0
	// Start of user assembly
// 1213 "D:\Pool\eclipse-workspace_aarch64\newspace\raspiOS\include/arch/common_aarch64/system_common_registers.h" 1
	mrs x0,SCTLR_EL1
	
// 0 "" 2
	// End of user assembly
	str	w0, [x29, 104]
.LBE141:
.LBE140:
.LBB142:
.LBB143:
	.loc 4 1174 0
	adrp	x0, .LC105
	add	x1, x0, :lo12:.LC105
	adrp	x0, kout
	add	x0, x0, :lo12:kout
	bl	_ZN6OutputlsEPKc
	mov	x2, x0
	.loc 4 1175 0
	adrp	x0, .LC106
	add	x0, x0, :lo12:.LC106
	mov	x1, x0
	mov	x0, x2
	bl	_ZN6OutputlsEPKc
	mov	x2, x0
	ldrb	w0, [x29, 104]
	ubfx	x0, x0, 0, 1
	and	w0, w0, 255
	mov	w1, w0
	mov	x0, x2
	bl	_ZN6OutputlsEj
	mov	x2, x0
	adrp	x0, .LC8
	add	x0, x0, :lo12:.LC8
	mov	x1, x0
	mov	x0, x2
	bl	_ZN6OutputlsEPKc
	mov	x2, x0
	.loc 4 1176 0
	adrp	x0, .LC107
	add	x0, x0, :lo12:.LC107
	mov	x1, x0
	mov	x0, x2
	bl	_ZN6OutputlsEPKc
	mov	x2, x0
	ldrb	w0, [x29, 104]
	ubfx	x0, x0, 1, 1
	and	w0, w0, 255
	mov	w1, w0
	mov	x0, x2
	bl	_ZN6OutputlsEj
	mov	x2, x0
	adrp	x0, .LC8
	add	x0, x0, :lo12:.LC8
	mov	x1, x0
	mov	x0, x2
	bl	_ZN6OutputlsEPKc
	mov	x2, x0
	.loc 4 1177 0
	adrp	x0, .LC108
	add	x0, x0, :lo12:.LC108
	mov	x1, x0
	mov	x0, x2
	bl	_ZN6OutputlsEPKc
	mov	x2, x0
	ldrb	w0, [x29, 104]
	ubfx	x0, x0, 2, 1
	and	w0, w0, 255
	mov	w1, w0
	mov	x0, x2
	bl	_ZN6OutputlsEj
	mov	x2, x0
	adrp	x0, .LC8
	add	x0, x0, :lo12:.LC8
	mov	x1, x0
	mov	x0, x2
	bl	_ZN6OutputlsEPKc
	mov	x2, x0
	.loc 4 1178 0
	adrp	x0, .LC109
	add	x0, x0, :lo12:.LC109
	mov	x1, x0
	mov	x0, x2
	bl	_ZN6OutputlsEPKc
	mov	x2, x0
	ldrb	w0, [x29, 104]
	ubfx	x0, x0, 3, 1
	and	w0, w0, 255
	mov	w1, w0
	mov	x0, x2
	bl	_ZN6OutputlsEj
	mov	x2, x0
	adrp	x0, .LC8
	add	x0, x0, :lo12:.LC8
	mov	x1, x0
	mov	x0, x2
	bl	_ZN6OutputlsEPKc
	mov	x2, x0
	.loc 4 1179 0
	adrp	x0, .LC110
	add	x0, x0, :lo12:.LC110
	mov	x1, x0
	mov	x0, x2
	bl	_ZN6OutputlsEPKc
	mov	x2, x0
	ldrb	w0, [x29, 104]
	ubfx	x0, x0, 4, 1
	and	w0, w0, 255
	mov	w1, w0
	mov	x0, x2
	bl	_ZN6OutputlsEj
	mov	x2, x0
	adrp	x0, .LC8
	add	x0, x0, :lo12:.LC8
	mov	x1, x0
	mov	x0, x2
	bl	_ZN6OutputlsEPKc
	mov	x2, x0
	.loc 4 1180 0
	adrp	x0, .LC111
	add	x0, x0, :lo12:.LC111
	mov	x1, x0
	mov	x0, x2
	bl	_ZN6OutputlsEPKc
	mov	x2, x0
	ldrb	w0, [x29, 104]
	ubfx	x0, x0, 5, 1
	and	w0, w0, 255
	mov	w1, w0
	mov	x0, x2
	bl	_ZN6OutputlsEj
	mov	x2, x0
	adrp	x0, .LC8
	add	x0, x0, :lo12:.LC8
	mov	x1, x0
	mov	x0, x2
	bl	_ZN6OutputlsEPKc
	mov	x2, x0
	.loc 4 1181 0
	adrp	x0, .LC33
	add	x0, x0, :lo12:.LC33
	mov	x1, x0
	mov	x0, x2
	bl	_ZN6OutputlsEPKc
	mov	x2, x0
	ldrb	w0, [x29, 104]
	ubfx	x0, x0, 6, 1
	and	w0, w0, 255
	mov	w1, w0
	mov	x0, x2
	bl	_ZN6OutputlsEj
	mov	x2, x0
	adrp	x0, .LC8
	add	x0, x0, :lo12:.LC8
	mov	x1, x0
	mov	x0, x2
	bl	_ZN6OutputlsEPKc
	mov	x2, x0
	.loc 4 1182 0
	adrp	x0, .LC112
	add	x0, x0, :lo12:.LC112
	mov	x1, x0
	mov	x0, x2
	bl	_ZN6OutputlsEPKc
	mov	x2, x0
	ldrb	w0, [x29, 104]
	ubfx	x0, x0, 7, 1
	and	w0, w0, 255
	mov	w1, w0
	mov	x0, x2
	bl	_ZN6OutputlsEj
	mov	x2, x0
	adrp	x0, .LC8
	add	x0, x0, :lo12:.LC8
	mov	x1, x0
	mov	x0, x2
	bl	_ZN6OutputlsEPKc
	mov	x2, x0
	.loc 4 1183 0
	adrp	x0, .LC113
	add	x0, x0, :lo12:.LC113
	mov	x1, x0
	mov	x0, x2
	bl	_ZN6OutputlsEPKc
	mov	x2, x0
	ldrb	w0, [x29, 105]
	ubfx	x0, x0, 0, 1
	and	w0, w0, 255
	mov	w1, w0
	mov	x0, x2
	bl	_ZN6OutputlsEj
	mov	x2, x0
	adrp	x0, .LC8
	add	x0, x0, :lo12:.LC8
	mov	x1, x0
	mov	x0, x2
	bl	_ZN6OutputlsEPKc
	mov	x2, x0
	.loc 4 1184 0
	adrp	x0, .LC114
	add	x0, x0, :lo12:.LC114
	mov	x1, x0
	mov	x0, x2
	bl	_ZN6OutputlsEPKc
	mov	x2, x0
	ldrb	w0, [x29, 105]
	ubfx	x0, x0, 1, 1
	and	w0, w0, 255
	mov	w1, w0
	mov	x0, x2
	bl	_ZN6OutputlsEj
	mov	x2, x0
	adrp	x0, .LC8
	add	x0, x0, :lo12:.LC8
	mov	x1, x0
	mov	x0, x2
	bl	_ZN6OutputlsEPKc
	mov	x2, x0
	.loc 4 1185 0
	adrp	x0, .LC47
	add	x0, x0, :lo12:.LC47
	mov	x1, x0
	mov	x0, x2
	bl	_ZN6OutputlsEPKc
	mov	x2, x0
	ldrb	w0, [x29, 105]
	ubfx	x0, x0, 2, 1
	and	w0, w0, 255
	mov	w1, w0
	mov	x0, x2
	bl	_ZN6OutputlsEj
	mov	x2, x0
	adrp	x0, .LC8
	add	x0, x0, :lo12:.LC8
	mov	x1, x0
	mov	x0, x2
	bl	_ZN6OutputlsEPKc
	mov	x2, x0
	.loc 4 1186 0
	adrp	x0, .LC115
	add	x0, x0, :lo12:.LC115
	mov	x1, x0
	mov	x0, x2
	bl	_ZN6OutputlsEPKc
	mov	x2, x0
	ldrb	w0, [x29, 105]
	ubfx	x0, x0, 3, 1
	and	w0, w0, 255
	mov	w1, w0
	mov	x0, x2
	bl	_ZN6OutputlsEj
	mov	x2, x0
	adrp	x0, .LC8
	add	x0, x0, :lo12:.LC8
	mov	x1, x0
	mov	x0, x2
	bl	_ZN6OutputlsEPKc
	mov	x2, x0
	.loc 4 1187 0
	adrp	x0, .LC116
	add	x0, x0, :lo12:.LC116
	mov	x1, x0
	mov	x0, x2
	bl	_ZN6OutputlsEPKc
	mov	x2, x0
	ldrb	w0, [x29, 105]
	ubfx	x0, x0, 4, 1
	and	w0, w0, 255
	mov	w1, w0
	mov	x0, x2
	bl	_ZN6OutputlsEj
	mov	x2, x0
	adrp	x0, .LC8
	add	x0, x0, :lo12:.LC8
	mov	x1, x0
	mov	x0, x2
	bl	_ZN6OutputlsEPKc
	mov	x2, x0
	.loc 4 1188 0
	adrp	x0, .LC66
	add	x0, x0, :lo12:.LC66
	mov	x1, x0
	mov	x0, x2
	bl	_ZN6OutputlsEPKc
	mov	x2, x0
	ldrb	w0, [x29, 105]
	ubfx	x0, x0, 5, 1
	and	w0, w0, 255
	mov	w1, w0
	mov	x0, x2
	bl	_ZN6OutputlsEj
	mov	x2, x0
	adrp	x0, .LC8
	add	x0, x0, :lo12:.LC8
	mov	x1, x0
	mov	x0, x2
	bl	_ZN6OutputlsEPKc
	mov	x2, x0
	.loc 4 1189 0
	adrp	x0, .LC117
	add	x0, x0, :lo12:.LC117
	mov	x1, x0
	mov	x0, x2
	bl	_ZN6OutputlsEPKc
	mov	x2, x0
	ldrb	w0, [x29, 105]
	ubfx	x0, x0, 6, 1
	and	w0, w0, 255
	mov	w1, w0
	mov	x0, x2
	bl	_ZN6OutputlsEj
	mov	x2, x0
	adrp	x0, .LC8
	add	x0, x0, :lo12:.LC8
	mov	x1, x0
	mov	x0, x2
	bl	_ZN6OutputlsEPKc
	mov	x2, x0
	.loc 4 1190 0
	adrp	x0, .LC118
	add	x0, x0, :lo12:.LC118
	mov	x1, x0
	mov	x0, x2
	bl	_ZN6OutputlsEPKc
	mov	x2, x0
	ldrb	w0, [x29, 105]
	ubfx	x0, x0, 7, 1
	and	w0, w0, 255
	mov	w1, w0
	mov	x0, x2
	bl	_ZN6OutputlsEj
	mov	x2, x0
	adrp	x0, .LC8
	add	x0, x0, :lo12:.LC8
	mov	x1, x0
	mov	x0, x2
	bl	_ZN6OutputlsEPKc
	mov	x2, x0
	.loc 4 1191 0
	adrp	x0, .LC119
	add	x0, x0, :lo12:.LC119
	mov	x1, x0
	mov	x0, x2
	bl	_ZN6OutputlsEPKc
	mov	x2, x0
	ldrb	w0, [x29, 106]
	ubfx	x0, x0, 0, 1
	and	w0, w0, 255
	mov	w1, w0
	mov	x0, x2
	bl	_ZN6OutputlsEj
	mov	x2, x0
	adrp	x0, .LC8
	add	x0, x0, :lo12:.LC8
	mov	x1, x0
	mov	x0, x2
	bl	_ZN6OutputlsEPKc
	mov	x2, x0
	.loc 4 1192 0
	adrp	x0, .LC120
	add	x0, x0, :lo12:.LC120
	mov	x1, x0
	mov	x0, x2
	bl	_ZN6OutputlsEPKc
	mov	x2, x0
	ldrb	w0, [x29, 106]
	ubfx	x0, x0, 1, 1
	and	w0, w0, 255
	mov	w1, w0
	mov	x0, x2
	bl	_ZN6OutputlsEj
	mov	x2, x0
	adrp	x0, .LC8
	add	x0, x0, :lo12:.LC8
	mov	x1, x0
	mov	x0, x2
	bl	_ZN6OutputlsEPKc
	mov	x2, x0
	.loc 4 1193 0
	adrp	x0, .LC121
	add	x0, x0, :lo12:.LC121
	mov	x1, x0
	mov	x0, x2
	bl	_ZN6OutputlsEPKc
	mov	x2, x0
	ldrb	w0, [x29, 106]
	ubfx	x0, x0, 2, 1
	and	w0, w0, 255
	mov	w1, w0
	mov	x0, x2
	bl	_ZN6OutputlsEj
	mov	x2, x0
	adrp	x0, .LC8
	add	x0, x0, :lo12:.LC8
	mov	x1, x0
	mov	x0, x2
	bl	_ZN6OutputlsEPKc
	mov	x2, x0
	.loc 4 1194 0
	adrp	x0, .LC122
	add	x0, x0, :lo12:.LC122
	mov	x1, x0
	mov	x0, x2
	bl	_ZN6OutputlsEPKc
	mov	x2, x0
	ldrb	w0, [x29, 106]
	ubfx	x0, x0, 3, 1
	and	w0, w0, 255
	mov	w1, w0
	mov	x0, x2
	bl	_ZN6OutputlsEj
	mov	x2, x0
	adrp	x0, .LC8
	add	x0, x0, :lo12:.LC8
	mov	x1, x0
	mov	x0, x2
	bl	_ZN6OutputlsEPKc
	mov	x2, x0
	.loc 4 1195 0
	adrp	x0, .LC123
	add	x0, x0, :lo12:.LC123
	mov	x1, x0
	mov	x0, x2
	bl	_ZN6OutputlsEPKc
	mov	x2, x0
	ldrb	w0, [x29, 106]
	ubfx	x0, x0, 4, 1
	and	w0, w0, 255
	mov	w1, w0
	mov	x0, x2
	bl	_ZN6OutputlsEj
	mov	x2, x0
	adrp	x0, .LC8
	add	x0, x0, :lo12:.LC8
	mov	x1, x0
	mov	x0, x2
	bl	_ZN6OutputlsEPKc
	mov	x2, x0
	.loc 4 1196 0
	adrp	x0, .LC124
	add	x0, x0, :lo12:.LC124
	mov	x1, x0
	mov	x0, x2
	bl	_ZN6OutputlsEPKc
	mov	x2, x0
	ldrb	w0, [x29, 106]
	ubfx	x0, x0, 5, 1
	and	w0, w0, 255
	mov	w1, w0
	mov	x0, x2
	bl	_ZN6OutputlsEj
	mov	x2, x0
	adrp	x0, .LC8
	add	x0, x0, :lo12:.LC8
	mov	x1, x0
	mov	x0, x2
	bl	_ZN6OutputlsEPKc
	mov	x2, x0
	.loc 4 1197 0
	adrp	x0, .LC125
	add	x0, x0, :lo12:.LC125
	mov	x1, x0
	mov	x0, x2
	bl	_ZN6OutputlsEPKc
	mov	x2, x0
	ldrb	w0, [x29, 106]
	ubfx	x0, x0, 6, 1
	and	w0, w0, 255
	mov	w1, w0
	mov	x0, x2
	bl	_ZN6OutputlsEj
	mov	x2, x0
	adrp	x0, .LC8
	add	x0, x0, :lo12:.LC8
	mov	x1, x0
	mov	x0, x2
	bl	_ZN6OutputlsEPKc
	mov	x2, x0
	.loc 4 1198 0
	adrp	x0, .LC126
	add	x0, x0, :lo12:.LC126
	mov	x1, x0
	mov	x0, x2
	bl	_ZN6OutputlsEPKc
	mov	x2, x0
	ldrb	w0, [x29, 106]
	ubfx	x0, x0, 7, 1
	and	w0, w0, 255
	mov	w1, w0
	mov	x0, x2
	bl	_ZN6OutputlsEj
	mov	x2, x0
	adrp	x0, .LC8
	add	x0, x0, :lo12:.LC8
	mov	x1, x0
	mov	x0, x2
	bl	_ZN6OutputlsEPKc
	mov	x2, x0
	.loc 4 1199 0
	adrp	x0, .LC127
	add	x0, x0, :lo12:.LC127
	mov	x1, x0
	mov	x0, x2
	bl	_ZN6OutputlsEPKc
	mov	x2, x0
	ldrb	w0, [x29, 107]
	ubfx	x0, x0, 0, 1
	and	w0, w0, 255
	mov	w1, w0
	mov	x0, x2
	bl	_ZN6OutputlsEj
	mov	x2, x0
	adrp	x0, .LC8
	add	x0, x0, :lo12:.LC8
	mov	x1, x0
	mov	x0, x2
	bl	_ZN6OutputlsEPKc
	mov	x2, x0
	.loc 4 1200 0
	adrp	x0, .LC128
	add	x0, x0, :lo12:.LC128
	mov	x1, x0
	mov	x0, x2
	bl	_ZN6OutputlsEPKc
	mov	x2, x0
	ldrb	w0, [x29, 107]
	ubfx	x0, x0, 1, 1
	and	w0, w0, 255
	mov	w1, w0
	mov	x0, x2
	bl	_ZN6OutputlsEj
	mov	x2, x0
	adrp	x0, .LC8
	add	x0, x0, :lo12:.LC8
	mov	x1, x0
	mov	x0, x2
	bl	_ZN6OutputlsEPKc
	mov	x2, x0
	.loc 4 1201 0
	adrp	x0, .LC129
	add	x0, x0, :lo12:.LC129
	mov	x1, x0
	mov	x0, x2
	bl	_ZN6OutputlsEPKc
	mov	x2, x0
	ldrb	w0, [x29, 107]
	ubfx	x0, x0, 2, 1
	and	w0, w0, 255
	mov	w1, w0
	mov	x0, x2
	bl	_ZN6OutputlsEj
	mov	x2, x0
	adrp	x0, .LC8
	add	x0, x0, :lo12:.LC8
	mov	x1, x0
	mov	x0, x2
	bl	_ZN6OutputlsEPKc
	mov	x2, x0
	.loc 4 1202 0
	adrp	x0, .LC130
	add	x0, x0, :lo12:.LC130
	mov	x1, x0
	mov	x0, x2
	bl	_ZN6OutputlsEPKc
	mov	x2, x0
	ldrb	w0, [x29, 107]
	ubfx	x0, x0, 3, 1
	and	w0, w0, 255
	mov	w1, w0
	mov	x0, x2
	bl	_ZN6OutputlsEj
	mov	x2, x0
	adrp	x0, .LC8
	add	x0, x0, :lo12:.LC8
	mov	x1, x0
	mov	x0, x2
	bl	_ZN6OutputlsEPKc
	mov	x2, x0
	.loc 4 1203 0
	adrp	x0, .LC131
	add	x0, x0, :lo12:.LC131
	mov	x1, x0
	mov	x0, x2
	bl	_ZN6OutputlsEPKc
	mov	x2, x0
	ldrb	w0, [x29, 107]
	ubfx	x0, x0, 4, 1
	and	w0, w0, 255
	mov	w1, w0
	mov	x0, x2
	bl	_ZN6OutputlsEj
	mov	x2, x0
	adrp	x0, .LC8
	add	x0, x0, :lo12:.LC8
	mov	x1, x0
	mov	x0, x2
	bl	_ZN6OutputlsEPKc
	mov	x2, x0
	.loc 4 1204 0
	adrp	x0, .LC132
	add	x0, x0, :lo12:.LC132
	mov	x1, x0
	mov	x0, x2
	bl	_ZN6OutputlsEPKc
	mov	x2, x0
	ldrb	w0, [x29, 107]
	ubfx	x0, x0, 5, 1
	and	w0, w0, 255
	mov	w1, w0
	mov	x0, x2
	bl	_ZN6OutputlsEj
	mov	x2, x0
	adrp	x0, .LC8
	add	x0, x0, :lo12:.LC8
	mov	x1, x0
	mov	x0, x2
	bl	_ZN6OutputlsEPKc
	mov	x2, x0
	.loc 4 1205 0
	adrp	x0, .LC133
	add	x0, x0, :lo12:.LC133
	mov	x1, x0
	mov	x0, x2
	bl	_ZN6OutputlsEPKc
	mov	x2, x0
	ldrb	w0, [x29, 107]
	ubfx	x0, x0, 6, 2
	and	w0, w0, 255
	mov	w1, w0
	mov	x0, x2
	bl	_ZN6OutputlsEj
	mov	x2, x0
	.loc 4 1206 0
	adrp	x0, .LC17
	add	x0, x0, :lo12:.LC17
	mov	x1, x0
	mov	x0, x2
	bl	_ZN6OutputlsEPKc
.LBE143:
.LBE142:
	.loc 3 330 0
	adrp	x0, .LC20
	add	x1, x0, :lo12:.LC20
	adrp	x0, kout
	add	x0, x0, :lo12:kout
	bl	_ZN6OutputlsEPKc
	mov	x2, x0
	adrp	x0, .LC137
	add	x0, x0, :lo12:.LC137
	mov	x1, x0
	mov	x0, x2
	bl	_ZN6OutputlsEPKc
	.loc 3 332 0
	ldrb	w0, [x29, 138]
	ubfx	x0, x0, 0, 6
	and	w0, w0, 255
	and	x0, x0, 255
	str	x0, [x29, 384]
.LBB144:
.LBB145:
	.loc 5 54 0
	ldr	x0, [x29, 384]
	mov	w1, w0
	mov	w0, 64
	sub	w0, w0, w1
	mov	x1, -1
	lsr	x1, x1, x0
	ldr	x0, [x29, 384]
	mov	w2, w0
	mov	w0, 64
	sub	w0, w0, w2
	lsl	x1, x1, x0
.LBE145:
.LBE144:
	.loc 3 332 0
	ldr	x0, [x29, 248]
	orr	x1, x1, x0
	ldr	x0, [x29, 248]
	bfi	x0, x1, 0, 64
	str	x0, [x29, 248]
.LBB146:
.LBB147:
	.loc 4 75 0
	ldr	x0, [x29, 248]
	// Start of user assembly
// 75 "D:\Pool\eclipse-workspace_aarch64\newspace\raspiOS\include/arch/common_aarch64/system_common_registers.h" 1
	msr VBAR_EL1,x0 
	
// 0 "" 2
	// End of user assembly
.LBE147:
.LBE146:
	.loc 3 336 0
	ldr	x0, [x29, 96]
	mov	x1, 0
	and	x0, x0, x1
	str	x0, [x29, 96]
	.loc 3 338 0
	adrp	x0, .LC20
	add	x1, x0, :lo12:.LC20
	adrp	x0, kout
	add	x0, x0, :lo12:kout
	bl	_ZN6OutputlsEPKc
	mov	x2, x0
	adrp	x0, .LC138
	add	x0, x0, :lo12:.LC138
	mov	x1, x0
	mov	x0, x2
	bl	_ZN6OutputlsEPKc
	.loc 3 339 0
	adrp	x0, afterMMUSet
	add	x1, x0, :lo12:afterMMUSet
	add	x0, x29, 304
	bl	_ZN16IntegerFormatterILi16EEC1Em
	add	x1, x29, 304
	adrp	x0, kout
	add	x0, x0, :lo12:kout
	bl	_ZlsILi16EER6OutputS1_RK16IntegerFormatterIXT_EE
	mov	x2, x0
	adrp	x0, .LC17
	add	x0, x0, :lo12:.LC17
	mov	x1, x0
	mov	x0, x2
	bl	_ZN6OutputlsEPKc
	.loc 3 340 0
	adrp	x0, .LC20
	add	x1, x0, :lo12:.LC20
	adrp	x0, kout
	add	x0, x0, :lo12:kout
	bl	_ZN6OutputlsEPKc
	mov	x2, x0
	adrp	x0, .LC139
	add	x0, x0, :lo12:.LC139
	mov	x1, x0
	mov	x0, x2
	bl	_ZN6OutputlsEPKc
	.loc 3 341 0
	adrp	x0, mainEnd
	add	x1, x0, :lo12:mainEnd
	add	x0, x29, 312
	bl	_ZN16IntegerFormatterILi16EEC1Em
	add	x1, x29, 312
	adrp	x0, kout
	add	x0, x0, :lo12:kout
	bl	_ZlsILi16EER6OutputS1_RK16IntegerFormatterIXT_EE
	mov	x2, x0
	adrp	x0, .LC17
	add	x0, x0, :lo12:.LC17
	mov	x1, x0
	mov	x0, x2
	bl	_ZN6OutputlsEPKc
	.loc 3 344 0
	ldrb	w0, [x29, 138]
	ubfx	x0, x0, 0, 6
	and	w0, w0, 255
	and	x0, x0, 255
	str	x0, [x29, 392]
.LBB148:
.LBB149:
	.loc 5 54 0
	ldr	x0, [x29, 392]
	mov	w1, w0
	mov	w0, 64
	sub	w0, w0, w1
	mov	x1, -1
	lsr	x1, x1, x0
	ldr	x0, [x29, 392]
	mov	w2, w0
	mov	w0, 64
	sub	w0, w0, w2
	lsl	x1, x1, x0
.LBE149:
.LBE148:
	.loc 3 344 0
	adrp	x0, afterMMUSet
	add	x0, x0, :lo12:afterMMUSet
	orr	x1, x1, x0
	ldr	x0, [x29, 96]
	bfi	x0, x1, 0, 64
	str	x0, [x29, 96]
.LBB150:
.LBB151:
	.loc 4 631 0
	ldr	x0, [x29, 96]
	// Start of user assembly
// 631 "D:\Pool\eclipse-workspace_aarch64\newspace\raspiOS\include/arch/common_aarch64/system_common_registers.h" 1
	br x0
	
// 0 "" 2
	// End of user assembly
.LBE151:
.LBE150:
	.loc 3 352 0
	ldrb	w0, [x29, 138]
	ubfx	x0, x0, 0, 6
	and	w0, w0, 255
	and	x0, x0, 255
	str	x0, [x29, 400]
.LBB152:
.LBB153:
	.loc 5 54 0
	ldr	x0, [x29, 400]
	mov	w1, w0
	mov	w0, 64
	sub	w0, w0, w1
	mov	x1, -1
	lsr	x1, x1, x0
	ldr	x0, [x29, 400]
	mov	w2, w0
	mov	w0, 64
	sub	w0, w0, w2
	lsl	x1, x1, x0
.LBE153:
.LBE152:
	.loc 3 352 0
	// Start of user assembly
// 352 "D:/Pool/eclipse-workspace_aarch64/newspace/raspiOS/src/arch/qemu_virt/main_run_process.cpp" 1
	mov x0,sp 
	orr x0,x0,x1 
	mov sp,x0 
	orr x29,x29, x1 
	
// 0 "" 2
.L49:
	.loc 3 355 0
// 355 "D:/Pool/eclipse-workspace_aarch64/newspace/raspiOS/src/arch/qemu_virt/main_run_process.cpp" 1
	afterMMUSet:
	
// 0 "" 2
	.loc 3 356 0
	// End of user assembly
	adrp	x0, .LC20
	add	x1, x0, :lo12:.LC20
	adrp	x0, kout
	add	x0, x0, :lo12:kout
	bl	_ZN6OutputlsEPKc
	mov	x2, x0
	adrp	x0, .LC140
	add	x0, x0, :lo12:.LC140
	mov	x1, x0
	mov	x0, x2
	bl	_ZN6OutputlsEPKc
	.loc 3 357 0
	adrp	x0, .LC20
	add	x1, x0, :lo12:.LC20
	adrp	x0, kout
	add	x0, x0, :lo12:kout
	bl	_ZN6OutputlsEPKc
	mov	x2, x0
	adrp	x0, .LC141
	add	x0, x0, :lo12:.LC141
	mov	x1, x0
	mov	x0, x2
	bl	_ZN6OutputlsEPKc
.L50:
	.loc 3 360 0
	// Start of user assembly
// 360 "D:/Pool/eclipse-workspace_aarch64/newspace/raspiOS/src/arch/qemu_virt/main_run_process.cpp" 1
	mainEnd:
	
// 0 "" 2
	.loc 3 362 0
	// End of user assembly
	mov	w0, 0
.L51:
	.loc 3 363 0 discriminator 1
	ldr	x19, [sp, 16]
	ldp	x29, x30, [sp], 448
	.cfi_restore 30
	.cfi_restore 29
	.cfi_restore 19
	.cfi_def_cfa 31, 0
	ret
	.cfi_endproc
.LFE1593:
	.size	_Z9enableMMUv, .-_Z9enableMMUv
	.section	.rodata
	.align	3
.LC0:
	.word	32
	.word	36
	.word	40
	.word	42
	.word	44
	.word	48
	.word	52
	.align	3
.LC1:
	.word	2
	.word	6
	.word	1
	.word	3
	.word	5
	.word	9
	.word	2147483647
	.align	3
.LC2:
	.word	1
	.word	1
	.word	0
	.word	0
	.word	0
	.word	0
	.word	2147483647
	.text
	.section	.text._ZN16IntegerFormatterILi16EEC2Em,"axG",@progbits,_ZN16IntegerFormatterILi16EEC5Em,comdat
	.align	2
	.weak	_ZN16IntegerFormatterILi16EEC2Em
	.type	_ZN16IntegerFormatterILi16EEC2Em, %function
_ZN16IntegerFormatterILi16EEC2Em:
.LFB1595:
	.file 8 "D:\\Pool\\eclipse-workspace_aarch64\\newspace\\raspiOS\\include/templates_implementation/IntegerFormatter.h"
	.loc 8 16 0
	.cfi_startproc
	sub	sp, sp, #16
	.cfi_def_cfa_offset 16
	str	x0, [sp, 8]
	str	x1, [sp]
.LBB154:
	.loc 8 17 0
	ldr	x0, [sp, 8]
	ldr	x1, [sp]
	str	x1, [x0]
.LBE154:
	nop
	add	sp, sp, 16
	.cfi_def_cfa_offset 0
	ret
	.cfi_endproc
.LFE1595:
	.size	_ZN16IntegerFormatterILi16EEC2Em, .-_ZN16IntegerFormatterILi16EEC2Em
	.weak	_ZN16IntegerFormatterILi16EEC1Em
	.set	_ZN16IntegerFormatterILi16EEC1Em,_ZN16IntegerFormatterILi16EEC2Em
	.section	.text._ZlsILi16EER6OutputS1_RK16IntegerFormatterIXT_EE,"axG",@progbits,_ZlsILi16EER6OutputS1_RK16IntegerFormatterIXT_EE,comdat
	.align	2
	.weak	_ZlsILi16EER6OutputS1_RK16IntegerFormatterIXT_EE
	.type	_ZlsILi16EER6OutputS1_RK16IntegerFormatterIXT_EE, %function
_ZlsILi16EER6OutputS1_RK16IntegerFormatterIXT_EE:
.LFB1597:
	.loc 8 31 0
	.cfi_startproc
	stp	x29, x30, [sp, -32]!
	.cfi_def_cfa_offset 32
	.cfi_offset 29, -32
	.cfi_offset 30, -24
	add	x29, sp, 0
	.cfi_def_cfa_register 29
	str	x0, [x29, 24]
	str	x1, [x29, 16]
	.loc 8 33 0
	ldr	x0, [x29, 16]
	bl	_ZNK16IntegerFormatterILi16EE6formatEv
	mov	x1, x0
	ldr	x0, [x29, 24]
	bl	_ZN6OutputlsEPKc
	.loc 8 34 0
	ldr	x0, [x29, 24]
	.loc 8 35 0
	ldp	x29, x30, [sp], 32
	.cfi_restore 30
	.cfi_restore 29
	.cfi_def_cfa 31, 0
	ret
	.cfi_endproc
.LFE1597:
	.size	_ZlsILi16EER6OutputS1_RK16IntegerFormatterIXT_EE, .-_ZlsILi16EER6OutputS1_RK16IntegerFormatterIXT_EE
	.section	.text._ZSt7forwardIiEOT_RNSt16remove_referenceIS0_E4typeE,"axG",@progbits,_ZSt7forwardIiEOT_RNSt16remove_referenceIS0_E4typeE,comdat
	.align	2
	.weak	_ZSt7forwardIiEOT_RNSt16remove_referenceIS0_E4typeE
	.type	_ZSt7forwardIiEOT_RNSt16remove_referenceIS0_E4typeE, %function
_ZSt7forwardIiEOT_RNSt16remove_referenceIS0_E4typeE:
.LFB1829:
	.file 9 "d:\\installed\\gcc-linaro-7.2.1-2017.11-i686-mingw32_aarch64-elf\\aarch64-elf\\include\\c++\\7.2.1\\bits\\move.h"
	.loc 9 73 0
	.cfi_startproc
	sub	sp, sp, #16
	.cfi_def_cfa_offset 16
	str	x0, [sp, 8]
	.loc 9 74 0
	ldr	x0, [sp, 8]
	add	sp, sp, 16
	.cfi_def_cfa_offset 0
	ret
	.cfi_endproc
.LFE1829:
	.size	_ZSt7forwardIiEOT_RNSt16remove_referenceIS0_E4typeE, .-_ZSt7forwardIiEOT_RNSt16remove_referenceIS0_E4typeE
	.section	.text._ZSt7forwardIDnEOT_RNSt16remove_referenceIS0_E4typeE,"axG",@progbits,_ZSt7forwardIDnEOT_RNSt16remove_referenceIS0_E4typeE,comdat
	.align	2
	.weak	_ZSt7forwardIDnEOT_RNSt16remove_referenceIS0_E4typeE
	.type	_ZSt7forwardIDnEOT_RNSt16remove_referenceIS0_E4typeE, %function
_ZSt7forwardIDnEOT_RNSt16remove_referenceIS0_E4typeE:
.LFB1830:
	.loc 9 73 0
	.cfi_startproc
	sub	sp, sp, #16
	.cfi_def_cfa_offset 16
	str	x0, [sp, 8]
	.loc 9 74 0
	ldr	x0, [sp, 8]
	add	sp, sp, 16
	.cfi_def_cfa_offset 0
	ret
	.cfi_endproc
.LFE1830:
	.size	_ZSt7forwardIDnEOT_RNSt16remove_referenceIS0_E4typeE, .-_ZSt7forwardIDnEOT_RNSt16remove_referenceIS0_E4typeE
	.section	.text._ZN14ProcessManager16createNewProcessIJiDniiiiEEEP16DoublyLinkedNodeI7ProcessEDpOT_,"axG",@progbits,_ZN14ProcessManager16createNewProcessIJiDniiiiEEEP16DoublyLinkedNodeI7ProcessEDpOT_,comdat
	.align	2
	.weak	_ZN14ProcessManager16createNewProcessIJiDniiiiEEEP16DoublyLinkedNodeI7ProcessEDpOT_
	.type	_ZN14ProcessManager16createNewProcessIJiDniiiiEEEP16DoublyLinkedNodeI7ProcessEDpOT_, %function
_ZN14ProcessManager16createNewProcessIJiDniiiiEEEP16DoublyLinkedNodeI7ProcessEDpOT_:
.LFB1828:
	.file 10 "D:\\Pool\\eclipse-workspace_aarch64\\newspace\\raspiOS\\include/templates_implementation/schedule/ProcessManager.h"
	.loc 10 14 0
	.cfi_startproc
	stp	x29, x30, [sp, -144]!
	.cfi_def_cfa_offset 144
	.cfi_offset 29, -144
	.cfi_offset 30, -136
	add	x29, sp, 0
	.cfi_def_cfa_register 29
	stp	x19, x20, [sp, 16]
	stp	x21, x22, [sp, 32]
	str	x23, [sp, 48]
	.cfi_offset 19, -128
	.cfi_offset 20, -120
	.cfi_offset 21, -112
	.cfi_offset 22, -104
	.cfi_offset 23, -96
	str	x0, [x29, 120]
	str	x1, [x29, 112]
	str	x2, [x29, 104]
	str	x3, [x29, 96]
	str	x4, [x29, 88]
	str	x5, [x29, 80]
	str	x6, [x29, 72]
	.loc 10 16 0
	ldr	x0, [x29, 120]
	bl	_ZN16DoublyLinkedListI7ProcessE10insertTailIJEEEP16DoublyLinkedNodeIS0_EDpOT_
	str	x0, [x29, 136]
.LBB155:
	.loc 10 17 0
	ldr	x0, [x29, 136]
	cmp	x0, 0
	beq	.L60
.LBB156:
	.loc 10 19 0
	ldr	x0, [x29, 136]
	bl	_ZN16DoublyLinkedNodeI7ProcessE4dataILb1EEEN18ReturnTypeSelectorIS0_XT_ELb0EE4typeEv
	mov	x22, x0
	ldr	x0, [x29, 112]
	bl	_ZSt7forwardIiEOT_RNSt16remove_referenceIS0_E4typeE
	ldr	w0, [x0]
	sxtw	x19, w0
	ldr	x0, [x29, 104]
	bl	_ZSt7forwardIDnEOT_RNSt16remove_referenceIS0_E4typeE
	ldr	x0, [x29, 96]
	bl	_ZSt7forwardIiEOT_RNSt16remove_referenceIS0_E4typeE
	ldr	w0, [x0]
	mov	w23, w0
	ldr	x0, [x29, 88]
	bl	_ZSt7forwardIiEOT_RNSt16remove_referenceIS0_E4typeE
	ldr	w0, [x0]
	sxtw	x20, w0
	ldr	x0, [x29, 80]
	bl	_ZSt7forwardIiEOT_RNSt16remove_referenceIS0_E4typeE
	ldr	w0, [x0]
	sxtw	x21, w0
	ldr	x0, [x29, 72]
	bl	_ZSt7forwardIiEOT_RNSt16remove_referenceIS0_E4typeE
	ldr	w0, [x0]
	sxtw	x0, w0
	mov	x6, x0
	mov	x5, x21
	mov	x4, x20
	mov	w3, w23
	mov	x2, 0
	mov	x1, x19
	mov	x0, x22
	bl	_ZN7Process4initEmPS_jmmm
	str	w0, [x29, 132]
	.loc 10 21 0
	ldr	w0, [x29, 132]
	cmp	w0, 0
	bne	.L60
	.loc 10 22 0
	mov	w3, 1
	mov	w2, 0
	ldr	x1, [x29, 136]
	ldr	x0, [x29, 120]
	bl	_ZN14ProcessManager19changeProcessStatusEP16DoublyLinkedNodeI7ProcessENS1_6StatusES4_
.L60:
.LBE156:
.LBE155:
	.loc 10 24 0
	ldr	x0, [x29, 136]
	.loc 10 25 0
	ldp	x19, x20, [sp, 16]
	ldp	x21, x22, [sp, 32]
	ldr	x23, [sp, 48]
	ldp	x29, x30, [sp], 144
	.cfi_restore 30
	.cfi_restore 29
	.cfi_restore 23
	.cfi_restore 21
	.cfi_restore 22
	.cfi_restore 19
	.cfi_restore 20
	.cfi_def_cfa 31, 0
	ret
	.cfi_endproc
.LFE1828:
	.size	_ZN14ProcessManager16createNewProcessIJiDniiiiEEEP16DoublyLinkedNodeI7ProcessEDpOT_, .-_ZN14ProcessManager16createNewProcessIJiDniiiiEEEP16DoublyLinkedNodeI7ProcessEDpOT_
	.section	.text._ZN16DoublyLinkedNodeI7ProcessE4dataILb1EEEN18ReturnTypeSelectorIS0_XT_ELb0EE4typeEv,"axG",@progbits,_ZN16DoublyLinkedNodeI7ProcessE4dataILb1EEEN18ReturnTypeSelectorIS0_XT_ELb0EE4typeEv,comdat
	.align	2
	.weak	_ZN16DoublyLinkedNodeI7ProcessE4dataILb1EEEN18ReturnTypeSelectorIS0_XT_ELb0EE4typeEv
	.type	_ZN16DoublyLinkedNodeI7ProcessE4dataILb1EEEN18ReturnTypeSelectorIS0_XT_ELb0EE4typeEv, %function
_ZN16DoublyLinkedNodeI7ProcessE4dataILb1EEEN18ReturnTypeSelectorIS0_XT_ELb0EE4typeEv:
.LFB1831:
	.file 11 "D:\\Pool\\eclipse-workspace_aarch64\\newspace\\raspiOS\\include/templates_implementation/data_structures/DoublyLinkedNode.h"
	.loc 11 55 0
	.cfi_startproc
	sub	sp, sp, #16
	.cfi_def_cfa_offset 16
	str	x0, [sp, 8]
	.loc 11 57 0
	ldr	x0, [sp, 8]
	.loc 11 58 0
	add	sp, sp, 16
	.cfi_def_cfa_offset 0
	ret
	.cfi_endproc
.LFE1831:
	.size	_ZN16DoublyLinkedNodeI7ProcessE4dataILb1EEEN18ReturnTypeSelectorIS0_XT_ELb0EE4typeEv, .-_ZN16DoublyLinkedNodeI7ProcessE4dataILb1EEEN18ReturnTypeSelectorIS0_XT_ELb0EE4typeEv
	.section	.text._ZNK16IntegerFormatterILi16EE6formatEv,"axG",@progbits,_ZNK16IntegerFormatterILi16EE6formatEv,comdat
	.align	2
	.weak	_ZNK16IntegerFormatterILi16EE6formatEv
	.type	_ZNK16IntegerFormatterILi16EE6formatEv, %function
_ZNK16IntegerFormatterILi16EE6formatEv:
.LFB1832:
	.loc 8 24 0
	.cfi_startproc
	stp	x29, x30, [sp, -32]!
	.cfi_def_cfa_offset 32
	.cfi_offset 29, -32
	.cfi_offset 30, -24
	add	x29, sp, 0
	.cfi_def_cfa_register 29
	str	x0, [x29, 24]
	.loc 8 26 0
	ldr	x0, [x29, 24]
	ldr	x4, [x0]
	adrp	x0, koutBuf
	add	x0, x0, :lo12:koutBuf
	mov	x3, 65
	mov	x2, x0
	mov	w1, 16
	mov	x0, x4
	bl	_Z4itosmjPcm
	.loc 8 27 0
	adrp	x0, koutBuf
	add	x0, x0, :lo12:koutBuf
	.loc 8 28 0
	ldp	x29, x30, [sp], 32
	.cfi_restore 30
	.cfi_restore 29
	.cfi_def_cfa 31, 0
	ret
	.cfi_endproc
.LFE1832:
	.size	_ZNK16IntegerFormatterILi16EE6formatEv, .-_ZNK16IntegerFormatterILi16EE6formatEv
	.section	.text._ZN16DoublyLinkedListI7ProcessE10insertTailIJEEEP16DoublyLinkedNodeIS0_EDpOT_,"axG",@progbits,_ZN16DoublyLinkedListI7ProcessE10insertTailIJEEEP16DoublyLinkedNodeIS0_EDpOT_,comdat
	.align	2
	.weak	_ZN16DoublyLinkedListI7ProcessE10insertTailIJEEEP16DoublyLinkedNodeIS0_EDpOT_
	.type	_ZN16DoublyLinkedListI7ProcessE10insertTailIJEEEP16DoublyLinkedNodeIS0_EDpOT_, %function
_ZN16DoublyLinkedListI7ProcessE10insertTailIJEEEP16DoublyLinkedNodeIS0_EDpOT_:
.LFB1931:
	.file 12 "D:\\Pool\\eclipse-workspace_aarch64\\newspace\\raspiOS\\include/templates_implementation/data_structures/DoublyLinkedList.h"
	.loc 12 105 0
	.cfi_startproc
	stp	x29, x30, [sp, -64]!
	.cfi_def_cfa_offset 64
	.cfi_offset 29, -64
	.cfi_offset 30, -56
	add	x29, sp, 0
	.cfi_def_cfa_register 29
	str	x19, [sp, 16]
	.cfi_offset 19, -48
	str	x0, [x29, 40]
	.loc 12 107 0
	mov	x0, 400
	bl	_Znwm
	mov	x19, x0
	mov	x2, 0
	mov	x1, 0
	mov	x0, x19
	bl	_ZN16DoublyLinkedNodeI7ProcessEC1IJEEEPS1_S3_DpOT_
	str	x19, [x29, 56]
	.loc 12 108 0
	ldr	x0, [x29, 56]
	cmp	x0, 0
	beq	.L68
	.loc 12 109 0
	ldr	x1, [x29, 56]
	ldr	x0, [x29, 40]
	bl	_ZN16DoublyLinkedListI7ProcessE10insertTailEP16DoublyLinkedNodeIS0_E
.L68:
	.loc 12 110 0
	ldr	x0, [x29, 56]
	.loc 12 111 0
	ldr	x19, [sp, 16]
	ldp	x29, x30, [sp], 64
	.cfi_restore 30
	.cfi_restore 29
	.cfi_restore 19
	.cfi_def_cfa 31, 0
	ret
	.cfi_endproc
.LFE1931:
	.size	_ZN16DoublyLinkedListI7ProcessE10insertTailIJEEEP16DoublyLinkedNodeIS0_EDpOT_, .-_ZN16DoublyLinkedListI7ProcessE10insertTailIJEEEP16DoublyLinkedNodeIS0_EDpOT_
	.section	.text._ZN16DoublyLinkedNodeI7ProcessEC2IJEEEPS1_S3_DpOT_,"axG",@progbits,_ZN16DoublyLinkedNodeI7ProcessEC5IJEEEPS1_S3_DpOT_,comdat
	.align	2
	.weak	_ZN16DoublyLinkedNodeI7ProcessEC2IJEEEPS1_S3_DpOT_
	.type	_ZN16DoublyLinkedNodeI7ProcessEC2IJEEEPS1_S3_DpOT_, %function
_ZN16DoublyLinkedNodeI7ProcessEC2IJEEEPS1_S3_DpOT_:
.LFB1963:
	.loc 11 16 0
	.cfi_startproc
	stp	x29, x30, [sp, -48]!
	.cfi_def_cfa_offset 48
	.cfi_offset 29, -48
	.cfi_offset 30, -40
	add	x29, sp, 0
	.cfi_def_cfa_register 29
	str	x0, [x29, 40]
	str	x1, [x29, 32]
	str	x2, [x29, 24]
.LBB157:
	.loc 11 20 0
	ldr	x0, [x29, 40]
	bl	_ZN7ProcessC1Ev
	ldr	x0, [x29, 40]
	ldr	x1, [x29, 32]
	str	x1, [x0, 384]
	ldr	x0, [x29, 40]
	ldr	x1, [x29, 24]
	str	x1, [x0, 392]
.LBE157:
	.loc 11 21 0
	nop
	ldp	x29, x30, [sp], 48
	.cfi_restore 30
	.cfi_restore 29
	.cfi_def_cfa 31, 0
	ret
	.cfi_endproc
.LFE1963:
	.size	_ZN16DoublyLinkedNodeI7ProcessEC2IJEEEPS1_S3_DpOT_, .-_ZN16DoublyLinkedNodeI7ProcessEC2IJEEEPS1_S3_DpOT_
	.weak	_ZN16DoublyLinkedNodeI7ProcessEC1IJEEEPS1_S3_DpOT_
	.set	_ZN16DoublyLinkedNodeI7ProcessEC1IJEEEPS1_S3_DpOT_,_ZN16DoublyLinkedNodeI7ProcessEC2IJEEEPS1_S3_DpOT_
	.section	.text._ZN16DoublyLinkedListI7ProcessE10insertTailEP16DoublyLinkedNodeIS0_E,"axG",@progbits,_ZN16DoublyLinkedListI7ProcessE10insertTailEP16DoublyLinkedNodeIS0_E,comdat
	.align	2
	.weak	_ZN16DoublyLinkedListI7ProcessE10insertTailEP16DoublyLinkedNodeIS0_E
	.type	_ZN16DoublyLinkedListI7ProcessE10insertTailEP16DoublyLinkedNodeIS0_E, %function
_ZN16DoublyLinkedListI7ProcessE10insertTailEP16DoublyLinkedNodeIS0_E:
.LFB1965:
	.loc 12 114 0
	.cfi_startproc
	stp	x29, x30, [sp, -32]!
	.cfi_def_cfa_offset 32
	.cfi_offset 29, -32
	.cfi_offset 30, -24
	add	x29, sp, 0
	.cfi_def_cfa_register 29
	str	x0, [x29, 24]
	str	x1, [x29, 16]
	.loc 12 115 0
	ldr	x0, [x29, 24]
	ldr	x0, [x0, 8]
	cmp	x0, 0
	beq	.L72
	.loc 12 117 0
	ldr	x0, [x29, 24]
	ldr	x0, [x0, 8]
	ldr	x1, [x29, 16]
	bl	_ZN16DoublyLinkedNodeI7ProcessE11insertAfterEPS1_
	.loc 12 118 0
	ldr	x0, [x29, 24]
	ldr	x1, [x29, 16]
	str	x1, [x0, 8]
	.loc 12 124 0
	b	.L74
.L72:
	.loc 12 120 0
	ldr	x0, [x29, 24]
	ldr	x1, [x29, 16]
	str	x1, [x0]
	ldr	x0, [x29, 24]
	ldr	x1, [x0]
	ldr	x0, [x29, 24]
	str	x1, [x0, 8]
	.loc 12 121 0
	ldr	x0, [x29, 24]
	ldr	x0, [x0, 8]
	mov	x1, 0
	bl	_ZN16DoublyLinkedNodeI7ProcessE4nextEPS1_
	.loc 12 122 0
	ldr	x0, [x29, 24]
	ldr	x0, [x0]
	mov	x1, 0
	bl	_ZN16DoublyLinkedNodeI7ProcessE8previousEPS1_
.L74:
	.loc 12 124 0
	nop
	ldp	x29, x30, [sp], 32
	.cfi_restore 30
	.cfi_restore 29
	.cfi_def_cfa 31, 0
	ret
	.cfi_endproc
.LFE1965:
	.size	_ZN16DoublyLinkedListI7ProcessE10insertTailEP16DoublyLinkedNodeIS0_E, .-_ZN16DoublyLinkedListI7ProcessE10insertTailEP16DoublyLinkedNodeIS0_E
	.section	.text._ZN16DoublyLinkedNodeI7ProcessE11insertAfterEPS1_,"axG",@progbits,_ZN16DoublyLinkedNodeI7ProcessE11insertAfterEPS1_,comdat
	.align	2
	.weak	_ZN16DoublyLinkedNodeI7ProcessE11insertAfterEPS1_
	.type	_ZN16DoublyLinkedNodeI7ProcessE11insertAfterEPS1_, %function
_ZN16DoublyLinkedNodeI7ProcessE11insertAfterEPS1_:
.LFB1996:
	.loc 11 97 0
	.cfi_startproc
	stp	x29, x30, [sp, -48]!
	.cfi_def_cfa_offset 48
	.cfi_offset 29, -48
	.cfi_offset 30, -40
	add	x29, sp, 0
	.cfi_def_cfa_register 29
	str	x0, [x29, 24]
	str	x1, [x29, 16]
	.loc 11 98 0
	ldr	x1, [x29, 24]
	ldr	x0, [x29, 16]
	bl	_ZN16DoublyLinkedNodeI7ProcessE8previousEPS1_
	.loc 11 99 0
	ldr	x0, [x29, 24]
	bl	_ZN16DoublyLinkedNodeI7ProcessE4nextEv
	mov	x1, x0
	ldr	x0, [x29, 16]
	bl	_ZN16DoublyLinkedNodeI7ProcessE4nextEPS1_
	.loc 11 100 0
	ldr	x1, [x29, 16]
	ldr	x0, [x29, 24]
	bl	_ZN16DoublyLinkedNodeI7ProcessE4nextEPS1_
.LBB158:
	.loc 11 101 0
	ldr	x0, [x29, 16]
	bl	_ZN16DoublyLinkedNodeI7ProcessE4nextEv
	str	x0, [x29, 40]
	ldr	x0, [x29, 40]
	cmp	x0, 0
	beq	.L77
	.loc 11 102 0
	ldr	x1, [x29, 16]
	ldr	x0, [x29, 40]
	bl	_ZN16DoublyLinkedNodeI7ProcessE8previousEPS1_
.L77:
.LBE158:
	.loc 11 103 0
	nop
	ldp	x29, x30, [sp], 48
	.cfi_restore 30
	.cfi_restore 29
	.cfi_def_cfa 31, 0
	ret
	.cfi_endproc
.LFE1996:
	.size	_ZN16DoublyLinkedNodeI7ProcessE11insertAfterEPS1_, .-_ZN16DoublyLinkedNodeI7ProcessE11insertAfterEPS1_
	.section	.text._ZN16DoublyLinkedNodeI7ProcessE4nextEPS1_,"axG",@progbits,_ZN16DoublyLinkedNodeI7ProcessE4nextEPS1_,comdat
	.align	2
	.weak	_ZN16DoublyLinkedNodeI7ProcessE4nextEPS1_
	.type	_ZN16DoublyLinkedNodeI7ProcessE4nextEPS1_, %function
_ZN16DoublyLinkedNodeI7ProcessE4nextEPS1_:
.LFB1997:
	.loc 11 78 0
	.cfi_startproc
	sub	sp, sp, #16
	.cfi_def_cfa_offset 16
	str	x0, [sp, 8]
	str	x1, [sp]
	.loc 11 79 0
	ldr	x0, [sp, 8]
	ldr	x1, [sp]
	str	x1, [x0, 384]
	.loc 11 80 0
	nop
	add	sp, sp, 16
	.cfi_def_cfa_offset 0
	ret
	.cfi_endproc
.LFE1997:
	.size	_ZN16DoublyLinkedNodeI7ProcessE4nextEPS1_, .-_ZN16DoublyLinkedNodeI7ProcessE4nextEPS1_
	.section	.text._ZN16DoublyLinkedNodeI7ProcessE8previousEPS1_,"axG",@progbits,_ZN16DoublyLinkedNodeI7ProcessE8previousEPS1_,comdat
	.align	2
	.weak	_ZN16DoublyLinkedNodeI7ProcessE8previousEPS1_
	.type	_ZN16DoublyLinkedNodeI7ProcessE8previousEPS1_, %function
_ZN16DoublyLinkedNodeI7ProcessE8previousEPS1_:
.LFB1998:
	.loc 11 93 0
	.cfi_startproc
	sub	sp, sp, #16
	.cfi_def_cfa_offset 16
	str	x0, [sp, 8]
	str	x1, [sp]
	.loc 11 94 0
	ldr	x0, [sp, 8]
	ldr	x1, [sp]
	str	x1, [x0, 392]
	.loc 11 95 0
	nop
	add	sp, sp, 16
	.cfi_def_cfa_offset 0
	ret
	.cfi_endproc
.LFE1998:
	.size	_ZN16DoublyLinkedNodeI7ProcessE8previousEPS1_, .-_ZN16DoublyLinkedNodeI7ProcessE8previousEPS1_
	.section	.text._ZN16DoublyLinkedNodeI7ProcessE4nextEv,"axG",@progbits,_ZN16DoublyLinkedNodeI7ProcessE4nextEv,comdat
	.align	2
	.weak	_ZN16DoublyLinkedNodeI7ProcessE4nextEv
	.type	_ZN16DoublyLinkedNodeI7ProcessE4nextEv, %function
_ZN16DoublyLinkedNodeI7ProcessE4nextEv:
.LFB2031:
	.loc 11 68 0
	.cfi_startproc
	sub	sp, sp, #16
	.cfi_def_cfa_offset 16
	str	x0, [sp, 8]
	.loc 11 69 0
	ldr	x0, [sp, 8]
	ldr	x0, [x0, 384]
	.loc 11 70 0
	add	sp, sp, 16
	.cfi_def_cfa_offset 0
	ret
	.cfi_endproc
.LFE2031:
	.size	_ZN16DoublyLinkedNodeI7ProcessE4nextEv, .-_ZN16DoublyLinkedNodeI7ProcessE4nextEv
	.text
.Letext0:
	.file 13 "d:\\installed\\gcc-linaro-7.2.1-2017.11-i686-mingw32_aarch64-elf\\aarch64-elf\\include\\c++\\7.2.1\\bits\\basic_string.h"
	.file 14 "d:\\installed\\gcc-linaro-7.2.1-2017.11-i686-mingw32_aarch64-elf\\aarch64-elf\\include\\c++\\7.2.1\\cstddef"
	.file 15 "d:\\installed\\gcc-linaro-7.2.1-2017.11-i686-mingw32_aarch64-elf\\aarch64-elf\\include\\c++\\7.2.1\\cstdint"
	.file 16 "d:\\installed\\gcc-linaro-7.2.1-2017.11-i686-mingw32_aarch64-elf\\aarch64-elf\\include\\c++\\7.2.1\\type_traits"
	.file 17 "d:\\installed\\gcc-linaro-7.2.1-2017.11-i686-mingw32_aarch64-elf\\aarch64-elf\\include\\c++\\7.2.1\\bits\\stl_pair.h"
	.file 18 "d:\\installed\\gcc-linaro-7.2.1-2017.11-i686-mingw32_aarch64-elf\\aarch64-elf\\include\\c++\\7.2.1\\aarch64-elf\\bits\\c++config.h"
	.file 19 "d:\\installed\\gcc-linaro-7.2.1-2017.11-i686-mingw32_aarch64-elf\\aarch64-elf\\include\\c++\\7.2.1\\bits\\exception_ptr.h"
	.file 20 "d:\\installed\\gcc-linaro-7.2.1-2017.11-i686-mingw32_aarch64-elf\\aarch64-elf\\include\\c++\\7.2.1\\debug\\debug.h"
	.file 21 "d:\\installed\\gcc-linaro-7.2.1-2017.11-i686-mingw32_aarch64-elf\\aarch64-elf\\include\\c++\\7.2.1\\cwchar"
	.file 22 "d:\\installed\\gcc-linaro-7.2.1-2017.11-i686-mingw32_aarch64-elf\\aarch64-elf\\include\\c++\\7.2.1\\bits\\char_traits.h"
	.file 23 "d:\\installed\\gcc-linaro-7.2.1-2017.11-i686-mingw32_aarch64-elf\\aarch64-elf\\include\\c++\\7.2.1\\clocale"
	.file 24 "d:\\installed\\gcc-linaro-7.2.1-2017.11-i686-mingw32_aarch64-elf\\aarch64-elf\\include\\c++\\7.2.1\\cctype"
	.file 25 "d:\\installed\\gcc-linaro-7.2.1-2017.11-i686-mingw32_aarch64-elf\\aarch64-elf\\include\\c++\\7.2.1\\bits\\std_abs.h"
	.file 26 "d:\\installed\\gcc-linaro-7.2.1-2017.11-i686-mingw32_aarch64-elf\\aarch64-elf\\include\\c++\\7.2.1\\cstdlib"
	.file 27 "d:\\installed\\gcc-linaro-7.2.1-2017.11-i686-mingw32_aarch64-elf\\aarch64-elf\\include\\c++\\7.2.1\\cstdio"
	.file 28 "d:\\installed\\gcc-linaro-7.2.1-2017.11-i686-mingw32_aarch64-elf\\aarch64-elf\\include\\c++\\7.2.1\\bits\\alloc_traits.h"
	.file 29 "d:\\installed\\gcc-linaro-7.2.1-2017.11-i686-mingw32_aarch64-elf\\aarch64-elf\\include\\c++\\7.2.1\\bits\\allocator.h"
	.file 30 "d:\\installed\\gcc-linaro-7.2.1-2017.11-i686-mingw32_aarch64-elf\\aarch64-elf\\include\\c++\\7.2.1\\initializer_list"
	.file 31 "d:\\installed\\gcc-linaro-7.2.1-2017.11-i686-mingw32_aarch64-elf\\aarch64-elf\\include\\c++\\7.2.1\\bits\\uses_allocator.h"
	.file 32 "d:\\installed\\gcc-linaro-7.2.1-2017.11-i686-mingw32_aarch64-elf\\aarch64-elf\\include\\c++\\7.2.1\\tuple"
	.file 33 "d:\\installed\\gcc-linaro-7.2.1-2017.11-i686-mingw32_aarch64-elf\\aarch64-elf\\include\\c++\\7.2.1\\functional"
	.file 34 "d:\\installed\\gcc-linaro-7.2.1-2017.11-i686-mingw32_aarch64-elf\\aarch64-elf\\include\\c++\\7.2.1\\cstring"
	.file 35 "d:\\installed\\gcc-linaro-7.2.1-2017.11-i686-mingw32_aarch64-elf\\aarch64-elf\\include\\c++\\7.2.1\\bits\\stl_iterator_base_types.h"
	.file 36 "d:\\installed\\gcc-linaro-7.2.1-2017.11-i686-mingw32_aarch64-elf\\aarch64-elf\\include\\c++\\7.2.1\\bits\\predefined_ops.h"
	.file 37 "d:\\installed\\gcc-linaro-7.2.1-2017.11-i686-mingw32_aarch64-elf\\aarch64-elf\\include\\c++\\7.2.1\\ext\\new_allocator.h"
	.file 38 "d:\\installed\\gcc-linaro-7.2.1-2017.11-i686-mingw32_aarch64-elf\\aarch64-elf\\include\\c++\\7.2.1\\ext\\numeric_traits.h"
	.file 39 "d:\\installed\\gcc-linaro-7.2.1-2017.11-i686-mingw32_aarch64-elf\\aarch64-elf\\include\\c++\\7.2.1\\ext\\alloc_traits.h"
	.file 40 "d:\\installed\\gcc-linaro-7.2.1-2017.11-i686-mingw32_aarch64-elf\\aarch64-elf\\include\\c++\\7.2.1\\bits\\stl_iterator.h"
	.file 41 "d:\\installed\\gcc-linaro-7.2.1-2017.11-i686-mingw32_aarch64-elf\\lib\\gcc\\aarch64-elf\\7.2.1\\include\\stddef.h"
	.file 42 "d:\\installed\\gcc-linaro-7.2.1-2017.11-i686-mingw32_aarch64-elf\\lib\\gcc\\aarch64-elf\\7.2.1\\include\\stdint-gcc.h"
	.file 43 "D:\\Pool\\eclipse-workspace_aarch64\\newspace\\raspiOS\\include/def.h"
	.file 44 "D:\\Pool\\eclipse-workspace_aarch64\\newspace\\raspiOS\\include/io/Output.h"
	.file 45 "D:\\Pool\\eclipse-workspace_aarch64\\newspace\\raspiOS\\include/IntegerFormatter.h"
	.file 46 "D:\\Pool\\eclipse-workspace_aarch64\\newspace\\raspiOS\\include/memory/MemoryChunk.h"
	.file 47 "D:\\Pool\\eclipse-workspace_aarch64\\newspace\\raspiOS\\include/memory/MemoryManager.h"
	.file 48 "d:\\installed\\gcc-linaro-7.2.1-2017.11-i686-mingw32_aarch64-elf\\aarch64-elf\\libc\\usr\\include\\sys\\lock.h"
	.file 49 "d:\\installed\\gcc-linaro-7.2.1-2017.11-i686-mingw32_aarch64-elf\\aarch64-elf\\libc\\usr\\include\\sys\\_types.h"
	.file 50 "d:\\installed\\gcc-linaro-7.2.1-2017.11-i686-mingw32_aarch64-elf\\aarch64-elf\\libc\\usr\\include\\sys\\reent.h"
	.file 51 "d:\\installed\\gcc-linaro-7.2.1-2017.11-i686-mingw32_aarch64-elf\\lib\\gcc\\aarch64-elf\\7.2.1\\include\\stdarg.h"
	.file 52 "<built-in>"
	.file 53 "d:\\installed\\gcc-linaro-7.2.1-2017.11-i686-mingw32_aarch64-elf\\aarch64-elf\\libc\\usr\\include\\wchar.h"
	.file 54 "d:\\installed\\gcc-linaro-7.2.1-2017.11-i686-mingw32_aarch64-elf\\aarch64-elf\\libc\\usr\\include\\locale.h"
	.file 55 "d:\\installed\\gcc-linaro-7.2.1-2017.11-i686-mingw32_aarch64-elf\\aarch64-elf\\libc\\usr\\include\\ctype.h"
	.file 56 "d:\\installed\\gcc-linaro-7.2.1-2017.11-i686-mingw32_aarch64-elf\\aarch64-elf\\libc\\usr\\include\\stdlib.h"
	.file 57 "d:\\installed\\gcc-linaro-7.2.1-2017.11-i686-mingw32_aarch64-elf\\aarch64-elf\\libc\\usr\\include\\stdio.h"
	.file 58 "d:\\installed\\gcc-linaro-7.2.1-2017.11-i686-mingw32_aarch64-elf\\aarch64-elf\\libc\\usr\\include\\sys\\errno.h"
	.file 59 "d:\\installed\\gcc-linaro-7.2.1-2017.11-i686-mingw32_aarch64-elf\\aarch64-elf\\libc\\usr\\include\\string.h"
	.file 60 "D:\\Pool\\eclipse-workspace_aarch64\\newspace\\raspiOS\\include/schedule/PidManager.h"
	.file 61 "D:\\Pool\\eclipse-workspace_aarch64\\newspace\\raspiOS\\include/schedule/Process.h"
	.file 62 "D:\\Pool\\eclipse-workspace_aarch64\\newspace\\raspiOS\\include/data_structures/DoublyLinkedList.h"
	.file 63 "D:\\Pool\\eclipse-workspace_aarch64\\newspace\\raspiOS\\include/data_structures/DoublyLinkedNode.h"
	.file 64 "D:\\Pool\\eclipse-workspace_aarch64\\newspace\\raspiOS\\include/schedule/ProcessManager.h"
	.file 65 "D:\\Pool\\eclipse-workspace_aarch64\\newspace\\raspiOS\\include/programming/ReturnTypeSelector.h"