	.arch armv8.2-a+crc
	.file	"main_run_user_application.cpp"
	.text
.Ltext0:
	.cfi_sections	.debug_frame
	.section	.text._ZlsILi16EER6OutputS1_RK16IntegerFormatterIXT_EE,"axG",@progbits,_ZlsILi16EER6OutputS1_RK16IntegerFormatterIXT_EE,comdat
	.align	2
	.weak	_ZlsILi16EER6OutputS1_RK16IntegerFormatterIXT_EE
	.type	_ZlsILi16EER6OutputS1_RK16IntegerFormatterIXT_EE, %function
_ZlsILi16EER6OutputS1_RK16IntegerFormatterIXT_EE:
.LFB277:
	.file 1 "D:\\Pool\\eclipse-workspace_aarch64\\newspace\\raspiOS\\include/templates_implementation/IntegerFormatter.h"
	.loc 1 31 0
	.cfi_startproc
.LVL0:
	stp	x29, x30, [sp, -32]!
	.cfi_def_cfa_offset 32
	.cfi_offset 29, -32
	.cfi_offset 30, -24
	add	x29, sp, 0
	.cfi_def_cfa_register 29
	stp	x19, x20, [sp, 16]
	.cfi_offset 19, -16
	.cfi_offset 20, -8
	mov	x20, x0
.LVL1:
.LBB190:
.LBB191:
	.loc 1 26 0
	adrp	x19, koutBuf
	add	x19, x19, :lo12:koutBuf
	ldr	x0, [x1]
.LVL2:
	mov	x3, 65
	mov	x2, x19
	mov	w1, 16
.LVL3:
	bl	_Z4itosmjPcm
.LVL4:
.LBE191:
.LBE190:
	.loc 1 33 0
	mov	x1, x19
	mov	x0, x20
	bl	_ZN6OutputlsEPKc
.LVL5:
	.loc 1 35 0
	mov	x0, x20
	ldp	x19, x20, [sp, 16]
.LVL6:
	ldp	x29, x30, [sp], 32
	.cfi_restore 30
	.cfi_restore 29
	.cfi_restore 19
	.cfi_restore 20
	.cfi_def_cfa 31, 0
	ret
	.cfi_endproc
.LFE277:
	.size	_ZlsILi16EER6OutputS1_RK16IntegerFormatterIXT_EE, .-_ZlsILi16EER6OutputS1_RK16IntegerFormatterIXT_EE
	.text
	.align	2
	.global	_Z9enableMMUv
	.type	_Z9enableMMUv, %function
_Z9enableMMUv:
.LFB273:
	.file 2 "D:/Pool/eclipse-workspace_aarch64/newspace/raspiOS/src/arch/qemu_virt/main_run_user_application.cpp"
	.loc 2 242 0
	.cfi_startproc
	sub	sp, sp, #512
	.cfi_def_cfa_offset 512
	stp	x29, x30, [sp]
	.cfi_offset 29, -512
	.cfi_offset 30, -504
	add	x29, sp, 0
	.cfi_def_cfa_register 29
	str	x20, [sp, 24]
	.cfi_offset 20, -488
.LBB292:
.LBB293:
	.file 3 "D:\\Pool\\eclipse-workspace_aarch64\\newspace\\raspiOS\\include/arch/common_aarch64/system_common_registers.h"
	.loc 3 25 0
	// Start of user assembly
// 25 "D:\Pool\eclipse-workspace_aarch64\newspace\raspiOS\include/arch/common_aarch64/system_common_registers.h" 1
	mrs x0,CurrentEL
	
// 0 "" 2
.LVL7:
	// End of user assembly
.LBE293:
.LBE292:
	.loc 2 248 0
	and	w0, w0, 12
.LVL8:
	cmp	w0, 4
	beq	.L4
	.loc 2 250 0
	adrp	x1, .LC3
	add	x1, x1, :lo12:.LC3
	adrp	x0, kout
	add	x0, x0, :lo12:kout
	bl	_ZN6OutputlsEPKc
.LVL9:
	adrp	x1, .LC4
	add	x1, x1, :lo12:.LC4
	bl	_ZN6OutputlsEPKc
.LVL10:
	.loc 2 251 0
	mov	w20, 1
.L3:
	.loc 2 517 0
	mov	w0, w20
	ldr	x20, [sp, 24]
	ldp	x29, x30, [sp]
	add	sp, sp, 512
	.cfi_remember_state
	.cfi_restore 29
	.cfi_restore 30
	.cfi_restore 20
	.cfi_def_cfa 31, 0
	ret
.L4:
	.cfi_restore_state
	str	x19, [x29, 16]
	.cfi_offset 19, -496
	stp	x21, x22, [x29, 32]
	.cfi_offset 22, -472
	.cfi_offset 21, -480
	stp	x23, x24, [x29, 48]
	.cfi_offset 24, -456
	.cfi_offset 23, -464
	stp	x25, x26, [x29, 64]
	.cfi_offset 26, -440
	.cfi_offset 25, -448
	stp	x27, x28, [x29, 80]
	.cfi_offset 28, -424
	.cfi_offset 27, -432
.LVL11:
.LBB294:
.LBB295:
	.loc 3 589 0
	mov	w0, 1
	// Start of user assembly
// 589 "D:\Pool\eclipse-workspace_aarch64\newspace\raspiOS\include/arch/common_aarch64/system_common_registers.h" 1
	msr SPSel,x0 
	
// 0 "" 2
.LVL12:
	// End of user assembly
.LBE295:
.LBE294:
	.loc 2 263 0
	adrp	x0, ExceptionVectorEL1
	add	x0, x0, :lo12:ExceptionVectorEL1
	mov	x1, x0
	str	x0, [x29, 336]
.LVL13:
.LBB296:
.LBB297:
	.loc 3 75 0
	mov	x0, 0
.LVL14:
	bfi	x0, x1, 0, 64
	// Start of user assembly
// 75 "D:\Pool\eclipse-workspace_aarch64\newspace\raspiOS\include/arch/common_aarch64/system_common_registers.h" 1
	msr VBAR_EL1,x0 
	
// 0 "" 2
.LVL15:
	// End of user assembly
.LBE297:
.LBE296:
.LBB298:
.LBB299:
	.loc 3 850 0
	// Start of user assembly
// 850 "D:\Pool\eclipse-workspace_aarch64\newspace\raspiOS\include/arch/common_aarch64/system_common_registers.h" 1
	mrs x19,ID_AA64MMFR0_EL1
	
// 0 "" 2
.LVL16:
	// End of user assembly
	ubfx	x20, x19, 0, 4
	and	w23, w20, 255
	ubfx	x28, x19, 4, 4
	ubfx	x27, x19, 8, 4
	ubfx	x26, x19, 12, 4
	ubfx	x25, x19, 16, 4
	ubfx	x22, x19, 20, 4
	ubfx	x0, x19, 24, 4
	str	x0, [x29, 344]
	lsr	w21, w19, 28
	and	w24, w21, 255
	lsr	x19, x19, 32
.LVL17:
.LBE299:
.LBE298:
.LBB300:
.LBB301:
	.loc 3 834 0
	adrp	x1, .LC5
.LVL18:
	add	x1, x1, :lo12:.LC5
	adrp	x0, kout
	add	x0, x0, :lo12:kout
	bl	_ZN6OutputlsEPKc
.LVL19:
	.loc 3 835 0
	adrp	x1, .LC6
	add	x1, x1, :lo12:.LC6
	bl	_ZN6OutputlsEPKc
.LVL20:
	and	x1, x20, 15
	bl	_ZN6OutputlsEm
.LVL21:
	adrp	x20, .LC7
.LVL22:
	add	x20, x20, :lo12:.LC7
	mov	x1, x20
	bl	_ZN6OutputlsEPKc
.LVL23:
	.loc 3 836 0
	adrp	x1, .LC8
	add	x1, x1, :lo12:.LC8
	bl	_ZN6OutputlsEPKc
.LVL24:
	and	x1, x28, 15
	bl	_ZN6OutputlsEm
.LVL25:
	mov	x1, x20
	bl	_ZN6OutputlsEPKc
.LVL26:
	.loc 3 837 0
	adrp	x1, .LC9
	add	x1, x1, :lo12:.LC9
	bl	_ZN6OutputlsEPKc
.LVL27:
	and	x1, x27, 15
	bl	_ZN6OutputlsEm
.LVL28:
	mov	x1, x20
	bl	_ZN6OutputlsEPKc
.LVL29:
	.loc 3 838 0
	adrp	x1, .LC10
	add	x1, x1, :lo12:.LC10
	bl	_ZN6OutputlsEPKc
.LVL30:
	and	x1, x26, 15
	bl	_ZN6OutputlsEm
.LVL31:
	mov	x1, x20
	bl	_ZN6OutputlsEPKc
.LVL32:
	.loc 3 839 0
	adrp	x1, .LC11
	add	x1, x1, :lo12:.LC11
	bl	_ZN6OutputlsEPKc
.LVL33:
	and	x1, x25, 15
	bl	_ZN6OutputlsEm
.LVL34:
	mov	x1, x20
	bl	_ZN6OutputlsEPKc
.LVL35:
	.loc 3 840 0
	adrp	x1, .LC12
	add	x1, x1, :lo12:.LC12
	bl	_ZN6OutputlsEPKc
.LVL36:
	and	x22, x22, 255
.LVL37:
	add	x1, x29, 512
	str	x22, [x1, -48]!
.LVL38:
	bl	_ZlsILi16EER6OutputS1_RK16IntegerFormatterIXT_EE
.LVL39:
	mov	x1, x20
	bl	_ZN6OutputlsEPKc
.LVL40:
	.loc 3 841 0
	adrp	x1, .LC13
	add	x1, x1, :lo12:.LC13
	bl	_ZN6OutputlsEPKc
.LVL41:
	ldrb	w2, [x29, 344]
.LVL42:
	add	x1, x29, 512
	str	x2, [x1, -56]!
.LVL43:
	bl	_ZlsILi16EER6OutputS1_RK16IntegerFormatterIXT_EE
.LVL44:
	mov	x1, x20
	bl	_ZN6OutputlsEPKc
.LVL45:
	.loc 3 842 0
	adrp	x1, .LC14
	add	x1, x1, :lo12:.LC14
	bl	_ZN6OutputlsEPKc
.LVL46:
	and	x21, x21, 255
.LVL47:
	add	x1, x29, 512
	str	x21, [x1, -64]!
.LVL48:
	bl	_ZlsILi16EER6OutputS1_RK16IntegerFormatterIXT_EE
.LVL49:
	mov	x1, x20
	bl	_ZN6OutputlsEPKc
.LVL50:
	.loc 3 843 0
	adrp	x1, .LC15
	add	x1, x1, :lo12:.LC15
	bl	_ZN6OutputlsEPKc
.LVL51:
	mov	x1, x19
	bl	_ZN6OutputlsEm
.LVL52:
	.loc 3 844 0
	adrp	x1, .LC16
	add	x1, x1, :lo12:.LC16
	bl	_ZN6OutputlsEPKc
.LVL53:
.LBE301:
.LBE300:
	.loc 2 269 0
	cbnz	w24, .L16
	.loc 2 275 0
	adrp	x0, .LANCHOR0
	add	x0, x0, :lo12:.LANCHOR0
	ldp	x2, x3, [x0]
	stp	x2, x3, [x29, 384]
	ldr	x1, [x0, 16]
	str	x1, [x29, 400]
	ldr	w1, [x0, 24]
	str	w1, [x29, 408]
	.loc 2 278 0
	add	x1, x0, 32
	ldp	x2, x3, [x0, 32]
	stp	x2, x3, [x29, 352]
	ldr	x0, [x0, 48]
	str	x0, [x29, 368]
	ldr	w0, [x1, 24]
	str	w0, [x29, 376]
	.loc 2 280 0
	cmp	w23, 6
	bhi	.L17
	.loc 2 285 0
	mov	w3, w23
.LVL54:
	.loc 2 286 0
	add	x0, x29, 384
	ldr	w0, [x0, w23, sxtw 2]
	cmp	w0, 52
	beq	.L18
.LVL55:
.L8:
	.loc 2 292 0
	add	x0, x29, 352
	ldr	w20, [x0, w3, sxtw 2]
	cbnz	w20, .L19
.LBB302:
.LBB303:
	.loc 3 716 0
	// Start of user assembly
// 716 "D:\Pool\eclipse-workspace_aarch64\newspace\raspiOS\include/arch/common_aarch64/system_common_registers.h" 1
	mrs x1,TCR_EL1
	
// 0 "" 2
.LVL56:
	// End of user assembly
	ubfx	w4, w1, 6, 1
.LVL57:
.LBE303:
.LBE302:
	.loc 2 305 0
	add	x0, x29, 384
	ldr	w2, [x0, w3, sxtw 2]
	neg	w2, w2
	and	w2, w2, 63
.LVL58:
.LBB304:
.LBB305:
	.loc 3 718 0
	mov	x0, 0
	bfi	x0, x2, 0, 6
	bfi	x0, x4, 6, 1
	and	x0, x0, -129
	mov	x4, 1
	bfi	x0, x4, 8, 2
	bfi	x0, x4, 10, 2
	mov	x5, 2
	bfi	x0, x5, 12, 4
	bfi	x0, x2, 16, 6
	and	x0, x0, -12582913
	bfi	x0, x4, 24, 2
	bfi	x0, x4, 26, 2
	bfi	x0, x5, 28, 2
	bfi	x0, x5, 30, 2
	bfi	x0, x3, 32, 3
	ubfx	x2, x1, 35, 1
.LVL59:
	bfi	x0, x2, 35, 1
	ubfx	x2, x1, 36, 1
	bfi	x0, x2, 36, 3
	ubfx	x2, x1, 39, 1
	bfi	x0, x2, 39, 1
	ubfx	x2, x1, 40, 1
	bfi	x0, x2, 40, 1
	ubfx	x2, x1, 41, 1
	bfi	x0, x2, 41, 1
	ubfx	x2, x1, 42, 1
	bfi	x0, x2, 42, 1
	ubfx	x2, x1, 43, 1
	bfi	x0, x2, 43, 1
	ubfx	x2, x1, 44, 1
	bfi	x0, x2, 44, 1
	ubfx	x2, x1, 45, 1
	bfi	x0, x2, 45, 1
	ubfx	x2, x1, 46, 1
	bfi	x0, x2, 46, 1
	ubfx	x2, x1, 47, 1
	bfi	x0, x2, 47, 1
	ubfx	x2, x1, 48, 1
	bfi	x0, x2, 48, 1
	ubfx	x2, x1, 49, 1
	bfi	x0, x2, 49, 1
	ubfx	x2, x1, 50, 1
	bfi	x0, x2, 50, 1
	ubfx	x2, x1, 51, 2
	bfi	x0, x2, 51, 2
	ubfx	x2, x1, 53, 1
	bfi	x0, x2, 53, 1
	ubfx	x2, x1, 54, 1
	bfi	x0, x2, 54, 1
	lsr	x1, x1, 55
.LVL60:
	bfi	x0, x1, 55, 9
	// Start of user assembly
// 718 "D:\Pool\eclipse-workspace_aarch64\newspace\raspiOS\include/arch/common_aarch64/system_common_registers.h" 1
	msr TCR_EL1,x0 
	
// 0 "" 2
.LVL61:
	// End of user assembly
.LBE305:
.LBE304:
.LBB306:
.LBB307:
	.loc 3 1069 0
	mov	x0, 65280
	mov	x1, 68
	bfi	x0, x1, 24, 40
	// Start of user assembly
// 1069 "D:\Pool\eclipse-workspace_aarch64\newspace\raspiOS\include/arch/common_aarch64/system_common_registers.h" 1
	msr MAIR_EL1,x0 
	
// 0 "" 2
.LVL62:
	// End of user assembly
.LBE307:
.LBE306:
	.loc 2 340 0
	adrp	x0, mainEnd
	add	x0, x0, :lo12:mainEnd
	str	x0, [x29, 344]
.LVL63:
	cmp	xzr, x0, lsr 30
	bne	.L20
.LVL64:
	.loc 2 353 0
	adrp	x1, L0Table
	add	x22, x1, :lo12:L0Table
.LVL65:
	ldrb	w0, [x1, #:lo12:L0Table]
	.loc 2 354 0
	orr	w0, w0, 3
	strb	w0, [x1, #:lo12:L0Table]
	.loc 2 355 0
	ldrb	w0, [x22, 6]
	and	w0, w0, -16
	strb	w0, [x22, 6]
	.loc 2 356 0
	ldrb	w0, [x22, 7]
	and	w0, w0, 127
	strb	w0, [x22, 7]
	.loc 2 357 0
	adrp	x2, L1Table
	add	x19, x2, :lo12:L1Table
.LVL66:
	lsr	x3, x19, 12
.LVL67:
	ldr	x0, [x22]
	bfi	x0, x3, 12, 36
	str	x0, [x22]
	.loc 2 358 0
	lsr	x3, x0, 56
	.loc 2 361 0
	and	w4, w0, 3
	strb	w4, [x1, #:lo12:L0Table]
	ubfx	x1, x0, 8, 8
	and	w1, w1, -16
	strb	w1, [x22, 1]
	.loc 2 362 0
	ubfx	x0, x0, 48, 4
	strb	w0, [x22, 6]
	and	w0, w3, -128
	strb	w0, [x22, 7]
.LVL68:
	.loc 2 379 0
	ldrb	w0, [x2, #:lo12:L1Table]
	and	w0, w0, -3
	.loc 2 381 0
	strb	wzr, [x19, 4]
	strb	wzr, [x19, 5]
	.loc 2 382 0
	ldrb	w1, [x19, 1]
	orr	w1, w1, 4
	.loc 2 383 0
	orr	w0, w0, 32
	mov	w3, 1
	bfi	w0, w3, 2, 3
	.loc 2 384 0
	orr	w0, w0, w3
	.loc 2 391 0
	and	w0, w0, 63
	strb	w0, [x2, #:lo12:L1Table]
	.loc 2 393 0
	and	w0, w1, -9
	mov	w1, 2
	bfi	w0, w1, 0, 2
	.loc 2 394 0
	ldrb	w1, [x19, 7]
	.loc 2 395 0
	and	w0, w0, 15
	strb	w0, [x19, 1]
	strb	wzr, [x19, 2]
	strb	wzr, [x19, 3]
	.loc 2 397 0
	mov	w0, 16
	strb	w0, [x19, 6]
	and	w0, w1, 120
	strb	w0, [x19, 7]
	.loc 2 402 0
	ldr	x0, [x19]
	mov	x1, 1
	bfi	x0, x1, 30, 18
	str	x0, [x19, 8]
.LVL69:
	.loc 2 415 0
	ubfx	x1, x22, 1, 47
.LVL70:
.LBB308:
.LBB309:
	.loc 3 937 0
	mov	x0, 0
	bfi	x0, x1, 1, 63
	// Start of user assembly
// 937 "D:\Pool\eclipse-workspace_aarch64\newspace\raspiOS\include/arch/common_aarch64/system_common_registers.h" 1
	msr TTBR0_EL1,x0 
	
// 0 "" 2
.LVL71:
	// End of user assembly
.LBE309:
.LBE308:
.LBB310:
.LBB311:
	.loc 3 960 0
	mov	x0, 0
	bfi	x0, x1, 1, 63
	// Start of user assembly
// 960 "D:\Pool\eclipse-workspace_aarch64\newspace\raspiOS\include/arch/common_aarch64/system_common_registers.h" 1
	msr TTBR1_EL1,x0 
	
// 0 "" 2
.LVL72:
	// End of user assembly
.LBE311:
.LBE310:
.LBB312:
.LBB313:
	.file 4 "D:\\Pool\\eclipse-workspace_aarch64\\newspace\\raspiOS\\include/asm_instructions.h"
	.loc 4 50 0
	// Start of user assembly
// 50 "D:\Pool\eclipse-workspace_aarch64\newspace\raspiOS\include/asm_instructions.h" 1
	isb 
	
// 0 "" 2
	// End of user assembly
.LBE313:
.LBE312:
	.loc 2 433 0
	adrp	x21, kout
.LVL73:
	add	x21, x21, :lo12:kout
	adrp	x1, .LC23
.LVL74:
	add	x1, x1, :lo12:.LC23
	mov	x0, x21
	bl	_ZN6OutputlsEPKc
.LVL75:
.LBB314:
.LBB315:
.LBB316:
	.loc 1 17 0
	add	x1, x29, 512
	str	x22, [x1, -96]!
.LVL76:
.LBE316:
.LBE315:
.LBE314:
	.loc 2 433 0
	bl	_ZlsILi16EER6OutputS1_RK16IntegerFormatterIXT_EE
.LVL77:
	adrp	x22, .LC16
.LVL78:
	add	x22, x22, :lo12:.LC16
	mov	x1, x22
	bl	_ZN6OutputlsEPKc
.LVL79:
	.loc 2 434 0
	adrp	x1, .LC24
	add	x1, x1, :lo12:.LC24
	mov	x0, x21
	bl	_ZN6OutputlsEPKc
.LVL80:
.LBB317:
.LBB318:
.LBB319:
	.loc 1 17 0
	add	x1, x29, 512
	str	x19, [x1, -88]!
.LVL81:
.LBE319:
.LBE318:
.LBE317:
	.loc 2 434 0
	bl	_ZlsILi16EER6OutputS1_RK16IntegerFormatterIXT_EE
.LVL82:
	mov	x1, x22
	bl	_ZN6OutputlsEPKc
.LVL83:
.LBB320:
.LBB321:
	.loc 3 936 0
	// Start of user assembly
// 936 "D:\Pool\eclipse-workspace_aarch64\newspace\raspiOS\include/arch/common_aarch64/system_common_registers.h" 1
	mrs x23,TTBR0_EL1
	
// 0 "" 2
.LVL84:
	// End of user assembly
	ubfx	x19, x23, 0, 1
.LVL85:
	ubfx	x24, x23, 1, 47
.LVL86:
	lsr	x23, x23, 48
.LVL87:
.LBE321:
.LBE320:
.LBB322:
.LBB323:
	.loc 3 925 0
	adrp	x1, .LC25
	add	x1, x1, :lo12:.LC25
	mov	x0, x21
	bl	_ZN6OutputlsEPKc
.LVL88:
	.loc 3 926 0
	adrp	x26, .LC26
.LVL89:
	add	x26, x26, :lo12:.LC26
	mov	x1, x26
	bl	_ZN6OutputlsEPKc
.LVL90:
	and	x1, x19, 1
	bl	_ZN6OutputlsEm
.LVL91:
	adrp	x19, .LC7
.LVL92:
	add	x19, x19, :lo12:.LC7
	mov	x1, x19
	bl	_ZN6OutputlsEPKc
.LVL93:
	.loc 3 927 0
	adrp	x25, .LC27
.LVL94:
	add	x25, x25, :lo12:.LC27
	mov	x1, x25
	bl	_ZN6OutputlsEPKc
.LVL95:
.LBB324:
.LBB325:
.LBB326:
	.loc 1 17 0
	add	x1, x29, 512
	str	x24, [x1, -8]!
.LVL96:
.LBE326:
.LBE325:
.LBE324:
	.loc 3 927 0
	bl	_ZlsILi16EER6OutputS1_RK16IntegerFormatterIXT_EE
.LVL97:
	mov	x1, x19
	bl	_ZN6OutputlsEPKc
.LVL98:
	.loc 3 928 0
	adrp	x24, .LC28
.LVL99:
	add	x24, x24, :lo12:.LC28
	mov	x1, x24
	bl	_ZN6OutputlsEPKc
.LVL100:
	and	x1, x23, 65535
	bl	_ZN6OutputlsEm
.LVL101:
	.loc 3 929 0
	mov	x1, x22
	bl	_ZN6OutputlsEPKc
.LVL102:
.LBE323:
.LBE322:
.LBB327:
.LBB328:
	.loc 3 959 0
	// Start of user assembly
// 959 "D:\Pool\eclipse-workspace_aarch64\newspace\raspiOS\include/arch/common_aarch64/system_common_registers.h" 1
	mrs x23,TTBR1_EL1
	
// 0 "" 2
.LVL103:
	// End of user assembly
	ubfx	x28, x23, 0, 1
.LVL104:
	ubfx	x27, x23, 1, 47
.LVL105:
	lsr	x23, x23, 48
.LVL106:
.LBE328:
.LBE327:
.LBB329:
.LBB330:
	.loc 3 948 0
	adrp	x1, .LC29
	add	x1, x1, :lo12:.LC29
	mov	x0, x21
	bl	_ZN6OutputlsEPKc
.LVL107:
	.loc 3 949 0
	mov	x1, x26
	bl	_ZN6OutputlsEPKc
.LVL108:
	and	x1, x28, 1
	bl	_ZN6OutputlsEm
.LVL109:
	mov	x1, x19
	bl	_ZN6OutputlsEPKc
.LVL110:
	.loc 3 950 0
	mov	x1, x25
	bl	_ZN6OutputlsEPKc
.LVL111:
.LBB331:
.LBB332:
.LBB333:
	.loc 1 17 0
	add	x1, x29, 512
	str	x27, [x1, -16]!
.LVL112:
.LBE333:
.LBE332:
.LBE331:
	.loc 3 950 0
	bl	_ZlsILi16EER6OutputS1_RK16IntegerFormatterIXT_EE
.LVL113:
	mov	x1, x19
	bl	_ZN6OutputlsEPKc
.LVL114:
	.loc 3 951 0
	mov	x1, x24
	bl	_ZN6OutputlsEPKc
.LVL115:
	and	x1, x23, 65535
	bl	_ZN6OutputlsEm
.LVL116:
	.loc 3 952 0
	mov	x1, x22
	bl	_ZN6OutputlsEPKc
.LVL117:
.LBE330:
.LBE329:
.LBB334:
.LBB335:
	.loc 3 717 0
	// Start of user assembly
// 717 "D:\Pool\eclipse-workspace_aarch64\newspace\raspiOS\include/arch/common_aarch64/system_common_registers.h" 1
	mrs x0,TCR_EL1
	
// 0 "" 2
.LVL118:
	// End of user assembly
	ubfx	x27, x0, 0, 6
.LVL119:
	ubfx	x26, x0, 6, 1
.LVL120:
	ubfx	x25, x0, 7, 1
.LVL121:
	ubfx	x24, x0, 8, 2
.LVL122:
	ubfx	x23, x0, 10, 2
.LVL123:
	ubfx	x22, x0, 12, 2
.LVL124:
	ubfx	x1, x0, 14, 2
	str	x1, [x29, 312]
.LVL125:
	ubfx	x28, x0, 16, 6
.LVL126:
	and	w1, w28, 255
	str	w1, [x29, 332]
.LVL127:
	ubfx	x1, x0, 22, 1
	str	x1, [x29, 304]
.LVL128:
	ubfx	x1, x0, 23, 1
	str	x1, [x29, 296]
.LVL129:
	ubfx	x1, x0, 24, 2
	str	x1, [x29, 288]
.LVL130:
	ubfx	x1, x0, 26, 2
	str	x1, [x29, 280]
.LVL131:
	ubfx	x1, x0, 28, 2
	str	x1, [x29, 272]
.LVL132:
	lsr	w1, w0, 30
	str	x1, [x29, 264]
.LVL133:
	ubfx	x1, x0, 32, 3
	str	x1, [x29, 256]
.LVL134:
	ubfx	x1, x0, 35, 1
	str	x1, [x29, 248]
.LVL135:
	ubfx	x1, x0, 36, 1
	str	x1, [x29, 240]
.LVL136:
	ubfx	x1, x0, 37, 1
	str	x1, [x29, 232]
.LVL137:
	ubfx	x1, x0, 38, 1
	str	x1, [x29, 224]
.LVL138:
	ubfx	x1, x0, 39, 1
	str	x1, [x29, 216]
.LVL139:
	ubfx	x1, x0, 40, 1
	str	x1, [x29, 208]
.LVL140:
	ubfx	x1, x0, 41, 1
	str	x1, [x29, 200]
.LVL141:
	ubfx	x1, x0, 42, 1
	str	x1, [x29, 192]
.LVL142:
	ubfx	x1, x0, 43, 1
	str	x1, [x29, 184]
.LVL143:
	ubfx	x1, x0, 44, 1
	str	x1, [x29, 176]
.LVL144:
	ubfx	x1, x0, 45, 1
	str	x1, [x29, 168]
.LVL145:
	ubfx	x1, x0, 46, 1
	str	x1, [x29, 160]
.LVL146:
	ubfx	x1, x0, 47, 1
	str	x1, [x29, 152]
.LVL147:
	ubfx	x1, x0, 48, 1
	str	x1, [x29, 144]
.LVL148:
	ubfx	x1, x0, 49, 1
	str	x1, [x29, 136]
.LVL149:
	ubfx	x1, x0, 50, 1
	str	x1, [x29, 128]
.LVL150:
	ubfx	x1, x0, 51, 2
	str	x1, [x29, 120]
.LVL151:
	ubfx	x1, x0, 53, 1
	str	x1, [x29, 112]
.LVL152:
	ubfx	x1, x0, 54, 1
	str	x1, [x29, 104]
.LVL153:
	lsr	x0, x0, 55
.LVL154:
	str	x0, [x29, 320]
.LVL155:
.LBE335:
.LBE334:
.LBB336:
.LBB337:
	.loc 3 674 0
	adrp	x1, .LC30
	add	x1, x1, :lo12:.LC30
	mov	x0, x21
	bl	_ZN6OutputlsEPKc
.LVL156:
	.loc 3 675 0
	adrp	x1, .LC31
	add	x1, x1, :lo12:.LC31
	bl	_ZN6OutputlsEPKc
.LVL157:
	and	x1, x27, 63
	bl	_ZN6OutputlsEm
.LVL158:
	mov	x1, x19
	bl	_ZN6OutputlsEPKc
.LVL159:
	.loc 3 676 0
	adrp	x1, .LC32
	add	x1, x1, :lo12:.LC32
	bl	_ZN6OutputlsEPKc
.LVL160:
	and	x1, x26, 1
	bl	_ZN6OutputlsEm
.LVL161:
	mov	x1, x19
	bl	_ZN6OutputlsEPKc
.LVL162:
	.loc 3 677 0
	adrp	x1, .LC33
	add	x1, x1, :lo12:.LC33
	bl	_ZN6OutputlsEPKc
.LVL163:
	and	x1, x25, 1
	bl	_ZN6OutputlsEm
.LVL164:
	mov	x1, x19
	bl	_ZN6OutputlsEPKc
.LVL165:
	.loc 3 678 0
	adrp	x1, .LC34
	add	x1, x1, :lo12:.LC34
	bl	_ZN6OutputlsEPKc
.LVL166:
	and	x1, x24, 3
	bl	_ZN6OutputlsEm
.LVL167:
	mov	x1, x19
	bl	_ZN6OutputlsEPKc
.LVL168:
	.loc 3 679 0
	adrp	x1, .LC35
	add	x1, x1, :lo12:.LC35
	bl	_ZN6OutputlsEPKc
.LVL169:
	and	x1, x23, 3
	bl	_ZN6OutputlsEm
.LVL170:
	mov	x1, x19
	bl	_ZN6OutputlsEPKc
.LVL171:
	.loc 3 680 0
	adrp	x1, .LC36
	add	x1, x1, :lo12:.LC36
	bl	_ZN6OutputlsEPKc
.LVL172:
	and	x1, x22, 3
	bl	_ZN6OutputlsEm
.LVL173:
	mov	x1, x19
	bl	_ZN6OutputlsEPKc
.LVL174:
	.loc 3 681 0
	adrp	x1, .LC37
	add	x1, x1, :lo12:.LC37
	bl	_ZN6OutputlsEPKc
.LVL175:
	ldr	x1, [x29, 312]
	and	x1, x1, 3
	bl	_ZN6OutputlsEm
.LVL176:
	mov	x1, x19
	bl	_ZN6OutputlsEPKc
.LVL177:
	.loc 3 682 0
	adrp	x1, .LC38
	add	x1, x1, :lo12:.LC38
	bl	_ZN6OutputlsEPKc
.LVL178:
	and	x1, x28, 63
	bl	_ZN6OutputlsEm
.LVL179:
	mov	x1, x19
	bl	_ZN6OutputlsEPKc
.LVL180:
	.loc 3 683 0
	adrp	x1, .LC39
	add	x1, x1, :lo12:.LC39
	bl	_ZN6OutputlsEPKc
.LVL181:
	ldr	x1, [x29, 304]
	and	x1, x1, 1
	bl	_ZN6OutputlsEm
.LVL182:
	mov	x1, x19
	bl	_ZN6OutputlsEPKc
.LVL183:
	.loc 3 684 0
	adrp	x1, .LC40
	add	x1, x1, :lo12:.LC40
	bl	_ZN6OutputlsEPKc
.LVL184:
	ldr	x1, [x29, 296]
	and	x1, x1, 1
	bl	_ZN6OutputlsEm
.LVL185:
	mov	x1, x19
	bl	_ZN6OutputlsEPKc
.LVL186:
	.loc 3 685 0
	adrp	x1, .LC41
	add	x1, x1, :lo12:.LC41
	bl	_ZN6OutputlsEPKc
.LVL187:
	ldr	x1, [x29, 288]
	and	x1, x1, 3
	bl	_ZN6OutputlsEm
.LVL188:
	mov	x1, x19
	bl	_ZN6OutputlsEPKc
.LVL189:
	.loc 3 686 0
	adrp	x1, .LC42
	add	x1, x1, :lo12:.LC42
	bl	_ZN6OutputlsEPKc
.LVL190:
	ldr	x1, [x29, 280]
	and	x1, x1, 3
	bl	_ZN6OutputlsEm
.LVL191:
	mov	x1, x19
	bl	_ZN6OutputlsEPKc
.LVL192:
	.loc 3 687 0
	adrp	x1, .LC43
	add	x1, x1, :lo12:.LC43
	bl	_ZN6OutputlsEPKc
.LVL193:
	ldr	x1, [x29, 272]
	and	x1, x1, 3
	bl	_ZN6OutputlsEm
.LVL194:
	mov	x1, x19
	bl	_ZN6OutputlsEPKc
.LVL195:
	.loc 3 688 0
	adrp	x1, .LC44
	add	x1, x1, :lo12:.LC44
	bl	_ZN6OutputlsEPKc
.LVL196:
	ldr	x1, [x29, 264]
	and	x1, x1, 3
	bl	_ZN6OutputlsEm
.LVL197:
	mov	x1, x19
	bl	_ZN6OutputlsEPKc
.LVL198:
	.loc 3 689 0
	adrp	x1, .LC45
	add	x1, x1, :lo12:.LC45
	bl	_ZN6OutputlsEPKc
.LVL199:
	ldr	x1, [x29, 256]
	and	x1, x1, 7
	bl	_ZN6OutputlsEm
.LVL200:
	mov	x1, x19
	bl	_ZN6OutputlsEPKc
.LVL201:
	.loc 3 690 0
	adrp	x1, .LC46
	add	x1, x1, :lo12:.LC46
	bl	_ZN6OutputlsEPKc
.LVL202:
	ldr	x1, [x29, 248]
	and	x1, x1, 1
	bl	_ZN6OutputlsEm
.LVL203:
	mov	x1, x19
	bl	_ZN6OutputlsEPKc
.LVL204:
	.loc 3 691 0
	adrp	x1, .LC47
	add	x1, x1, :lo12:.LC47
	bl	_ZN6OutputlsEPKc
.LVL205:
	ldr	x1, [x29, 240]
	and	x1, x1, 1
	bl	_ZN6OutputlsEm
.LVL206:
	mov	x1, x19
	bl	_ZN6OutputlsEPKc
.LVL207:
	.loc 3 692 0
	adrp	x1, .LC48
	add	x1, x1, :lo12:.LC48
	bl	_ZN6OutputlsEPKc
.LVL208:
	ldr	x1, [x29, 232]
	and	x1, x1, 1
	bl	_ZN6OutputlsEm
.LVL209:
	mov	x1, x19
	bl	_ZN6OutputlsEPKc
.LVL210:
	.loc 3 693 0
	adrp	x1, .LC49
	add	x1, x1, :lo12:.LC49
	bl	_ZN6OutputlsEPKc
.LVL211:
	ldr	x1, [x29, 224]
	and	x1, x1, 1
	bl	_ZN6OutputlsEm
.LVL212:
	mov	x1, x19
	bl	_ZN6OutputlsEPKc
.LVL213:
	.loc 3 694 0
	adrp	x1, .LC50
	add	x1, x1, :lo12:.LC50
	bl	_ZN6OutputlsEPKc
.LVL214:
	ldr	x1, [x29, 216]
	and	x1, x1, 1
	bl	_ZN6OutputlsEm
.LVL215:
	mov	x1, x19
	bl	_ZN6OutputlsEPKc
.LVL216:
	.loc 3 695 0
	adrp	x1, .LC51
	add	x1, x1, :lo12:.LC51
	bl	_ZN6OutputlsEPKc
.LVL217:
	ldr	x1, [x29, 208]
	and	x1, x1, 1
	bl	_ZN6OutputlsEm
.LVL218:
	mov	x1, x19
	bl	_ZN6OutputlsEPKc
.LVL219:
	.loc 3 696 0
	adrp	x1, .LC52
	add	x1, x1, :lo12:.LC52
	bl	_ZN6OutputlsEPKc
.LVL220:
	ldr	x1, [x29, 200]
	and	x1, x1, 1
	bl	_ZN6OutputlsEm
.LVL221:
	mov	x1, x19
	bl	_ZN6OutputlsEPKc
.LVL222:
	.loc 3 697 0
	adrp	x1, .LC53
	add	x1, x1, :lo12:.LC53
	bl	_ZN6OutputlsEPKc
.LVL223:
	ldr	x1, [x29, 192]
	and	x1, x1, 1
	bl	_ZN6OutputlsEm
.LVL224:
	mov	x1, x19
	bl	_ZN6OutputlsEPKc
.LVL225:
	.loc 3 698 0
	adrp	x1, .LC54
	add	x1, x1, :lo12:.LC54
	bl	_ZN6OutputlsEPKc
.LVL226:
	ldr	x1, [x29, 184]
	and	x1, x1, 1
	bl	_ZN6OutputlsEm
.LVL227:
	mov	x1, x19
	bl	_ZN6OutputlsEPKc
.LVL228:
	.loc 3 699 0
	adrp	x1, .LC55
	add	x1, x1, :lo12:.LC55
	bl	_ZN6OutputlsEPKc
.LVL229:
	ldr	x1, [x29, 176]
	and	x1, x1, 1
	bl	_ZN6OutputlsEm
.LVL230:
	mov	x1, x19
	bl	_ZN6OutputlsEPKc
.LVL231:
	.loc 3 700 0
	adrp	x1, .LC56
	add	x1, x1, :lo12:.LC56
	bl	_ZN6OutputlsEPKc
.LVL232:
	ldr	x1, [x29, 168]
	and	x1, x1, 1
	bl	_ZN6OutputlsEm
.LVL233:
	mov	x1, x19
	bl	_ZN6OutputlsEPKc
.LVL234:
	.loc 3 701 0
	adrp	x1, .LC57
	add	x1, x1, :lo12:.LC57
	bl	_ZN6OutputlsEPKc
.LVL235:
	ldr	x1, [x29, 160]
	and	x1, x1, 1
	bl	_ZN6OutputlsEm
.LVL236:
	mov	x1, x19
	bl	_ZN6OutputlsEPKc
.LVL237:
	.loc 3 702 0
	adrp	x1, .LC58
	add	x1, x1, :lo12:.LC58
	bl	_ZN6OutputlsEPKc
.LVL238:
	ldr	x1, [x29, 152]
	and	x1, x1, 1
	bl	_ZN6OutputlsEm
.LVL239:
	mov	x1, x19
	bl	_ZN6OutputlsEPKc
.LVL240:
	.loc 3 703 0
	adrp	x1, .LC59
	add	x1, x1, :lo12:.LC59
	bl	_ZN6OutputlsEPKc
.LVL241:
	ldr	x1, [x29, 144]
	and	x1, x1, 1
	bl	_ZN6OutputlsEm
.LVL242:
	mov	x1, x19
	bl	_ZN6OutputlsEPKc
.LVL243:
	.loc 3 704 0
	adrp	x1, .LC60
	add	x1, x1, :lo12:.LC60
	bl	_ZN6OutputlsEPKc
.LVL244:
	ldr	x1, [x29, 136]
	and	x1, x1, 1
	bl	_ZN6OutputlsEm
.LVL245:
	mov	x1, x19
	bl	_ZN6OutputlsEPKc
.LVL246:
	.loc 3 705 0
	adrp	x1, .LC61
	add	x1, x1, :lo12:.LC61
	bl	_ZN6OutputlsEPKc
.LVL247:
	ldr	x1, [x29, 128]
	and	x1, x1, 1
	bl	_ZN6OutputlsEm
.LVL248:
	mov	x1, x19
	bl	_ZN6OutputlsEPKc
.LVL249:
	.loc 3 706 0
	adrp	x1, .LC62
	add	x1, x1, :lo12:.LC62
	bl	_ZN6OutputlsEPKc
.LVL250:
	ldr	x1, [x29, 120]
	and	x1, x1, 3
	bl	_ZN6OutputlsEm
.LVL251:
	adrp	x19, .LC7
	add	x19, x19, :lo12:.LC7
	mov	x1, x19
	bl	_ZN6OutputlsEPKc
.LVL252:
	.loc 3 707 0
	adrp	x1, .LC63
	add	x1, x1, :lo12:.LC63
	bl	_ZN6OutputlsEPKc
.LVL253:
	ldr	x1, [x29, 112]
	and	x1, x1, 1
	bl	_ZN6OutputlsEm
.LVL254:
	mov	x1, x19
	bl	_ZN6OutputlsEPKc
.LVL255:
	.loc 3 708 0
	adrp	x1, .LC64
	add	x1, x1, :lo12:.LC64
	bl	_ZN6OutputlsEPKc
.LVL256:
	ldr	x1, [x29, 104]
	and	x1, x1, 1
	bl	_ZN6OutputlsEm
.LVL257:
	mov	x1, x19
	bl	_ZN6OutputlsEPKc
.LVL258:
	.loc 3 709 0
	adrp	x1, .LC65
	add	x1, x1, :lo12:.LC65
	bl	_ZN6OutputlsEPKc
.LVL259:
	ldr	x1, [x29, 320]
	and	x1, x1, 511
	bl	_ZN6OutputlsEm
.LVL260:
	.loc 3 710 0
	adrp	x23, .LC16
.LVL261:
	add	x23, x23, :lo12:.LC16
	mov	x1, x23
	bl	_ZN6OutputlsEPKc
.LVL262:
.LBE337:
.LBE336:
.LBB338:
.LBB339:
	.file 5 "D:\\Pool\\eclipse-workspace_aarch64\\newspace\\raspiOS\\include/arch/common_aarch64/vmsa_descriptors.h"
	.loc 5 22 0
	mov	x22, x21
.LVL263:
	adrp	x1, .LC66
	add	x1, x1, :lo12:.LC66
	mov	x0, x21
	bl	_ZN6OutputlsEPKc
.LVL264:
	.loc 5 23 0
	adrp	x1, .LC67
	add	x1, x1, :lo12:.LC67
	bl	_ZN6OutputlsEPKc
.LVL265:
	adrp	x24, L0Table
.LVL266:
	add	x21, x24, :lo12:L0Table
	ldrb	w1, [x24, #:lo12:L0Table]
	and	x1, x1, 1
	bl	_ZN6OutputlsEm
.LVL267:
	mov	x1, x19
	bl	_ZN6OutputlsEPKc
.LVL268:
	.loc 5 24 0
	adrp	x1, .LC68
	add	x1, x1, :lo12:.LC68
	bl	_ZN6OutputlsEPKc
.LVL269:
	ldrb	w1, [x24, #:lo12:L0Table]
	ubfx	x1, x1, 1, 1
	bl	_ZN6OutputlsEm
.LVL270:
	mov	x1, x19
	bl	_ZN6OutputlsEPKc
.LVL271:
	.loc 5 25 0
	adrp	x1, .LC69
	add	x1, x1, :lo12:.LC69
	bl	_ZN6OutputlsEPKc
.LVL272:
	ldrh	w1, [x21]
	ubfx	x1, x1, 2, 10
	bl	_ZN6OutputlsEm
.LVL273:
	mov	x1, x19
	bl	_ZN6OutputlsEPKc
.LVL274:
	.loc 5 26 0
	adrp	x1, .LC70
	add	x1, x1, :lo12:.LC70
	bl	_ZN6OutputlsEPKc
.LVL275:
	ldrb	w2, [x21, 1]
	ubfx	x2, x2, 4, 4
	ldrb	w1, [x21, 2]
	orr	x2, x2, x1, lsl 4
	ldrb	w1, [x21, 3]
	orr	x1, x2, x1, lsl 12
	ldrb	w2, [x21, 4]
	orr	x1, x1, x2, lsl 20
	ldrb	w2, [x21, 5]
	orr	x2, x1, x2, lsl 28
.LVL276:
.LBB340:
.LBB341:
.LBB342:
	.loc 1 17 0
	add	x1, x29, 512
	str	x2, [x1, -24]!
.LVL277:
.LBE342:
.LBE341:
.LBE340:
	.loc 5 26 0
	bl	_ZlsILi16EER6OutputS1_RK16IntegerFormatterIXT_EE
.LVL278:
	mov	x1, x19
	bl	_ZN6OutputlsEPKc
.LVL279:
	.loc 5 27 0
	adrp	x1, .LC15
	add	x1, x1, :lo12:.LC15
	bl	_ZN6OutputlsEPKc
.LVL280:
	ldrb	w1, [x21, 6]
	and	x1, x1, 15
	bl	_ZN6OutputlsEm
.LVL281:
	mov	x1, x19
	bl	_ZN6OutputlsEPKc
.LVL282:
	.loc 5 28 0
	adrp	x1, .LC71
	add	x1, x1, :lo12:.LC71
	bl	_ZN6OutputlsEPKc
.LVL283:
	ldrh	w1, [x21, 6]
	ubfx	x1, x1, 4, 7
	bl	_ZN6OutputlsEm
.LVL284:
	mov	x1, x19
	bl	_ZN6OutputlsEPKc
.LVL285:
	.loc 5 29 0
	adrp	x1, .LC72
	add	x1, x1, :lo12:.LC72
	bl	_ZN6OutputlsEPKc
.LVL286:
	ldrb	w1, [x21, 7]
	ubfx	x1, x1, 3, 1
	bl	_ZN6OutputlsEm
.LVL287:
	mov	x1, x19
	bl	_ZN6OutputlsEPKc
.LVL288:
	.loc 5 30 0
	adrp	x1, .LC73
	add	x1, x1, :lo12:.LC73
	bl	_ZN6OutputlsEPKc
.LVL289:
	ldrb	w1, [x21, 7]
	ubfx	x1, x1, 4, 1
	bl	_ZN6OutputlsEm
.LVL290:
	mov	x1, x19
	bl	_ZN6OutputlsEPKc
.LVL291:
	.loc 5 31 0
	adrp	x1, .LC74
	add	x1, x1, :lo12:.LC74
	bl	_ZN6OutputlsEPKc
.LVL292:
	ldrb	w1, [x21, 7]
	ubfx	x1, x1, 5, 2
	bl	_ZN6OutputlsEm
.LVL293:
	mov	x1, x19
	bl	_ZN6OutputlsEPKc
.LVL294:
	.loc 5 32 0
	adrp	x1, .LC75
	add	x1, x1, :lo12:.LC75
	bl	_ZN6OutputlsEPKc
.LVL295:
	ldrb	w1, [x21, 7]
	ubfx	x1, x1, 7, 1
	bl	_ZN6OutputlsEm
.LVL296:
	.loc 5 33 0
	mov	x1, x23
	bl	_ZN6OutputlsEPKc
.LVL297:
.LBE339:
.LBE338:
.LBB343:
.LBB344:
	.loc 5 85 0
	adrp	x1, .LC76
	add	x1, x1, :lo12:.LC76
	mov	x0, x22
	bl	_ZN6OutputlsEPKc
.LVL298:
	.loc 5 86 0
	adrp	x0, L1Table
	ldrb	w0, [x0, #:lo12:L1Table]
	tbnz	x0, 1, .L11
	.loc 5 89 0
	adrp	x1, .LC77
	add	x1, x1, :lo12:.LC77
	mov	x0, x22
	bl	_ZN6OutputlsEPKc
.LVL299:
	adrp	x22, L1Table
	add	x21, x22, :lo12:L1Table
	ldrb	w1, [x22, #:lo12:L1Table]
	and	x1, x1, 1
	bl	_ZN6OutputlsEm
.LVL300:
	adrp	x19, .LC7
	add	x19, x19, :lo12:.LC7
	mov	x1, x19
	bl	_ZN6OutputlsEPKc
.LVL301:
	.loc 5 90 0
	adrp	x1, .LC78
	add	x1, x1, :lo12:.LC78
	bl	_ZN6OutputlsEPKc
.LVL302:
	ldrb	w1, [x22, #:lo12:L1Table]
	ubfx	x1, x1, 1, 1
	bl	_ZN6OutputlsEm
.LVL303:
	mov	x1, x19
	bl	_ZN6OutputlsEPKc
.LVL304:
	.loc 5 91 0
	adrp	x1, .LC79
	add	x1, x1, :lo12:.LC79
	bl	_ZN6OutputlsEPKc
.LVL305:
	ldrb	w1, [x22, #:lo12:L1Table]
	ubfx	x1, x1, 2, 3
	bl	_ZN6OutputlsEm
.LVL306:
	mov	x1, x19
	bl	_ZN6OutputlsEPKc
.LVL307:
	.loc 5 92 0
	adrp	x1, .LC80
	add	x1, x1, :lo12:.LC80
	bl	_ZN6OutputlsEPKc
.LVL308:
	ldrb	w1, [x22, #:lo12:L1Table]
	ubfx	x1, x1, 5, 1
	bl	_ZN6OutputlsEm
.LVL309:
	mov	x1, x19
	bl	_ZN6OutputlsEPKc
.LVL310:
	.loc 5 93 0
	adrp	x1, .LC81
	add	x1, x1, :lo12:.LC81
	bl	_ZN6OutputlsEPKc
.LVL311:
	ldrb	w1, [x22, #:lo12:L1Table]
	ubfx	x1, x1, 6, 2
	bl	_ZN6OutputlsEm
.LVL312:
	mov	x1, x19
	bl	_ZN6OutputlsEPKc
.LVL313:
	.loc 5 94 0
	adrp	x1, .LC82
	add	x1, x1, :lo12:.LC82
	bl	_ZN6OutputlsEPKc
.LVL314:
	ldrb	w1, [x21, 1]
	and	x1, x1, 3
	bl	_ZN6OutputlsEm
.LVL315:
	mov	x1, x19
	bl	_ZN6OutputlsEPKc
.LVL316:
	.loc 5 95 0
	adrp	x1, .LC83
	add	x1, x1, :lo12:.LC83
	bl	_ZN6OutputlsEPKc
.LVL317:
	ldrb	w1, [x21, 1]
	ubfx	x1, x1, 2, 1
	bl	_ZN6OutputlsEm
.LVL318:
	mov	x1, x19
	bl	_ZN6OutputlsEPKc
.LVL319:
	.loc 5 96 0
	adrp	x1, .LC84
	add	x1, x1, :lo12:.LC84
	bl	_ZN6OutputlsEPKc
.LVL320:
	ldrb	w1, [x21, 1]
	ubfx	x1, x1, 3, 1
	bl	_ZN6OutputlsEm
.LVL321:
	mov	x1, x19
	bl	_ZN6OutputlsEPKc
.LVL322:
	.loc 5 97 0
	adrp	x1, .LC85
	add	x1, x1, :lo12:.LC85
	bl	_ZN6OutputlsEPKc
.LVL323:
	ldr	w1, [x21]
	ubfx	x1, x1, 12, 18
	bl	_ZN6OutputlsEm
.LVL324:
	mov	x1, x19
	bl	_ZN6OutputlsEPKc
.LVL325:
	.loc 5 98 0
	adrp	x1, .LC86
	add	x1, x1, :lo12:.LC86
	bl	_ZN6OutputlsEPKc
.LVL326:
	ldrb	w1, [x21, 3]
	ubfx	x1, x1, 6, 2
	ldrb	w2, [x21, 4]
	orr	x1, x1, x2, lsl 2
	ldrb	w2, [x21, 5]
	orr	x2, x1, x2, lsl 10
.LVL327:
.LBB345:
.LBB346:
.LBB347:
	.loc 1 17 0
	add	x1, x29, 512
	str	x2, [x1, -32]!
.LVL328:
.LBE347:
.LBE346:
.LBE345:
	.loc 5 98 0
	bl	_ZlsILi16EER6OutputS1_RK16IntegerFormatterIXT_EE
.LVL329:
	mov	x1, x19
	bl	_ZN6OutputlsEPKc
.LVL330:
	.loc 5 99 0
	adrp	x1, .LC87
	add	x1, x1, :lo12:.LC87
	bl	_ZN6OutputlsEPKc
.LVL331:
	ldrb	w1, [x21, 6]
	and	x1, x1, 15
	bl	_ZN6OutputlsEm
.LVL332:
	mov	x1, x19
	bl	_ZN6OutputlsEPKc
.LVL333:
	.loc 5 100 0
	adrp	x1, .LC88
	add	x1, x1, :lo12:.LC88
	bl	_ZN6OutputlsEPKc
.LVL334:
	ldrb	w1, [x21, 6]
	ubfx	x1, x1, 4, 1
	bl	_ZN6OutputlsEm
.LVL335:
	mov	x1, x19
	bl	_ZN6OutputlsEPKc
.LVL336:
	.loc 5 101 0
	adrp	x1, .LC89
	add	x1, x1, :lo12:.LC89
	bl	_ZN6OutputlsEPKc
.LVL337:
	ldrb	w1, [x21, 6]
	ubfx	x1, x1, 5, 1
	bl	_ZN6OutputlsEm
.LVL338:
	mov	x1, x19
	bl	_ZN6OutputlsEPKc
.LVL339:
	.loc 5 102 0
	adrp	x1, .LC90
	add	x1, x1, :lo12:.LC90
	bl	_ZN6OutputlsEPKc
.LVL340:
	ldrb	w1, [x21, 6]
	ubfx	x1, x1, 6, 1
	bl	_ZN6OutputlsEm
.LVL341:
	mov	x1, x19
	bl	_ZN6OutputlsEPKc
.LVL342:
	.loc 5 103 0
	adrp	x1, .LC91
	add	x1, x1, :lo12:.LC91
	bl	_ZN6OutputlsEPKc
.LVL343:
	ldrh	w1, [x21, 6]
	ubfx	x1, x1, 7, 4
	bl	_ZN6OutputlsEm
.LVL344:
	mov	x1, x19
	bl	_ZN6OutputlsEPKc
.LVL345:
	.loc 5 104 0
	adrp	x1, .LC92
	add	x1, x1, :lo12:.LC92
	bl	_ZN6OutputlsEPKc
.LVL346:
	ldrb	w1, [x21, 7]
	ubfx	x1, x1, 3, 4
	bl	_ZN6OutputlsEm
.LVL347:
	mov	x1, x19
	bl	_ZN6OutputlsEPKc
.LVL348:
	.loc 5 105 0
	adrp	x1, .LC93
	add	x1, x1, :lo12:.LC93
	bl	_ZN6OutputlsEPKc
.LVL349:
	ldrb	w1, [x21, 7]
	ubfx	x1, x1, 7, 1
	bl	_ZN6OutputlsEm
.LVL350:
.L12:
	.loc 5 121 0
	adrp	x19, .LC16
	add	x19, x19, :lo12:.LC16
	adrp	x21, kout
	add	x21, x21, :lo12:kout
	mov	x1, x19
	mov	x0, x21
	bl	_ZN6OutputlsEPKc
.LVL351:
.LBE344:
.LBE343:
.LBB352:
.LBB353:
	.loc 3 1212 0
	// Start of user assembly
// 1212 "D:\Pool\eclipse-workspace_aarch64\newspace\raspiOS\include/arch/common_aarch64/system_common_registers.h" 1
	mrs x0,SCTLR_EL1
	
// 0 "" 2
.LVL352:
	// End of user assembly
	and	w27, w0, 1
.LVL353:
	ubfx	x26, x0, 1, 1
.LVL354:
	ubfx	x25, x0, 2, 1
.LVL355:
	ubfx	x24, x0, 3, 1
	ubfx	x23, x0, 4, 1
	ubfx	x22, x0, 5, 1
	ubfx	x28, x0, 6, 1
.LVL356:
	ubfx	x1, x0, 7, 1
	str	x1, [x29, 320]
.LVL357:
	ubfx	x2, x0, 8, 1
	str	x2, [x29, 312]
.LVL358:
	ubfx	x2, x0, 9, 1
	str	x2, [x29, 304]
.LVL359:
	ubfx	x2, x0, 10, 1
	str	x2, [x29, 296]
.LVL360:
	ubfx	x2, x0, 11, 1
	str	x2, [x29, 288]
.LVL361:
	ubfx	x2, x0, 12, 1
	str	x2, [x29, 280]
.LVL362:
	ubfx	x2, x0, 13, 1
	str	x2, [x29, 272]
.LVL363:
	ubfx	x2, x0, 14, 1
	str	x2, [x29, 264]
.LVL364:
	ubfx	x2, x0, 15, 1
	str	x2, [x29, 256]
.LVL365:
	ubfx	x2, x0, 16, 1
	str	x2, [x29, 248]
.LVL366:
	ubfx	x2, x0, 17, 1
	str	x2, [x29, 240]
.LVL367:
	ubfx	x2, x0, 18, 1
	str	x2, [x29, 232]
.LVL368:
	ubfx	x2, x0, 19, 1
	str	x2, [x29, 224]
.LVL369:
	ubfx	x2, x0, 20, 1
	str	x2, [x29, 216]
.LVL370:
	ubfx	x2, x0, 21, 1
	str	x2, [x29, 208]
.LVL371:
	ubfx	x2, x0, 22, 1
	str	x2, [x29, 200]
.LVL372:
	ubfx	x2, x0, 23, 1
	str	x2, [x29, 192]
.LVL373:
	ubfx	x2, x0, 24, 1
	str	x2, [x29, 184]
.LVL374:
	ubfx	x2, x0, 25, 1
	str	x2, [x29, 176]
.LVL375:
	ubfx	x2, x0, 26, 1
	str	x2, [x29, 168]
.LVL376:
	ubfx	x2, x0, 27, 1
	str	x2, [x29, 160]
.LVL377:
	ubfx	x2, x0, 28, 1
	str	x2, [x29, 152]
.LVL378:
	ubfx	x2, x0, 29, 1
	str	x2, [x29, 144]
.LVL379:
	lsr	w0, w0, 30
.LVL380:
	str	x0, [x29, 136]
.LVL381:
.LBE353:
.LBE352:
.LBB354:
.LBB355:
	.loc 3 1174 0
	adrp	x1, .LC104
	add	x1, x1, :lo12:.LC104
	mov	x0, x21
	bl	_ZN6OutputlsEPKc
.LVL382:
	.loc 3 1175 0
	adrp	x1, .LC105
	add	x1, x1, :lo12:.LC105
	bl	_ZN6OutputlsEPKc
.LVL383:
	mov	w1, w27
	bl	_ZN6OutputlsEj
.LVL384:
	adrp	x21, .LC7
	add	x21, x21, :lo12:.LC7
	mov	x1, x21
	bl	_ZN6OutputlsEPKc
.LVL385:
	.loc 3 1176 0
	adrp	x1, .LC106
	add	x1, x1, :lo12:.LC106
	bl	_ZN6OutputlsEPKc
.LVL386:
	mov	w1, w26
	bl	_ZN6OutputlsEj
.LVL387:
	mov	x1, x21
	bl	_ZN6OutputlsEPKc
.LVL388:
	.loc 3 1177 0
	adrp	x1, .LC107
	add	x1, x1, :lo12:.LC107
	bl	_ZN6OutputlsEPKc
.LVL389:
	mov	w1, w25
	bl	_ZN6OutputlsEj
.LVL390:
	mov	x1, x21
	bl	_ZN6OutputlsEPKc
.LVL391:
	.loc 3 1178 0
	adrp	x1, .LC108
	add	x1, x1, :lo12:.LC108
	bl	_ZN6OutputlsEPKc
.LVL392:
	mov	w1, w24
	bl	_ZN6OutputlsEj
.LVL393:
	mov	x1, x21
	bl	_ZN6OutputlsEPKc
.LVL394:
	.loc 3 1179 0
	adrp	x1, .LC109
	add	x1, x1, :lo12:.LC109
	bl	_ZN6OutputlsEPKc
.LVL395:
	mov	w1, w23
	bl	_ZN6OutputlsEj
.LVL396:
	mov	x1, x21
	bl	_ZN6OutputlsEPKc
.LVL397:
	.loc 3 1180 0
	adrp	x1, .LC110
	add	x1, x1, :lo12:.LC110
	bl	_ZN6OutputlsEPKc
.LVL398:
	mov	w1, w22
	bl	_ZN6OutputlsEj
.LVL399:
	mov	x1, x21
	bl	_ZN6OutputlsEPKc
.LVL400:
	.loc 3 1181 0
	adrp	x1, .LC32
	add	x1, x1, :lo12:.LC32
	bl	_ZN6OutputlsEPKc
.LVL401:
	mov	w1, w28
	bl	_ZN6OutputlsEj
.LVL402:
	mov	x1, x21
	bl	_ZN6OutputlsEPKc
.LVL403:
	.loc 3 1182 0
	adrp	x1, .LC111
	add	x1, x1, :lo12:.LC111
	bl	_ZN6OutputlsEPKc
.LVL404:
	ldr	w1, [x29, 320]
	bl	_ZN6OutputlsEj
.LVL405:
	mov	x1, x21
	bl	_ZN6OutputlsEPKc
.LVL406:
	.loc 3 1183 0
	adrp	x1, .LC112
	add	x1, x1, :lo12:.LC112
	bl	_ZN6OutputlsEPKc
.LVL407:
	ldr	w1, [x29, 312]
	bl	_ZN6OutputlsEj
.LVL408:
	mov	x1, x21
	bl	_ZN6OutputlsEPKc
.LVL409:
	.loc 3 1184 0
	adrp	x1, .LC113
	add	x1, x1, :lo12:.LC113
	bl	_ZN6OutputlsEPKc
.LVL410:
	ldr	w1, [x29, 304]
	bl	_ZN6OutputlsEj
.LVL411:
	mov	x1, x21
	bl	_ZN6OutputlsEPKc
.LVL412:
	.loc 3 1185 0
	adrp	x1, .LC46
	add	x1, x1, :lo12:.LC46
	bl	_ZN6OutputlsEPKc
.LVL413:
	ldr	w1, [x29, 296]
	bl	_ZN6OutputlsEj
.LVL414:
	mov	x1, x21
	bl	_ZN6OutputlsEPKc
.LVL415:
	.loc 3 1186 0
	adrp	x1, .LC114
	add	x1, x1, :lo12:.LC114
	bl	_ZN6OutputlsEPKc
.LVL416:
	ldr	w1, [x29, 288]
	bl	_ZN6OutputlsEj
.LVL417:
	mov	x1, x21
	bl	_ZN6OutputlsEPKc
.LVL418:
	.loc 3 1187 0
	adrp	x1, .LC115
	add	x1, x1, :lo12:.LC115
	bl	_ZN6OutputlsEPKc
.LVL419:
	ldr	w1, [x29, 280]
	bl	_ZN6OutputlsEj
.LVL420:
	mov	x1, x21
	bl	_ZN6OutputlsEPKc
.LVL421:
	.loc 3 1188 0
	adrp	x1, .LC65
	add	x1, x1, :lo12:.LC65
	bl	_ZN6OutputlsEPKc
.LVL422:
	ldr	w1, [x29, 272]
	bl	_ZN6OutputlsEj
.LVL423:
	mov	x1, x21
	bl	_ZN6OutputlsEPKc
.LVL424:
	.loc 3 1189 0
	adrp	x1, .LC116
	add	x1, x1, :lo12:.LC116
	bl	_ZN6OutputlsEPKc
.LVL425:
	ldr	w1, [x29, 264]
	bl	_ZN6OutputlsEj
.LVL426:
	mov	x1, x21
	bl	_ZN6OutputlsEPKc
.LVL427:
	.loc 3 1190 0
	adrp	x1, .LC117
	add	x1, x1, :lo12:.LC117
	bl	_ZN6OutputlsEPKc
.LVL428:
	ldr	w1, [x29, 256]
	bl	_ZN6OutputlsEj
.LVL429:
	mov	x1, x21
	bl	_ZN6OutputlsEPKc
.LVL430:
	.loc 3 1191 0
	adrp	x1, .LC118
	add	x1, x1, :lo12:.LC118
	bl	_ZN6OutputlsEPKc
.LVL431:
	ldr	w1, [x29, 248]
	bl	_ZN6OutputlsEj
.LVL432:
	mov	x1, x21
	bl	_ZN6OutputlsEPKc
.LVL433:
	.loc 3 1192 0
	adrp	x1, .LC119
	add	x1, x1, :lo12:.LC119
	bl	_ZN6OutputlsEPKc
.LVL434:
	ldr	w1, [x29, 240]
	bl	_ZN6OutputlsEj
.LVL435:
	mov	x1, x21
	bl	_ZN6OutputlsEPKc
.LVL436:
	.loc 3 1193 0
	adrp	x1, .LC120
	add	x1, x1, :lo12:.LC120
	bl	_ZN6OutputlsEPKc
.LVL437:
	ldr	w1, [x29, 232]
	bl	_ZN6OutputlsEj
.LVL438:
	mov	x1, x21
	bl	_ZN6OutputlsEPKc
.LVL439:
	.loc 3 1194 0
	adrp	x1, .LC121
	add	x1, x1, :lo12:.LC121
	bl	_ZN6OutputlsEPKc
.LVL440:
	ldr	w1, [x29, 224]
	bl	_ZN6OutputlsEj
.LVL441:
	mov	x1, x21
	bl	_ZN6OutputlsEPKc
.LVL442:
	.loc 3 1195 0
	adrp	x1, .LC122
	add	x1, x1, :lo12:.LC122
	bl	_ZN6OutputlsEPKc
.LVL443:
	ldr	w1, [x29, 216]
	bl	_ZN6OutputlsEj
.LVL444:
	mov	x1, x21
	bl	_ZN6OutputlsEPKc
.LVL445:
	.loc 3 1196 0
	adrp	x1, .LC123
	add	x1, x1, :lo12:.LC123
	bl	_ZN6OutputlsEPKc
.LVL446:
	ldr	w1, [x29, 208]
	bl	_ZN6OutputlsEj
.LVL447:
	mov	x1, x21
	bl	_ZN6OutputlsEPKc
.LVL448:
	.loc 3 1197 0
	adrp	x1, .LC124
	add	x1, x1, :lo12:.LC124
	bl	_ZN6OutputlsEPKc
.LVL449:
	ldr	w1, [x29, 200]
	bl	_ZN6OutputlsEj
.LVL450:
	mov	x1, x21
	bl	_ZN6OutputlsEPKc
.LVL451:
	.loc 3 1198 0
	adrp	x1, .LC125
	add	x1, x1, :lo12:.LC125
	bl	_ZN6OutputlsEPKc
.LVL452:
	ldr	w1, [x29, 192]
	bl	_ZN6OutputlsEj
.LVL453:
	mov	x1, x21
	bl	_ZN6OutputlsEPKc
.LVL454:
	.loc 3 1199 0
	adrp	x1, .LC126
	add	x1, x1, :lo12:.LC126
	bl	_ZN6OutputlsEPKc
.LVL455:
	ldr	w1, [x29, 184]
	bl	_ZN6OutputlsEj
.LVL456:
	mov	x1, x21
	bl	_ZN6OutputlsEPKc
.LVL457:
	.loc 3 1200 0
	adrp	x1, .LC127
	add	x1, x1, :lo12:.LC127
	bl	_ZN6OutputlsEPKc
.LVL458:
	ldr	w1, [x29, 176]
	bl	_ZN6OutputlsEj
.LVL459:
	mov	x1, x21
	bl	_ZN6OutputlsEPKc
.LVL460:
	.loc 3 1201 0
	adrp	x1, .LC128
	add	x1, x1, :lo12:.LC128
	bl	_ZN6OutputlsEPKc
.LVL461:
	ldr	w1, [x29, 168]
	bl	_ZN6OutputlsEj
.LVL462:
	mov	x1, x21
	bl	_ZN6OutputlsEPKc
.LVL463:
	.loc 3 1202 0
	adrp	x1, .LC129
	add	x1, x1, :lo12:.LC129
	bl	_ZN6OutputlsEPKc
.LVL464:
	ldr	w1, [x29, 160]
	bl	_ZN6OutputlsEj
.LVL465:
	mov	x1, x21
	bl	_ZN6OutputlsEPKc
.LVL466:
	.loc 3 1203 0
	adrp	x1, .LC130
	add	x1, x1, :lo12:.LC130
	bl	_ZN6OutputlsEPKc
.LVL467:
	ldr	w1, [x29, 152]
	bl	_ZN6OutputlsEj
.LVL468:
	mov	x1, x21
	bl	_ZN6OutputlsEPKc
.LVL469:
	.loc 3 1204 0
	adrp	x1, .LC131
	add	x1, x1, :lo12:.LC131
	bl	_ZN6OutputlsEPKc
.LVL470:
	ldr	w1, [x29, 144]
	bl	_ZN6OutputlsEj
.LVL471:
	mov	x1, x21
	bl	_ZN6OutputlsEPKc
.LVL472:
	.loc 3 1205 0
	adrp	x1, .LC132
	add	x1, x1, :lo12:.LC132
	bl	_ZN6OutputlsEPKc
.LVL473:
	ldr	w1, [x29, 136]
	bl	_ZN6OutputlsEj
.LVL474:
	.loc 3 1206 0
	mov	x1, x19
	bl	_ZN6OutputlsEPKc
.LVL475:
.LBE355:
.LBE354:
.LBB356:
.LBB357:
	.loc 3 815 0
	// Start of user assembly
// 815 "D:\Pool\eclipse-workspace_aarch64\newspace\raspiOS\include/arch/common_aarch64/system_common_registers.h" 1
	mrs x0,ID_AA64MMFR1_EL1
	
// 0 "" 2
.LVL476:
	// End of user assembly
.LBE357:
.LBE356:
	.loc 2 448 0
	ubfx	x0, x0, 16, 8
.LVL477:
	tst	w0, 240
	bne	.L13
	.loc 2 450 0
	adrp	x1, .LC19
	add	x1, x1, :lo12:.LC19
	adrp	x0, kout
	add	x0, x0, :lo12:kout
	bl	_ZN6OutputlsEPKc
.LVL478:
	adrp	x1, .LC133
	add	x1, x1, :lo12:.LC133
	bl	_ZN6OutputlsEPKc
.LVL479:
.L14:
.LBB358:
.LBB359:
	.loc 3 1212 0
	// Start of user assembly
// 1212 "D:\Pool\eclipse-workspace_aarch64\newspace\raspiOS\include/arch/common_aarch64/system_common_registers.h" 1
	mrs x0,SCTLR_EL1
	
// 0 "" 2
.LVL480:
	// End of user assembly
	ubfx	x23, x0, 5, 1
	ubfx	x22, x0, 6, 1
	ubfx	x21, x0, 7, 1
	ubfx	x19, x0, 8, 1
	ubfx	x18, x0, 9, 1
	ubfx	x17, x0, 10, 1
	ubfx	x16, x0, 11, 1
	ubfx	x15, x0, 13, 1
	ubfx	x14, x0, 14, 1
	ubfx	x13, x0, 15, 1
	ubfx	x12, x0, 16, 1
	ubfx	x11, x0, 17, 1
	ubfx	x10, x0, 18, 1
	ubfx	x9, x0, 20, 1
	ubfx	x8, x0, 21, 1
	ubfx	x7, x0, 22, 1
	ubfx	x6, x0, 23, 1
	ubfx	x5, x0, 26, 1
	ubfx	x4, x0, 27, 1
	ubfx	x3, x0, 28, 1
	ubfx	x2, x0, 29, 1
	lsr	w1, w0, 30
.LVL481:
.LBE359:
.LBE358:
.LBB360:
.LBB361:
	.loc 3 1214 0
	mov	w0, 5
.LVL482:
	bfi	w0, w23, 5, 1
	bfi	w0, w22, 6, 1
	bfi	w0, w21, 7, 1
	bfi	w0, w19, 8, 1
	bfi	w0, w18, 9, 1
	bfi	w0, w17, 10, 1
	bfi	w0, w16, 11, 1
	orr	w0, w0, 4096
	bfi	w0, w15, 13, 1
	bfi	w0, w14, 14, 1
	bfi	w0, w13, 15, 1
	bfi	w0, w12, 16, 1
	bfi	w0, w11, 17, 1
	bfi	w0, w10, 18, 2
	bfi	w0, w9, 20, 1
	bfi	w0, w8, 21, 1
	bfi	w0, w7, 22, 1
	bfi	w0, w6, 23, 3
	bfi	w0, w5, 26, 1
	bfi	w0, w4, 27, 1
	bfi	w0, w3, 28, 1
	bfi	w0, w2, 29, 1
	bfi	w0, w1, 30, 2
	// Start of user assembly
// 1214 "D:\Pool\eclipse-workspace_aarch64\newspace\raspiOS\include/arch/common_aarch64/system_common_registers.h" 1
	msr SCTLR_EL1,x0 
	
// 0 "" 2
.LVL483:
	// End of user assembly
.LBE361:
.LBE360:
.LBB362:
.LBB363:
	.loc 4 50 0
	// Start of user assembly
// 50 "D:\Pool\eclipse-workspace_aarch64\newspace\raspiOS\include/asm_instructions.h" 1
	isb 
	
// 0 "" 2
.LVL484:
	// End of user assembly
.LBE363:
.LBE362:
.LBB364:
.LBB365:
	.loc 3 1213 0
	// Start of user assembly
// 1213 "D:\Pool\eclipse-workspace_aarch64\newspace\raspiOS\include/arch/common_aarch64/system_common_registers.h" 1
	mrs x0,SCTLR_EL1
	
// 0 "" 2
.LVL485:
	// End of user assembly
	and	w19, w0, 1
.LVL486:
	ubfx	x27, x0, 1, 1
.LVL487:
	ubfx	x26, x0, 2, 1
.LVL488:
	ubfx	x25, x0, 3, 1
.LVL489:
	ubfx	x24, x0, 4, 1
.LVL490:
	ubfx	x23, x0, 5, 1
.LVL491:
	ubfx	x22, x0, 6, 1
.LVL492:
	ubfx	x28, x0, 7, 1
.LVL493:
	ubfx	x1, x0, 8, 1
	str	x1, [x29, 320]
.LVL494:
	ubfx	x2, x0, 9, 1
	str	x2, [x29, 312]
.LVL495:
	ubfx	x2, x0, 10, 1
	str	x2, [x29, 304]
.LVL496:
	ubfx	x2, x0, 11, 1
	str	x2, [x29, 296]
.LVL497:
	ubfx	x2, x0, 12, 1
	str	x2, [x29, 288]
.LVL498:
	ubfx	x2, x0, 13, 1
	str	x2, [x29, 280]
.LVL499:
	ubfx	x2, x0, 14, 1
	str	x2, [x29, 272]
.LVL500:
	ubfx	x2, x0, 15, 1
	str	x2, [x29, 264]
.LVL501:
	ubfx	x2, x0, 16, 1
	str	x2, [x29, 256]
.LVL502:
	ubfx	x2, x0, 17, 1
	str	x2, [x29, 248]
.LVL503:
	ubfx	x2, x0, 18, 1
	str	x2, [x29, 240]
.LVL504:
	ubfx	x2, x0, 19, 1
	str	x2, [x29, 232]
.LVL505:
	ubfx	x2, x0, 20, 1
	str	x2, [x29, 224]
.LVL506:
	ubfx	x2, x0, 21, 1
	str	x2, [x29, 216]
.LVL507:
	ubfx	x2, x0, 22, 1
	str	x2, [x29, 208]
.LVL508:
	ubfx	x2, x0, 23, 1
	str	x2, [x29, 200]
.LVL509:
	ubfx	x2, x0, 24, 1
	str	x2, [x29, 192]
.LVL510:
	ubfx	x2, x0, 25, 1
	str	x2, [x29, 184]
.LVL511:
	ubfx	x2, x0, 26, 1
	str	x2, [x29, 176]
.LVL512:
	ubfx	x2, x0, 27, 1
	str	x2, [x29, 168]
.LVL513:
	ubfx	x2, x0, 28, 1
	str	x2, [x29, 160]
.LVL514:
	ubfx	x2, x0, 29, 1
	str	x2, [x29, 152]
.LVL515:
	lsr	w0, w0, 30
.LVL516:
	str	x0, [x29, 144]
.LVL517:
.LBE365:
.LBE364:
.LBB366:
.LBB367:
	.loc 3 1174 0
	adrp	x21, kout
	add	x21, x21, :lo12:kout
	adrp	x1, .LC104
	add	x1, x1, :lo12:.LC104
	mov	x0, x21
	bl	_ZN6OutputlsEPKc
.LVL518:
	.loc 3 1175 0
	adrp	x1, .LC105
	add	x1, x1, :lo12:.LC105
	bl	_ZN6OutputlsEPKc
.LVL519:
	mov	w1, w19
	bl	_ZN6OutputlsEj
.LVL520:
	adrp	x19, .LC7
	add	x19, x19, :lo12:.LC7
	mov	x1, x19
	bl	_ZN6OutputlsEPKc
.LVL521:
	.loc 3 1176 0
	adrp	x1, .LC106
	add	x1, x1, :lo12:.LC106
	bl	_ZN6OutputlsEPKc
.LVL522:
	mov	w1, w27
	bl	_ZN6OutputlsEj
.LVL523:
	mov	x1, x19
	bl	_ZN6OutputlsEPKc
.LVL524:
	.loc 3 1177 0
	adrp	x1, .LC107
	add	x1, x1, :lo12:.LC107
	bl	_ZN6OutputlsEPKc
.LVL525:
	mov	w1, w26
	bl	_ZN6OutputlsEj
.LVL526:
	mov	x1, x19
	bl	_ZN6OutputlsEPKc
.LVL527:
	.loc 3 1178 0
	adrp	x1, .LC108
	add	x1, x1, :lo12:.LC108
	bl	_ZN6OutputlsEPKc
.LVL528:
	mov	w1, w25
	bl	_ZN6OutputlsEj
.LVL529:
	mov	x1, x19
	bl	_ZN6OutputlsEPKc
.LVL530:
	.loc 3 1179 0
	adrp	x1, .LC109
	add	x1, x1, :lo12:.LC109
	bl	_ZN6OutputlsEPKc
.LVL531:
	mov	w1, w24
	bl	_ZN6OutputlsEj
.LVL532:
	mov	x1, x19
	bl	_ZN6OutputlsEPKc
.LVL533:
	.loc 3 1180 0
	adrp	x1, .LC110
	add	x1, x1, :lo12:.LC110
	bl	_ZN6OutputlsEPKc
.LVL534:
	mov	w1, w23
	bl	_ZN6OutputlsEj
.LVL535:
	mov	x1, x19
	bl	_ZN6OutputlsEPKc
.LVL536:
	.loc 3 1181 0
	adrp	x1, .LC32
	add	x1, x1, :lo12:.LC32
	bl	_ZN6OutputlsEPKc
.LVL537:
	mov	w1, w22
	bl	_ZN6OutputlsEj
.LVL538:
	mov	x1, x19
	bl	_ZN6OutputlsEPKc
.LVL539:
	.loc 3 1182 0
	adrp	x1, .LC111
	add	x1, x1, :lo12:.LC111
	bl	_ZN6OutputlsEPKc
.LVL540:
	mov	w1, w28
	bl	_ZN6OutputlsEj
.LVL541:
	mov	x1, x19
	bl	_ZN6OutputlsEPKc
.LVL542:
	.loc 3 1183 0
	adrp	x1, .LC112
	add	x1, x1, :lo12:.LC112
	bl	_ZN6OutputlsEPKc
.LVL543:
	ldr	w1, [x29, 320]
	bl	_ZN6OutputlsEj
.LVL544:
	mov	x1, x19
	bl	_ZN6OutputlsEPKc
.LVL545:
	.loc 3 1184 0
	adrp	x1, .LC113
	add	x1, x1, :lo12:.LC113
	bl	_ZN6OutputlsEPKc
.LVL546:
	ldr	w1, [x29, 312]
	bl	_ZN6OutputlsEj
.LVL547:
	mov	x1, x19
	bl	_ZN6OutputlsEPKc
.LVL548:
	.loc 3 1185 0
	adrp	x1, .LC46
	add	x1, x1, :lo12:.LC46
	bl	_ZN6OutputlsEPKc
.LVL549:
	ldr	w1, [x29, 304]
	bl	_ZN6OutputlsEj
.LVL550:
	mov	x1, x19
	bl	_ZN6OutputlsEPKc
.LVL551:
	.loc 3 1186 0
	adrp	x1, .LC114
	add	x1, x1, :lo12:.LC114
	bl	_ZN6OutputlsEPKc
.LVL552:
	ldr	w1, [x29, 296]
	bl	_ZN6OutputlsEj
.LVL553:
	mov	x1, x19
	bl	_ZN6OutputlsEPKc
.LVL554:
	.loc 3 1187 0
	adrp	x1, .LC115
	add	x1, x1, :lo12:.LC115
	bl	_ZN6OutputlsEPKc
.LVL555:
	ldr	w1, [x29, 288]
	bl	_ZN6OutputlsEj
.LVL556:
	mov	x1, x19
	bl	_ZN6OutputlsEPKc
.LVL557:
	.loc 3 1188 0
	adrp	x1, .LC65
	add	x1, x1, :lo12:.LC65
	bl	_ZN6OutputlsEPKc
.LVL558:
	ldr	w1, [x29, 280]
	bl	_ZN6OutputlsEj
.LVL559:
	mov	x1, x19
	bl	_ZN6OutputlsEPKc
.LVL560:
	.loc 3 1189 0
	adrp	x1, .LC116
	add	x1, x1, :lo12:.LC116
	bl	_ZN6OutputlsEPKc
.LVL561:
	ldr	w1, [x29, 272]
	bl	_ZN6OutputlsEj
.LVL562:
	mov	x1, x19
	bl	_ZN6OutputlsEPKc
.LVL563:
	.loc 3 1190 0
	adrp	x1, .LC117
	add	x1, x1, :lo12:.LC117
	bl	_ZN6OutputlsEPKc
.LVL564:
	ldr	w1, [x29, 264]
	bl	_ZN6OutputlsEj
.LVL565:
	mov	x1, x19
	bl	_ZN6OutputlsEPKc
.LVL566:
	.loc 3 1191 0
	adrp	x1, .LC118
	add	x1, x1, :lo12:.LC118
	bl	_ZN6OutputlsEPKc
.LVL567:
	ldr	w1, [x29, 256]
	bl	_ZN6OutputlsEj
.LVL568:
	mov	x1, x19
	bl	_ZN6OutputlsEPKc
.LVL569:
	.loc 3 1192 0
	adrp	x1, .LC119
	add	x1, x1, :lo12:.LC119
	bl	_ZN6OutputlsEPKc
.LVL570:
	ldr	w1, [x29, 248]
	bl	_ZN6OutputlsEj
.LVL571:
	mov	x1, x19
	bl	_ZN6OutputlsEPKc
.LVL572:
	.loc 3 1193 0
	adrp	x1, .LC120
	add	x1, x1, :lo12:.LC120
	bl	_ZN6OutputlsEPKc
.LVL573:
	ldr	w1, [x29, 240]
	bl	_ZN6OutputlsEj
.LVL574:
	mov	x1, x19
	bl	_ZN6OutputlsEPKc
.LVL575:
	.loc 3 1194 0
	adrp	x1, .LC121
	add	x1, x1, :lo12:.LC121
	bl	_ZN6OutputlsEPKc
.LVL576:
	ldr	w1, [x29, 232]
	bl	_ZN6OutputlsEj
.LVL577:
	mov	x1, x19
	bl	_ZN6OutputlsEPKc
.LVL578:
	.loc 3 1195 0
	adrp	x1, .LC122
	add	x1, x1, :lo12:.LC122
	bl	_ZN6OutputlsEPKc
.LVL579:
	ldr	w1, [x29, 224]
	bl	_ZN6OutputlsEj
.LVL580:
	mov	x1, x19
	bl	_ZN6OutputlsEPKc
.LVL581:
	.loc 3 1196 0
	adrp	x1, .LC123
	add	x1, x1, :lo12:.LC123
	bl	_ZN6OutputlsEPKc
.LVL582:
	ldr	w1, [x29, 216]
	bl	_ZN6OutputlsEj
.LVL583:
	mov	x1, x19
	bl	_ZN6OutputlsEPKc
.LVL584:
	.loc 3 1197 0
	adrp	x1, .LC124
	add	x1, x1, :lo12:.LC124
	bl	_ZN6OutputlsEPKc
.LVL585:
	ldr	w1, [x29, 208]
	bl	_ZN6OutputlsEj
.LVL586:
	mov	x1, x19
	bl	_ZN6OutputlsEPKc
.LVL587:
	.loc 3 1198 0
	adrp	x1, .LC125
	add	x1, x1, :lo12:.LC125
	bl	_ZN6OutputlsEPKc
.LVL588:
	ldr	w1, [x29, 200]
	bl	_ZN6OutputlsEj
.LVL589:
	mov	x1, x19
	bl	_ZN6OutputlsEPKc
.LVL590:
	.loc 3 1199 0
	adrp	x1, .LC126
	add	x1, x1, :lo12:.LC126
	bl	_ZN6OutputlsEPKc
.LVL591:
	ldr	w1, [x29, 192]
	bl	_ZN6OutputlsEj
.LVL592:
	mov	x1, x19
	bl	_ZN6OutputlsEPKc
.LVL593:
	.loc 3 1200 0
	adrp	x1, .LC127
	add	x1, x1, :lo12:.LC127
	bl	_ZN6OutputlsEPKc
.LVL594:
	ldr	w1, [x29, 184]
	bl	_ZN6OutputlsEj
.LVL595:
	mov	x1, x19
	bl	_ZN6OutputlsEPKc
.LVL596:
	.loc 3 1201 0
	adrp	x1, .LC128
	add	x1, x1, :lo12:.LC128
	bl	_ZN6OutputlsEPKc
.LVL597:
	ldr	w1, [x29, 176]
	bl	_ZN6OutputlsEj
.LVL598:
	mov	x1, x19
	bl	_ZN6OutputlsEPKc
.LVL599:
	.loc 3 1202 0
	adrp	x1, .LC129
	add	x1, x1, :lo12:.LC129
	bl	_ZN6OutputlsEPKc
.LVL600:
	ldr	w1, [x29, 168]
	bl	_ZN6OutputlsEj
.LVL601:
	mov	x1, x19
	bl	_ZN6OutputlsEPKc
.LVL602:
	.loc 3 1203 0
	adrp	x1, .LC130
	add	x1, x1, :lo12:.LC130
	bl	_ZN6OutputlsEPKc
.LVL603:
	ldr	w1, [x29, 160]
	bl	_ZN6OutputlsEj
.LVL604:
	mov	x1, x19
	bl	_ZN6OutputlsEPKc
.LVL605:
	.loc 3 1204 0
	adrp	x1, .LC131
	add	x1, x1, :lo12:.LC131
	bl	_ZN6OutputlsEPKc
.LVL606:
	ldr	w1, [x29, 152]
	bl	_ZN6OutputlsEj
.LVL607:
	mov	x1, x19
	bl	_ZN6OutputlsEPKc
.LVL608:
	.loc 3 1205 0
	adrp	x1, .LC132
	add	x1, x1, :lo12:.LC132
	bl	_ZN6OutputlsEPKc
.LVL609:
	ldr	w1, [x29, 144]
	bl	_ZN6OutputlsEj
.LVL610:
	.loc 3 1206 0
	adrp	x24, .LC16
	add	x24, x24, :lo12:.LC16
	mov	x1, x24
	bl	_ZN6OutputlsEPKc
.LVL611:
.LBE367:
.LBE366:
	.loc 2 484 0
	adrp	x19, .LC19
	add	x19, x19, :lo12:.LC19
	mov	x1, x19
	mov	x0, x21
	bl	_ZN6OutputlsEPKc
.LVL612:
	adrp	x1, .LC136
	add	x1, x1, :lo12:.LC136
	bl	_ZN6OutputlsEPKc
.LVL613:
.LBB368:
.LBB369:
	.file 6 "D:\\Pool\\eclipse-workspace_aarch64\\newspace\\raspiOS\\include/generic_util.h"
	.loc 6 54 0
	mov	w22, 64
	ldr	w0, [x29, 332]
	sub	w0, w22, w0
	mov	x22, -1
	lsr	x22, x22, x0
	lsl	x22, x22, x0
.LVL614:
.LBE369:
.LBE368:
	.loc 2 486 0
	ldr	x0, [x29, 336]
	orr	x0, x0, x22
.LVL615:
.LBB370:
.LBB371:
	.loc 3 75 0
	mov	x1, 0
	bfi	x1, x0, 0, 64
	// Start of user assembly
// 75 "D:\Pool\eclipse-workspace_aarch64\newspace\raspiOS\include/arch/common_aarch64/system_common_registers.h" 1
	msr VBAR_EL1,x1 
	
// 0 "" 2
.LVL616:
	// End of user assembly
.LBE371:
.LBE370:
	.loc 2 492 0
	mov	x1, x19
	mov	x0, x21
.LVL617:
	bl	_ZN6OutputlsEPKc
.LVL618:
	adrp	x1, .LC137
	add	x1, x1, :lo12:.LC137
	bl	_ZN6OutputlsEPKc
.LVL619:
	.loc 2 493 0
	adrp	x23, afterMMUSet
	add	x23, x23, :lo12:afterMMUSet
.LVL620:
.LBB372:
.LBB373:
.LBB374:
	.loc 1 17 0
	add	x1, x29, 512
	str	x23, [x1, -80]!
.LVL621:
.LBE374:
.LBE373:
.LBE372:
	.loc 2 493 0
	mov	x0, x21
	bl	_ZlsILi16EER6OutputS1_RK16IntegerFormatterIXT_EE
.LVL622:
	mov	x1, x24
	bl	_ZN6OutputlsEPKc
.LVL623:
	.loc 2 494 0
	mov	x1, x19
	mov	x0, x21
	bl	_ZN6OutputlsEPKc
.LVL624:
	adrp	x1, .LC138
	add	x1, x1, :lo12:.LC138
	bl	_ZN6OutputlsEPKc
.LVL625:
.LBB375:
.LBB376:
.LBB377:
	.loc 1 17 0
	add	x1, x29, 512
	ldr	x0, [x29, 344]
	str	x0, [x1, -72]!
.LVL626:
.LBE377:
.LBE376:
.LBE375:
	.loc 2 495 0
	mov	x0, x21
	bl	_ZlsILi16EER6OutputS1_RK16IntegerFormatterIXT_EE
.LVL627:
	mov	x1, x24
	bl	_ZN6OutputlsEPKc
.LVL628:
	.loc 2 498 0
	orr	x23, x23, x22
.LVL629:
.LBB378:
.LBB379:
	.loc 3 631 0
	mov	x0, 0
	bfi	x0, x23, 0, 64
	// Start of user assembly
// 631 "D:\Pool\eclipse-workspace_aarch64\newspace\raspiOS\include/arch/common_aarch64/system_common_registers.h" 1
	br x0
	
// 0 "" 2
.LVL630:
	// End of user assembly
.LBE379:
.LBE378:
	.loc 2 506 0
	// Start of user assembly
// 506 "D:/Pool/eclipse-workspace_aarch64/newspace/raspiOS/src/arch/qemu_virt/main_run_user_application.cpp" 1
	mov x0,sp 
	orr x0,x0,x22 
	mov sp,x0 
	orr x29,x29, x22 
	
// 0 "" 2
.LVL631:
.LDL1:
	.loc 2 509 0
// 509 "D:/Pool/eclipse-workspace_aarch64/newspace/raspiOS/src/arch/qemu_virt/main_run_user_application.cpp" 1
	afterMMUSet:
	
// 0 "" 2
	.loc 2 510 0
	// End of user assembly
	mov	x1, x19
	mov	x0, x21
	bl	_ZN6OutputlsEPKc
.LVL632:
	adrp	x1, .LC139
	add	x1, x1, :lo12:.LC139
	bl	_ZN6OutputlsEPKc
.LVL633:
	.loc 2 511 0
	mov	x1, x19
	mov	x0, x21
	bl	_ZN6OutputlsEPKc
.LVL634:
	adrp	x1, .LC140
	add	x1, x1, :lo12:.LC140
	bl	_ZN6OutputlsEPKc
.LVL635:
.LDL2:
	.loc 2 514 0
	// Start of user assembly
// 514 "D:/Pool/eclipse-workspace_aarch64/newspace/raspiOS/src/arch/qemu_virt/main_run_user_application.cpp" 1
	mainEnd:
	
// 0 "" 2
.LVL636:
	// End of user assembly
	ldr	x19, [x29, 16]
	.cfi_remember_state
	.cfi_restore 19
	ldp	x21, x22, [x29, 32]
	.cfi_restore 22
	.cfi_restore 21
	ldp	x23, x24, [x29, 48]
	.cfi_restore 24
	.cfi_restore 23
	ldp	x25, x26, [x29, 64]
	.cfi_restore 26
	.cfi_restore 25
	ldp	x27, x28, [x29, 80]
	.cfi_restore 28
	.cfi_restore 27
	.loc 2 516 0
	b	.L3
.LVL637:
.L16:
	.cfi_restore_state
	.loc 2 271 0
	adrp	x1, .LC3
	add	x1, x1, :lo12:.LC3
	adrp	x0, kout
	add	x0, x0, :lo12:kout
	bl	_ZN6OutputlsEPKc
.LVL638:
	adrp	x1, .LC17
	add	x1, x1, :lo12:.LC17
	bl	_ZN6OutputlsEPKc
.LVL639:
	.loc 2 272 0
	mov	w20, 1
	ldr	x19, [x29, 16]
	.cfi_remember_state
	.cfi_restore 19
.LVL640:
	ldp	x21, x22, [x29, 32]
	.cfi_restore 22
	.cfi_restore 21
.LVL641:
	ldp	x23, x24, [x29, 48]
	.cfi_restore 24
	.cfi_restore 23
.LVL642:
	ldp	x25, x26, [x29, 64]
	.cfi_restore 26
	.cfi_restore 25
.LVL643:
	ldp	x27, x28, [x29, 80]
	.cfi_restore 28
	.cfi_restore 27
.LVL644:
	b	.L3
.LVL645:
.L17:
	.cfi_restore_state
	.loc 2 282 0
	adrp	x1, .LC3
	add	x1, x1, :lo12:.LC3
	adrp	x0, kout
	add	x0, x0, :lo12:kout
	bl	_ZN6OutputlsEPKc
.LVL646:
	adrp	x1, .LC18
	add	x1, x1, :lo12:.LC18
	bl	_ZN6OutputlsEPKc
.LVL647:
	.loc 2 283 0
	mov	w20, 1
	ldr	x19, [x29, 16]
	.cfi_remember_state
	.cfi_restore 19
.LVL648:
	ldp	x21, x22, [x29, 32]
	.cfi_restore 22
	.cfi_restore 21
.LVL649:
	ldp	x23, x24, [x29, 48]
	.cfi_restore 24
	.cfi_restore 23
.LVL650:
	ldp	x25, x26, [x29, 64]
	.cfi_restore 26
	.cfi_restore 25
.LVL651:
	ldp	x27, x28, [x29, 80]
	.cfi_restore 28
	.cfi_restore 27
.LVL652:
	b	.L3
.LVL653:
.L18:
	.cfi_restore_state
	.loc 2 288 0
	adrp	x1, .LC19
	add	x1, x1, :lo12:.LC19
	adrp	x0, kout
	add	x0, x0, :lo12:kout
	bl	_ZN6OutputlsEPKc
.LVL654:
	adrp	x1, .LC20
	add	x1, x1, :lo12:.LC20
	bl	_ZN6OutputlsEPKc
.LVL655:
	.loc 2 289 0
	sub	w3, w23, #1
.LVL656:
	b	.L8
.L19:
	.loc 2 294 0
	adrp	x1, .LC3
	add	x1, x1, :lo12:.LC3
	adrp	x0, kout
	add	x0, x0, :lo12:kout
	bl	_ZN6OutputlsEPKc
.LVL657:
	adrp	x1, .LC21
	add	x1, x1, :lo12:.LC21
	bl	_ZN6OutputlsEPKc
.LVL658:
	.loc 2 295 0
	mov	w20, 1
	ldr	x19, [x29, 16]
	.cfi_remember_state
	.cfi_restore 19
.LVL659:
	ldp	x21, x22, [x29, 32]
	.cfi_restore 22
	.cfi_restore 21
.LVL660:
	ldp	x23, x24, [x29, 48]
	.cfi_restore 24
	.cfi_restore 23
.LVL661:
	ldp	x25, x26, [x29, 64]
	.cfi_restore 26
	.cfi_restore 25
.LVL662:
	ldp	x27, x28, [x29, 80]
	.cfi_restore 28
	.cfi_restore 27
.LVL663:
	b	.L3
.LVL664:
.L20:
	.cfi_restore_state
	.loc 2 342 0
	adrp	x1, .LC3
	add	x1, x1, :lo12:.LC3
	adrp	x0, kout
	add	x0, x0, :lo12:kout
	bl	_ZN6OutputlsEPKc
.LVL665:
	adrp	x1, .LC22
	add	x1, x1, :lo12:.LC22
	bl	_ZN6OutputlsEPKc
.LVL666:
	.loc 2 343 0
	mov	w20, 1
	ldr	x19, [x29, 16]
	.cfi_remember_state
	.cfi_restore 19
.LVL667:
	ldp	x21, x22, [x29, 32]
	.cfi_restore 22
	.cfi_restore 21
.LVL668:
	ldp	x23, x24, [x29, 48]
	.cfi_restore 24
	.cfi_restore 23
.LVL669:
	ldp	x25, x26, [x29, 64]
	.cfi_restore 26
	.cfi_restore 25
.LVL670:
	ldp	x27, x28, [x29, 80]
	.cfi_restore 28
	.cfi_restore 27
.LVL671:
	b	.L3
.LVL672:
.L11:
	.cfi_restore_state
.LBB380:
.LBB351:
	.loc 5 110 0
	adrp	x1, .LC94
	add	x1, x1, :lo12:.LC94
	adrp	x0, kout
	add	x0, x0, :lo12:kout
	bl	_ZN6OutputlsEPKc
.LVL673:
	adrp	x22, L1Table
	add	x19, x22, :lo12:L1Table
	ldrb	w1, [x22, #:lo12:L1Table]
	and	x1, x1, 1
	bl	_ZN6OutputlsEm
.LVL674:
	adrp	x21, .LC7
	add	x21, x21, :lo12:.LC7
	mov	x1, x21
	bl	_ZN6OutputlsEPKc
.LVL675:
	.loc 5 111 0
	adrp	x1, .LC95
	add	x1, x1, :lo12:.LC95
	bl	_ZN6OutputlsEPKc
.LVL676:
	ldrb	w1, [x22, #:lo12:L1Table]
	ubfx	x1, x1, 1, 1
	bl	_ZN6OutputlsEm
.LVL677:
	mov	x1, x21
	bl	_ZN6OutputlsEPKc
.LVL678:
	.loc 5 112 0
	adrp	x1, .LC96
	add	x1, x1, :lo12:.LC96
	bl	_ZN6OutputlsEPKc
.LVL679:
	ldrh	w1, [x19]
	ubfx	x1, x1, 2, 10
	bl	_ZN6OutputlsEm
.LVL680:
	mov	x1, x21
	bl	_ZN6OutputlsEPKc
.LVL681:
	.loc 5 113 0
	adrp	x1, .LC97
	add	x1, x1, :lo12:.LC97
	bl	_ZN6OutputlsEPKc
.LVL682:
	ldrb	w2, [x19, 1]
	ubfx	x2, x2, 4, 4
	ldrb	w1, [x19, 2]
	orr	x2, x2, x1, lsl 4
	ldrb	w1, [x19, 3]
	orr	x1, x2, x1, lsl 12
	ldrb	w2, [x19, 4]
	orr	x1, x1, x2, lsl 20
	ldrb	w2, [x19, 5]
	orr	x2, x1, x2, lsl 28
.LVL683:
.LBB348:
.LBB349:
.LBB350:
	.loc 1 17 0
	add	x1, x29, 512
	str	x2, [x1, -40]!
.LVL684:
.LBE350:
.LBE349:
.LBE348:
	.loc 5 113 0
	bl	_ZlsILi16EER6OutputS1_RK16IntegerFormatterIXT_EE
.LVL685:
	mov	x1, x21
	bl	_ZN6OutputlsEPKc
.LVL686:
	.loc 5 114 0
	adrp	x1, .LC98
	add	x1, x1, :lo12:.LC98
	bl	_ZN6OutputlsEPKc
.LVL687:
	ldrb	w1, [x19, 6]
	and	x1, x1, 15
	bl	_ZN6OutputlsEm
.LVL688:
	mov	x1, x21
	bl	_ZN6OutputlsEPKc
.LVL689:
	.loc 5 115 0
	adrp	x1, .LC99
	add	x1, x1, :lo12:.LC99
	bl	_ZN6OutputlsEPKc
.LVL690:
	ldrh	w1, [x19, 6]
	ubfx	x1, x1, 4, 7
	bl	_ZN6OutputlsEm
.LVL691:
	mov	x1, x21
	bl	_ZN6OutputlsEPKc
.LVL692:
	.loc 5 116 0
	adrp	x1, .LC100
	add	x1, x1, :lo12:.LC100
	bl	_ZN6OutputlsEPKc
.LVL693:
	ldrb	w1, [x19, 7]
	ubfx	x1, x1, 3, 1
	bl	_ZN6OutputlsEm
.LVL694:
	mov	x1, x21
	bl	_ZN6OutputlsEPKc
.LVL695:
	.loc 5 117 0
	adrp	x1, .LC101
	add	x1, x1, :lo12:.LC101
	bl	_ZN6OutputlsEPKc
.LVL696:
	ldrb	w1, [x19, 7]
	ubfx	x1, x1, 4, 1
	bl	_ZN6OutputlsEm
.LVL697:
	mov	x1, x21
	bl	_ZN6OutputlsEPKc
.LVL698:
	.loc 5 118 0
	adrp	x1, .LC102
	add	x1, x1, :lo12:.LC102
	bl	_ZN6OutputlsEPKc
.LVL699:
	ldrb	w1, [x19, 7]
	ubfx	x1, x1, 5, 2
	bl	_ZN6OutputlsEm
.LVL700:
	mov	x1, x21
	bl	_ZN6OutputlsEPKc
.LVL701:
	.loc 5 119 0
	adrp	x1, .LC103
	add	x1, x1, :lo12:.LC103
	bl	_ZN6OutputlsEPKc
.LVL702:
	ldrb	w1, [x19, 7]
	ubfx	x1, x1, 7, 1
	bl	_ZN6OutputlsEm
.LVL703:
	b	.L12
.LVL704:
.L13:
.LBE351:
.LBE380:
.LBB381:
.LBB382:
	.loc 3 566 0
	// Start of user assembly
// 566 "D:\Pool\eclipse-workspace_aarch64\newspace\raspiOS\include/arch/common_aarch64/system_common_registers.h" 1
	mrs x1,PAN
	
// 0 "" 2
.LVL705:
	// End of user assembly
	ubfx	x19, x1, 0, 22
	ubfx	x22, x1, 22, 1
	lsr	w21, w1, 23
.LVL706:
.LBE382:
.LBE381:
.LBB383:
.LBB384:
	.loc 3 556 0
	adrp	x1, .LC134
.LVL707:
	add	x1, x1, :lo12:.LC134
	adrp	x0, kout
	add	x0, x0, :lo12:kout
	bl	_ZN6OutputlsEPKc
.LVL708:
	.loc 3 557 0
	adrp	x1, .LC32
	add	x1, x1, :lo12:.LC32
	bl	_ZN6OutputlsEPKc
.LVL709:
	mov	w1, w19
	bl	_ZN6OutputlsEj
.LVL710:
	adrp	x19, .LC7
	add	x19, x19, :lo12:.LC7
	mov	x1, x19
	bl	_ZN6OutputlsEPKc
.LVL711:
	.loc 3 558 0
	adrp	x1, .LC135
	add	x1, x1, :lo12:.LC135
	bl	_ZN6OutputlsEPKc
.LVL712:
	mov	w1, w22
	bl	_ZN6OutputlsEj
.LVL713:
	mov	x1, x19
	bl	_ZN6OutputlsEPKc
.LVL714:
	.loc 3 559 0
	adrp	x1, .LC46
	add	x1, x1, :lo12:.LC46
	bl	_ZN6OutputlsEPKc
.LVL715:
	mov	w1, w21
	bl	_ZN6OutputlsEj
.LVL716:
	.loc 3 560 0
	adrp	x1, .LC16
	add	x1, x1, :lo12:.LC16
	bl	_ZN6OutputlsEPKc
.LVL717:
	b	.L14
.LBE384:
.LBE383:
	.cfi_endproc
.LFE273:
	.size	_Z9enableMMUv, .-_Z9enableMMUv
	.align	2
	.global	main
	.type	main, %function
main:
.LFB272:
	.loc 2 52 0
	.cfi_startproc
	stp	x29, x30, [sp, -176]!
	.cfi_def_cfa_offset 176
	.cfi_offset 29, -176
	.cfi_offset 30, -168
	add	x29, sp, 0
	.cfi_def_cfa_register 29
	str	x19, [sp, 16]
	.cfi_offset 19, -160
	.loc 2 53 0
	bl	_Z9enableMMUv
.LVL718:
	.loc 2 54 0
	mov	w19, 1
	.loc 2 53 0
	cbz	w0, .L35
.L21:
	.loc 2 239 0
	mov	w0, w19
	ldr	x19, [sp, 16]
	ldp	x29, x30, [sp], 176
	.cfi_remember_state
	.cfi_restore 30
	.cfi_restore 29
	.cfi_restore 19
	.cfi_def_cfa 31, 0
	ret
.L35:
	.cfi_restore_state
	stp	x20, x21, [x29, 24]
	.cfi_offset 21, -144
	.cfi_offset 20, -152
	mov	w19, w0
.LBB455:
.LBB456:
	.loc 3 716 0
	// Start of user assembly
// 716 "D:\Pool\eclipse-workspace_aarch64\newspace\raspiOS\include/arch/common_aarch64/system_common_registers.h" 1
	mrs x0,TCR_EL1
	
// 0 "" 2
.LVL719:
	// End of user assembly
	ubfx	w0, w0, 16, 6
.LVL720:
.LBE456:
.LBE455:
.LBB457:
.LBB458:
	.loc 6 54 0
	mov	w21, 64
	sub	w0, w21, w0
	mov	x21, -1
	lsr	x21, x21, x0
	lsl	x21, x21, x0
.LBE458:
.LBE457:
	.loc 2 63 0
	// Start of user assembly
// 63 "D:/Pool/eclipse-workspace_aarch64/newspace/raspiOS/src/arch/qemu_virt/main_run_user_application.cpp" 1
	mov x0,sp 
	orr x0,x0,x21 
	mov sp,x0 
	orr x29,x29, x21 
	
// 0 "" 2
.LVL721:
	.loc 2 68 0
	// End of user assembly
	adrp	x0, mainStart
	add	x0, x0, :lo12:mainStart
	orr	x0, x21, x0
.LBB459:
.LBB460:
	.loc 3 631 0
	mov	x1, 0
	bfi	x1, x0, 0, 64
	// Start of user assembly
// 631 "D:\Pool\eclipse-workspace_aarch64\newspace\raspiOS\include/arch/common_aarch64/system_common_registers.h" 1
	br x1
	
// 0 "" 2
.LVL722:
.LDL3:
	// End of user assembly
.LBE460:
.LBE459:
	.loc 2 70 0
	// Start of user assembly
// 70 "D:/Pool/eclipse-workspace_aarch64/newspace/raspiOS/src/arch/qemu_virt/main_run_user_application.cpp" 1
	mainStart:
	
// 0 "" 2
	.loc 2 72 0
	// End of user assembly
	mov	w2, 40
	mov	x1, 0
	add	x0, x29, 144
	bl	_ZN14VirtualAddressC1Emh
.LVL723:
	.loc 2 73 0
	mov	w1, 0
	add	x0, x29, 144
	bl	_ZN14VirtualAddress7ttbrSelEi
.LVL724:
	.loc 2 74 0
	mov	w2, 40
	mov	x1, 0
	add	x0, x29, 128
	bl	_ZN14VirtualAddressC1Emh
.LVL725:
	.loc 2 75 0
	mov	w1, 0
	add	x0, x29, 128
	bl	_ZN14VirtualAddress7ttbrSelEi
.LVL726:
	.loc 2 76 0
	mov	w2, 0
	mov	w1, 0
	add	x0, x29, 128
	bl	_ZN14VirtualAddress5indexEhj
.LVL727:
	.loc 2 77 0
	mov	w2, 0
	mov	w1, 1
	add	x0, x29, 128
	bl	_ZN14VirtualAddress5indexEhj
.LVL728:
	.loc 2 78 0
	mov	w2, 0
	mov	w1, 2
	add	x0, x29, 128
	bl	_ZN14VirtualAddress5indexEhj
.LVL729:
	.loc 2 79 0
	mov	w2, 510
	mov	w1, 3
	add	x0, x29, 128
	bl	_ZN14VirtualAddress5indexEhj
.LVL730:
	.loc 2 83 0
	add	x0, x29, 128
	bl	_ZNK14VirtualAddress4addrEv
.LVL731:
.LBB461:
.LBB462:
	.loc 3 461 0
	mov	x1, 0
	bfi	x1, x0, 0, 64
	// Start of user assembly
// 461 "D:\Pool\eclipse-workspace_aarch64\newspace\raspiOS\include/arch/common_aarch64/system_common_registers.h" 1
	msr SP_EL0,x1 
	
// 0 "" 2
.LVL732:
	// End of user assembly
.LBE462:
.LBE461:
	.loc 2 88 0
	adrp	x1, ramStart
	add	x1, x1, :lo12:ramStart
	.loc 2 91 0
	adrp	x20, mman
	add	x20, x20, :lo12:mman
	mov	w3, 1
	adrp	x2, ramEnd
	add	x2, x2, :lo12:ramEnd
	sub	x2, x2, x1
	orr	x1, x1, x21
	mov	x0, x20
.LVL733:
	bl	_ZN13MemoryManagerC1EPvmb
.LVL734:
	.loc 2 98 0
	mov	x2, 4096
	mov	x1, 20480
	mov	x0, x20
	bl	_ZN13MemoryManager8allocateEmm
.LVL735:
	mov	x20, x0
.LVL736:
	.loc 2 99 0
	cbz	x0, .L36
	stp	x22, x23, [x29, 40]
	.cfi_offset 23, -128
	.cfi_offset 22, -136
	stp	x24, x25, [x29, 56]
	.cfi_offset 25, -112
	.cfi_offset 24, -120
	str	x26, [x29, 72]
	.cfi_offset 26, -104
	.loc 2 104 0
	adrp	x22, kout
	add	x22, x22, :lo12:kout
	adrp	x1, .LC142
	add	x1, x1, :lo12:.LC142
	mov	x0, x22
.LVL737:
	bl	_ZN6OutputlsEPKc
.LVL738:
	mov	x1, x20
	bl	_ZN6OutputlsEPKv
.LVL739:
	adrp	x23, .LC16
	add	x23, x23, :lo12:.LC16
	mov	x1, x23
	bl	_ZN6OutputlsEPKc
.LVL740:
	.loc 2 108 0
	mov	x2, 20480
	orr	x1, x21, 524288
.LVL741:
	mov	x0, x20
	bl	memcpy
.LVL742:
	.loc 2 110 0
	adrp	x1, .LC143
	add	x1, x1, :lo12:.LC143
	mov	x0, x22
	bl	_ZN6OutputlsEPKc
.LVL743:
	.loc 2 111 0
	mov	x2, 200
	mov	x1, x20
	mov	x0, x22
	bl	_ZN6Output5printEPKcm
.LVL744:
	.loc 2 112 0
	mov	x1, x23
	mov	x0, x22
	bl	_ZN6OutputlsEPKc
.LVL745:
.LBB463:
.LBB464:
	.file 7 "D:\\Pool\\eclipse-workspace_aarch64\\newspace\\raspiOS\\include/templates_implementation/MemoryManager.h"
	.loc 7 22 0
	adrp	x26, mman
	add	x26, x26, :lo12:mman
	mov	x2, 4096
	mov	x1, x2
	mov	x0, x26
	bl	_ZN13MemoryManager8allocateEmm
.LVL746:
	mov	x22, x0
.LVL747:
.LBE464:
.LBE463:
.LBB465:
.LBB466:
	mov	x2, 4096
	mov	x1, x2
	mov	x0, x26
	bl	_ZN13MemoryManager8allocateEmm
.LVL748:
	mov	x23, x0
.LVL749:
.LBE466:
.LBE465:
.LBB467:
.LBB468:
	mov	x2, 4096
	mov	x1, x2
	mov	x0, x26
	bl	_ZN13MemoryManager8allocateEmm
.LVL750:
	mov	x24, x0
.LVL751:
.LBE468:
.LBE467:
.LBB469:
.LBB470:
	mov	x2, 4096
	mov	x1, x2
	mov	x0, x26
	bl	_ZN13MemoryManager8allocateEmm
.LVL752:
	mov	x21, x0
.LVL753:
.LBE470:
.LBE469:
	.loc 2 129 0
	mov	x2, 4096
	mov	x1, 8192
	mov	x0, x26
	bl	_ZN13MemoryManager8allocateEmm
.LVL754:
	mov	x25, x0
.LVL755:
	.loc 2 131 0
	mov	x2, 4096
	mov	x1, 8192
	mov	x0, x26
.LVL756:
	bl	_ZN13MemoryManager8allocateEmm
.LVL757:
	.loc 2 132 0
	cmp	x22, 0
	ccmp	x23, 0, 4, ne
	beq	.L24
	.loc 2 132 0 is_stmt 0 discriminator 1
	cmp	x24, 0
	ccmp	x21, 0, 4, ne
	beq	.L24
	.loc 2 132 0 discriminator 2
	cmp	x0, 0
	ccmp	x25, 0, 4, ne
	beq	.L24
	.loc 2 137 0 is_stmt 1
	mov	x1, x22
.LVL758:
.LBB471:
.LBB472:
	.loc 4 58 0
	// Start of user assembly
// 58 "D:\Pool\eclipse-workspace_aarch64\newspace\raspiOS\include/asm_instructions.h" 1
	at S1E1R,x22 
	
// 0 "" 2
	// End of user assembly
.LBB473:
.LBB474:
	.loc 3 1034 0
	// Start of user assembly
// 1034 "D:\Pool\eclipse-workspace_aarch64\newspace\raspiOS\include/arch/common_aarch64/system_common_registers.h" 1
	mrs x2,PAR_EL1
	
// 0 "" 2
.LVL759:
	// End of user assembly
.LBE474:
.LBE473:
.LBE472:
.LBE471:
	.loc 2 140 0
	lsr	x2, x2, 1
.LVL760:
	and	x2, x2, 140737488353280
.LVL761:
.LBB475:
.LBB476:
	.loc 3 937 0
	mov	x3, 0
	bfi	x3, x2, 1, 63
	// Start of user assembly
// 937 "D:\Pool\eclipse-workspace_aarch64\newspace\raspiOS\include/arch/common_aarch64/system_common_registers.h" 1
	msr TTBR0_EL1,x3 
	
// 0 "" 2
.LVL762:
	// End of user assembly
	mov	x7, x21
	add	x6, x22, 4096
	mov	x5, x21
	mov	x4, x24
	mov	x3, x23
.LVL763:
.L26:
.LBE476:
.LBE475:
.LBB477:
	.loc 2 146 0 discriminator 2
	ldrb	w2, [x1]
	and	w2, w2, -2
	strb	w2, [x1], 8
	.loc 2 147 0 discriminator 2
	ldrb	w2, [x3]
	and	w2, w2, -2
	strb	w2, [x3], 8
	.loc 2 148 0 discriminator 2
	ldrb	w2, [x4]
	and	w2, w2, -2
	strb	w2, [x4], 8
	.loc 2 149 0 discriminator 2
	ldrb	w2, [x5]
	and	w2, w2, -2
	strb	w2, [x5], 8
	.loc 2 144 0 discriminator 2
	cmp	x1, x6
	bne	.L26
.LBE477:
	.loc 2 152 0
	str	xzr, [x22]
	.loc 2 154 0
	mov	w1, 3
	strb	w1, [x22]
.LVL764:
.LBB478:
.LBB479:
	.loc 4 58 0
	// Start of user assembly
// 58 "D:\Pool\eclipse-workspace_aarch64\newspace\raspiOS\include/asm_instructions.h" 1
	at S1E1R,x23 
	
// 0 "" 2
	// End of user assembly
.LBB480:
.LBB481:
	.loc 3 1034 0
	// Start of user assembly
// 1034 "D:\Pool\eclipse-workspace_aarch64\newspace\raspiOS\include/arch/common_aarch64/system_common_registers.h" 1
	mrs x2,PAR_EL1
	
// 0 "" 2
.LVL765:
	// End of user assembly
	ubfx	x3, x2, 12, 36
	ubfx	x1, x2, 48, 4
.LVL766:
.LBE481:
.LBE480:
.LBE479:
.LBE478:
	.loc 2 156 0
	tbnz	x2, 0, .L37
	stp	x27, x28, [x29, 80]
	.cfi_offset 28, -88
	.cfi_offset 27, -96
	.loc 2 161 0
	ubfiz	x1, x1, 36, 4
.LVL767:
	orr	x1, x1, x3
	ldr	x2, [x22]
.LVL768:
	bfi	x2, x1, 12, 36
	str	x2, [x22]
	.loc 2 164 0
	ldrb	w1, [x23]
	.loc 2 165 0
	orr	w1, w1, 3
	strb	w1, [x23]
.LVL769:
.LBB482:
.LBB483:
	.loc 4 58 0
	// Start of user assembly
// 58 "D:\Pool\eclipse-workspace_aarch64\newspace\raspiOS\include/asm_instructions.h" 1
	at S1E1R,x24 
	
// 0 "" 2
	// End of user assembly
.LBB484:
.LBB485:
	.loc 3 1034 0
	// Start of user assembly
// 1034 "D:\Pool\eclipse-workspace_aarch64\newspace\raspiOS\include/arch/common_aarch64/system_common_registers.h" 1
	mrs x1,PAR_EL1
	
// 0 "" 2
.LVL770:
	// End of user assembly
.LBE485:
.LBE484:
.LBE483:
.LBE482:
	.loc 2 167 0
	ubfx	x1, x1, 12, 40
.LVL771:
	ldr	x2, [x23]
	bfi	x2, x1, 12, 36
	str	x2, [x23]
	.loc 2 170 0
	ldrb	w1, [x24]
	.loc 2 171 0
	orr	w1, w1, 3
	strb	w1, [x24]
.LVL772:
.LBB486:
.LBB487:
	.loc 4 58 0
	// Start of user assembly
// 58 "D:\Pool\eclipse-workspace_aarch64\newspace\raspiOS\include/asm_instructions.h" 1
	at S1E1R,x21 
	
// 0 "" 2
	// End of user assembly
.LBB488:
.LBB489:
	.loc 3 1034 0
	// Start of user assembly
// 1034 "D:\Pool\eclipse-workspace_aarch64\newspace\raspiOS\include/arch/common_aarch64/system_common_registers.h" 1
	mrs x1,PAR_EL1
	
// 0 "" 2
.LVL773:
	// End of user assembly
.LBE489:
.LBE488:
.LBE487:
.LBE486:
	.loc 2 173 0
	ubfx	x1, x1, 12, 40
.LVL774:
	ldr	x2, [x24]
	bfi	x2, x1, 12, 36
	str	x2, [x24]
.LVL775:
.LBB490:
.LBB491:
	.loc 4 58 0
	// Start of user assembly
// 58 "D:\Pool\eclipse-workspace_aarch64\newspace\raspiOS\include/asm_instructions.h" 1
	at S1E1R,x20 
	
// 0 "" 2
	// End of user assembly
.LBB492:
.LBB493:
	.loc 3 1034 0
	// Start of user assembly
// 1034 "D:\Pool\eclipse-workspace_aarch64\newspace\raspiOS\include/arch/common_aarch64/system_common_registers.h" 1
	mrs x1,PAR_EL1
	
// 0 "" 2
.LVL776:
	// End of user assembly
	ubfx	x1, x1, 12, 36
.LVL777:
	add	x3, x1, 5
	and	x3, x3, 68719476735
.LVL778:
.L28:
.LBE493:
.LBE492:
.LBE491:
.LBE490:
.LBB494:
	.loc 2 179 0 discriminator 2
	str	xzr, [x7]
	.loc 2 183 0 discriminator 2
	mov	w2, 12
	strb	w2, [x7, 1]
	.loc 2 185 0 discriminator 2
	mov	w2, 16
	strb	w2, [x7, 6]
	.loc 2 186 0 discriminator 2
	mov	w2, -29
	strb	w2, [x7]
	.loc 2 187 0 discriminator 2
	ldr	x2, [x7]
	bfi	x2, x1, 12, 36
	str	x2, [x7], 8
	add	x1, x1, 1
	and	x1, x1, 68719476735
	.loc 2 177 0 discriminator 2
	cmp	x1, x3
	bne	.L28
.LVL779:
.LBE494:
.LBB495:
.LBB496:
	.loc 4 58 0
	// Start of user assembly
// 58 "D:\Pool\eclipse-workspace_aarch64\newspace\raspiOS\include/asm_instructions.h" 1
	at S1E1R,x0 
	
// 0 "" 2
	// End of user assembly
.LBB497:
.LBB498:
	.loc 3 1034 0
	// Start of user assembly
// 1034 "D:\Pool\eclipse-workspace_aarch64\newspace\raspiOS\include/arch/common_aarch64/system_common_registers.h" 1
	mrs x0,PAR_EL1
	
// 0 "" 2
.LVL780:
	// End of user assembly
.LBE498:
.LBE497:
.LBE496:
.LBE495:
.LBB499:
	.loc 2 200 0
	ubfx	x0, x0, 12, 40
.LVL781:
	.loc 2 192 0
	str	xzr, [x21, 4064]
	.loc 2 196 0
	mov	w1, 12
	strb	w1, [x21, 4065]
	.loc 2 199 0
	mov	w2, 35
	mov	w1, 1
	bfi	w2, w1, 6, 2
	strb	w2, [x21, 4064]
	.loc 2 200 0
	ldr	x2, [x21, 4064]
	bfi	x2, x0, 12, 36
	str	x2, [x21, 4064]
.LVL782:
	.loc 2 192 0
	str	xzr, [x21, 4072]
	.loc 2 196 0
	mov	w2, 12
	strb	w2, [x21, 4073]
	.loc 2 199 0
	mov	w2, 35
	bfi	w2, w1, 6, 2
	strb	w2, [x21, 4072]
	.loc 2 200 0
	add	x0, x0, 1
	ldr	x2, [x21, 4072]
	bfi	x2, x0, 12, 36
	str	x2, [x21, 4072]
.LVL783:
.LBE499:
.LBB500:
.LBB501:
	.loc 4 58 0
	// Start of user assembly
// 58 "D:\Pool\eclipse-workspace_aarch64\newspace\raspiOS\include/asm_instructions.h" 1
	at S1E1R,x25 
	
// 0 "" 2
	// End of user assembly
.LBB502:
.LBB503:
	.loc 3 1034 0
	// Start of user assembly
// 1034 "D:\Pool\eclipse-workspace_aarch64\newspace\raspiOS\include/arch/common_aarch64/system_common_registers.h" 1
	mrs x0,PAR_EL1
	
// 0 "" 2
.LVL784:
	// End of user assembly
.LBE503:
.LBE502:
.LBE501:
.LBE500:
.LBB504:
	.loc 2 214 0
	ubfx	x0, x0, 12, 40
.LVL785:
	.loc 2 206 0
	str	xzr, [x21, 4080]
	.loc 2 210 0
	mov	w2, 12
	strb	w2, [x21, 4081]
	.loc 2 213 0
	mov	w2, 35
	bfi	w2, w1, 6, 2
	strb	w2, [x21, 4080]
	.loc 2 214 0
	ldr	x2, [x21, 4080]
	bfi	x2, x0, 12, 36
	str	x2, [x21, 4080]
.LVL786:
	.loc 2 206 0
	str	xzr, [x21, 4088]
	.loc 2 210 0
	mov	w2, 12
	strb	w2, [x21, 4089]
	.loc 2 213 0
	mov	w2, 35
	bfi	w2, w1, 6, 2
	strb	w2, [x21, 4088]
	.loc 2 214 0
	add	x0, x0, 1
	ldr	x1, [x21, 4088]
	bfi	x1, x0, 12, 36
	str	x1, [x21, 4088]
.LVL787:
.LBE504:
.LBB505:
.LBB506:
	.loc 4 58 0
	mov	x0, 0
	// Start of user assembly
// 58 "D:\Pool\eclipse-workspace_aarch64\newspace\raspiOS\include/asm_instructions.h" 1
	at S1E1R,x0 
	
// 0 "" 2
	// End of user assembly
.LBB507:
.LBB508:
	.loc 3 1034 0
	// Start of user assembly
// 1034 "D:\Pool\eclipse-workspace_aarch64\newspace\raspiOS\include/arch/common_aarch64/system_common_registers.h" 1
	mrs x0,PAR_EL1
	
// 0 "" 2
.LVL788:
	// End of user assembly
	mov	x20, x0
.LVL789:
	ubfx	x28, x0, 0, 1
	and	w22, w28, 255
	ubfx	x27, x0, 1, 6
	and	w21, w27, 255
	ubfx	x26, x0, 9, 1
	and	w3, w26, 255
	ubfx	x25, x0, 10, 1
.LVL790:
	and	w2, w25, 255
	ubfx	x1, x0, 11, 1
	strb	w1, [x29, 120]
	and	w1, w1, 255
	ubfx	x24, x0, 12, 36
	ubfx	x4, x0, 48, 4
	str	x4, [x29, 112]
	ubfx	x4, x0, 52, 4
	str	x4, [x29, 104]
	lsr	x23, x0, 56
.LVL791:
.LBE508:
.LBE507:
.LBE506:
.LBE505:
	.loc 2 220 0
	bfi	x20, x22, 0, 1
	bfi	x20, x21, 1, 6
	bfi	x20, x3, 9, 1
	bfi	x20, x2, 10, 1
	bfi	x20, x1, 11, 1
	bfi	x20, x24, 12, 36
	ubfx	x1, x0, 48, 4
	bfi	x20, x1, 48, 4
	bfi	x20, x4, 52, 4
	bfi	x20, x23, 56, 8
.LVL792:
.LBB509:
.LBB510:
	.loc 3 998 0
	adrp	x1, .LC146
	add	x1, x1, :lo12:.LC146
	adrp	x0, kout
.LVL793:
	add	x0, x0, :lo12:kout
	bl	_ZN6OutputlsEPKc
.LVL794:
	.loc 3 999 0
	bfi	x20, x22, 0, 1
.LVL795:
	bfi	x20, x21, 1, 6
	tbnz	x20, 0, .L29
	.loc 3 1002 0
	adrp	x1, .LC147
	add	x1, x1, :lo12:.LC147
	adrp	x0, kout
	add	x0, x0, :lo12:kout
	bl	_ZN6OutputlsEPKc
.LVL796:
	and	x1, x28, 1
	bl	_ZN6OutputlsEm
.LVL797:
	adrp	x21, .LC7
	add	x21, x21, :lo12:.LC7
	mov	x1, x21
	bl	_ZN6OutputlsEPKc
.LVL798:
	.loc 3 1003 0
	adrp	x1, .LC85
	add	x1, x1, :lo12:.LC85
	bl	_ZN6OutputlsEPKc
.LVL799:
	and	x1, x27, 63
	bl	_ZN6OutputlsEm
.LVL800:
	mov	x1, x21
	bl	_ZN6OutputlsEPKc
.LVL801:
	.loc 3 1004 0
	adrp	x1, .LC82
	add	x1, x1, :lo12:.LC82
	bl	_ZN6OutputlsEPKc
.LVL802:
	ubfx	x1, x20, 7, 2
	bl	_ZN6OutputlsEm
.LVL803:
	mov	x1, x21
	bl	_ZN6OutputlsEPKc
.LVL804:
	.loc 3 1005 0
	adrp	x1, .LC80
	add	x1, x1, :lo12:.LC80
	bl	_ZN6OutputlsEPKc
.LVL805:
	and	x1, x26, 1
	bl	_ZN6OutputlsEm
.LVL806:
	mov	x1, x21
	bl	_ZN6OutputlsEPKc
.LVL807:
	.loc 3 1006 0
	adrp	x1, .LC148
	add	x1, x1, :lo12:.LC148
	bl	_ZN6OutputlsEPKc
.LVL808:
	and	x1, x25, 1
	bl	_ZN6OutputlsEm
.LVL809:
	mov	x1, x21
	bl	_ZN6OutputlsEPKc
.LVL810:
	.loc 3 1007 0
	adrp	x1, .LC149
	add	x1, x1, :lo12:.LC149
	bl	_ZN6OutputlsEPKc
.LVL811:
	ldr	x1, [x29, 120]
	and	x1, x1, 1
	bl	_ZN6OutputlsEm
.LVL812:
	mov	x1, x21
	bl	_ZN6OutputlsEPKc
.LVL813:
	.loc 3 1008 0
	adrp	x1, .LC150
	add	x1, x1, :lo12:.LC150
	bl	_ZN6OutputlsEPKc
.LVL814:
.LBB511:
.LBB512:
.LBB513:
	.loc 1 17 0
	add	x1, x29, 176
	str	x24, [x1, -8]!
.LVL815:
.LBE513:
.LBE512:
.LBE511:
	.loc 3 1008 0
	bl	_ZlsILi16EER6OutputS1_RK16IntegerFormatterIXT_EE
.LVL816:
	mov	x1, x21
	bl	_ZN6OutputlsEPKc
.LVL817:
	.loc 3 1009 0
	adrp	x1, .LC151
	add	x1, x1, :lo12:.LC151
	bl	_ZN6OutputlsEPKc
.LVL818:
	ldrb	w2, [x29, 112]
.LVL819:
	add	x1, x29, 176
	str	x2, [x1, -16]!
.LVL820:
	bl	_ZlsILi16EER6OutputS1_RK16IntegerFormatterIXT_EE
.LVL821:
	mov	x1, x21
	bl	_ZN6OutputlsEPKc
.LVL822:
	.loc 3 1010 0
	adrp	x1, .LC152
	add	x1, x1, :lo12:.LC152
	bl	_ZN6OutputlsEPKc
.LVL823:
	ldr	x1, [x29, 104]
	and	x1, x1, 15
	bl	_ZN6OutputlsEm
.LVL824:
	mov	x1, x21
	bl	_ZN6OutputlsEPKc
.LVL825:
	.loc 3 1011 0
	adrp	x1, .LC153
	add	x1, x1, :lo12:.LC153
	bl	_ZN6OutputlsEPKc
.LVL826:
	and	x1, x23, 255
	bl	_ZN6OutputlsEm
.LVL827:
.L30:
	.loc 3 1028 0
	adrp	x20, .LC16
.LVL828:
	add	x20, x20, :lo12:.LC16
	adrp	x21, kout
	add	x21, x21, :lo12:kout
	mov	x1, x20
	mov	x0, x21
	bl	_ZN6OutputlsEPKc
.LVL829:
.LBE510:
.LBE509:
	.loc 2 223 0
	adrp	x1, .LC165
	add	x1, x1, :lo12:.LC165
	mov	x0, x21
	bl	_ZN6OutputlsEPKc
.LVL830:
	mov	x21, x0
	add	x0, x29, 128
	bl	_ZNK14VirtualAddress4addrEv
.LVL831:
	mov	x1, x0
	mov	x0, x21
	bl	_ZN6OutputlsEm
.LVL832:
	mov	x1, x20
	bl	_ZN6OutputlsEPKc
.LVL833:
	.loc 2 230 0
	add	x0, x29, 144
	bl	_ZNK14VirtualAddress4addrEv
.LVL834:
.LBB515:
.LBB516:
	.loc 3 94 0
	mov	x1, 0
	bfi	x1, x0, 0, 64
	// Start of user assembly
// 94 "D:\Pool\eclipse-workspace_aarch64\newspace\raspiOS\include/arch/common_aarch64/system_common_registers.h" 1
	msr ELR_EL1,x1 
	
// 0 "" 2
.LVL835:
	// End of user assembly
.LBE516:
.LBE515:
.LBB517:
.LBB518:
	.loc 3 311 0
	// Start of user assembly
// 311 "D:\Pool\eclipse-workspace_aarch64\newspace\raspiOS\include/arch/common_aarch64/system_common_registers.h" 1
	mrs x0,SPSR_EL1
	
// 0 "" 2
.LVL836:
	// End of user assembly
.LBE518:
.LBE517:
.LBB519:
.LBB520:
	.loc 3 313 0
	and	w0, w0, -2
.LVL837:
	and	w0, w0, -13
	// Start of user assembly
// 313 "D:\Pool\eclipse-workspace_aarch64\newspace\raspiOS\include/arch/common_aarch64/system_common_registers.h" 1
	msr SPSR_EL1,x0 
	
// 0 "" 2
.LVL838:
	// End of user assembly
.LBE520:
.LBE519:
.LBB521:
.LBB522:
	.loc 4 54 0
	// Start of user assembly
// 54 "D:\Pool\eclipse-workspace_aarch64\newspace\raspiOS\include/asm_instructions.h" 1
	eret 
	
// 0 "" 2
	// End of user assembly
.LBE522:
.LBE521:
	.loc 2 238 0
	ldp	x20, x21, [x29, 24]
	.cfi_restore 21
	.cfi_restore 20
	ldp	x22, x23, [x29, 40]
	.cfi_restore 23
	.cfi_restore 22
.LVL839:
	ldp	x24, x25, [x29, 56]
	.cfi_restore 25
	.cfi_restore 24
.LVL840:
	ldp	x26, x27, [x29, 72]
	.cfi_restore 27
	.cfi_restore 26
.LVL841:
	ldr	x28, [x29, 88]
	.cfi_restore 28
.LVL842:
	b	.L21
.LVL843:
.L36:
	.cfi_offset 20, -152
	.cfi_offset 21, -144
	.loc 2 101 0
	adrp	x1, .LC3
	add	x1, x1, :lo12:.LC3
	adrp	x0, kout
.LVL844:
	add	x0, x0, :lo12:kout
	bl	_ZN6OutputlsEPKc
.LVL845:
	adrp	x1, .LC141
	add	x1, x1, :lo12:.LC141
	bl	_ZN6OutputlsEPKc
.LVL846:
	.loc 2 102 0
	mov	w19, 1
	ldp	x20, x21, [x29, 24]
	.cfi_restore 21
	.cfi_restore 20
.LVL847:
	b	.L21
.LVL848:
.L24:
	.cfi_offset 20, -152
	.cfi_offset 21, -144
	.cfi_offset 22, -136
	.cfi_offset 23, -128
	.cfi_offset 24, -120
	.cfi_offset 25, -112
	.cfi_offset 26, -104
	.loc 2 134 0
	adrp	x1, .LC3
	add	x1, x1, :lo12:.LC3
	adrp	x0, kout
.LVL849:
	add	x0, x0, :lo12:kout
	bl	_ZN6OutputlsEPKc
.LVL850:
	adrp	x1, .LC144
	add	x1, x1, :lo12:.LC144
	bl	_ZN6OutputlsEPKc
.LVL851:
	.loc 2 135 0
	mov	w19, 1
	ldp	x20, x21, [x29, 24]
	.cfi_remember_state
	.cfi_restore 21
	.cfi_restore 20
.LVL852:
	ldp	x22, x23, [x29, 40]
	.cfi_restore 23
	.cfi_restore 22
	ldp	x24, x25, [x29, 56]
	.cfi_restore 25
	.cfi_restore 24
.LVL853:
	ldr	x26, [x29, 72]
	.cfi_restore 26
	b	.L21
.LVL854:
.L37:
	.cfi_restore_state
	.loc 2 158 0
	adrp	x1, .LC3
.LVL855:
	add	x1, x1, :lo12:.LC3
	adrp	x0, kout
.LVL856:
	add	x0, x0, :lo12:kout
	bl	_ZN6OutputlsEPKc
.LVL857:
	adrp	x1, .LC145
	add	x1, x1, :lo12:.LC145
	bl	_ZN6OutputlsEPKc
.LVL858:
	.loc 2 159 0
	mov	w19, 1
	ldp	x20, x21, [x29, 24]
	.cfi_restore 21
	.cfi_restore 20
.LVL859:
	ldp	x22, x23, [x29, 40]
	.cfi_restore 23
	.cfi_restore 22
	ldp	x24, x25, [x29, 56]
	.cfi_restore 25
	.cfi_restore 24
.LVL860:
	ldr	x26, [x29, 72]
	.cfi_restore 26
	b	.L21
.LVL861:
.L29:
	.cfi_offset 20, -152
	.cfi_offset 21, -144
	.cfi_offset 22, -136
	.cfi_offset 23, -128
	.cfi_offset 24, -120
	.cfi_offset 25, -112
	.cfi_offset 26, -104
	.cfi_offset 27, -96
	.cfi_offset 28, -88
.LBB523:
.LBB514:
	.loc 3 1016 0
	adrp	x1, .LC154
	add	x1, x1, :lo12:.LC154
	adrp	x0, kout
	add	x0, x0, :lo12:kout
	bl	_ZN6OutputlsEPKc
.LVL862:
	and	x1, x28, 1
	bl	_ZN6OutputlsEm
.LVL863:
	adrp	x21, .LC7
	add	x21, x21, :lo12:.LC7
	mov	x1, x21
	bl	_ZN6OutputlsEPKc
.LVL864:
	.loc 3 1017 0
	adrp	x1, .LC155
	add	x1, x1, :lo12:.LC155
	bl	_ZN6OutputlsEPKc
.LVL865:
	and	x1, x27, 63
	bl	_ZN6OutputlsEm
.LVL866:
	mov	x1, x21
	bl	_ZN6OutputlsEPKc
.LVL867:
	.loc 3 1018 0
	adrp	x1, .LC156
	add	x1, x1, :lo12:.LC156
	bl	_ZN6OutputlsEPKc
.LVL868:
	ubfx	x1, x20, 7, 1
	bl	_ZN6OutputlsEm
.LVL869:
	mov	x1, x21
	bl	_ZN6OutputlsEPKc
.LVL870:
	.loc 3 1019 0
	adrp	x1, .LC157
	add	x1, x1, :lo12:.LC157
	bl	_ZN6OutputlsEPKc
.LVL871:
	ubfx	x1, x20, 8, 1
	bl	_ZN6OutputlsEm
.LVL872:
	mov	x1, x21
	bl	_ZN6OutputlsEPKc
.LVL873:
	.loc 3 1020 0
	adrp	x1, .LC158
	add	x1, x1, :lo12:.LC158
	bl	_ZN6OutputlsEPKc
.LVL874:
	and	x1, x26, 1
	bl	_ZN6OutputlsEm
.LVL875:
	mov	x1, x21
	bl	_ZN6OutputlsEPKc
.LVL876:
	.loc 3 1021 0
	adrp	x1, .LC159
	add	x1, x1, :lo12:.LC159
	bl	_ZN6OutputlsEPKc
.LVL877:
	and	x1, x25, 1
	bl	_ZN6OutputlsEm
.LVL878:
	mov	x1, x21
	bl	_ZN6OutputlsEPKc
.LVL879:
	.loc 3 1022 0
	adrp	x1, .LC160
	add	x1, x1, :lo12:.LC160
	bl	_ZN6OutputlsEPKc
.LVL880:
	ldr	x1, [x29, 120]
	and	x1, x1, 1
	bl	_ZN6OutputlsEm
.LVL881:
	mov	x1, x21
	bl	_ZN6OutputlsEPKc
.LVL882:
	.loc 3 1023 0
	adrp	x1, .LC161
	add	x1, x1, :lo12:.LC161
	bl	_ZN6OutputlsEPKc
.LVL883:
	mov	x1, x24
	bl	_ZN6OutputlsEm
.LVL884:
	mov	x1, x21
	bl	_ZN6OutputlsEPKc
.LVL885:
	.loc 3 1024 0
	adrp	x1, .LC162
	add	x1, x1, :lo12:.LC162
	bl	_ZN6OutputlsEPKc
.LVL886:
	ldr	x1, [x29, 112]
	and	x1, x1, 15
	bl	_ZN6OutputlsEm
.LVL887:
	mov	x1, x21
	bl	_ZN6OutputlsEPKc
.LVL888:
	.loc 3 1025 0
	adrp	x1, .LC163
	add	x1, x1, :lo12:.LC163
	bl	_ZN6OutputlsEPKc
.LVL889:
	ldr	x1, [x29, 104]
	and	x1, x1, 15
	bl	_ZN6OutputlsEm
.LVL890:
	mov	x1, x21
	bl	_ZN6OutputlsEPKc
.LVL891:
	.loc 3 1026 0
	adrp	x1, .LC164
	add	x1, x1, :lo12:.LC164
	bl	_ZN6OutputlsEPKc
.LVL892:
	and	x1, x23, 255
	bl	_ZN6OutputlsEm
.LVL893:
	b	.L30
.LBE514:
.LBE523:
	.cfi_endproc
.LFE272:
	.size	main, .-main
	.section	.rodata
	.align	3
	.set	.LANCHOR0,. + 0
.LC0:
	.word	32
	.word	36
	.word	40
	.word	42
	.word	44
	.word	48
	.word	52
	.zero	4
.LC2:
	.word	1
	.word	1
	.word	0
	.word	0
	.word	0
	.word	0
	.word	2147483647
	.section	.rodata.str1.8,"aMS",@progbits,1
	.align	3
.LC3:
	.string	"[FATAL] "
	.zero	7
.LC4:
	.string	" Not at EL1 \n"
	.zero	2
.LC5:
	.string	"ID_AA64MMFR0_EL1 : "
	.zero	4
.LC6:
	.string	"PARange = "
	.zero	5
.LC7:
	.string	","
	.zero	6
.LC8:
	.string	"ASIDBits = "
	.zero	4
.LC9:
	.string	"BigEnd = "
	.zero	6
.LC10:
	.string	"SNSMem = "
	.zero	6
.LC11:
	.string	"BigEndEL0 = "
	.zero	3
.LC12:
	.string	"TGran16 = "
	.zero	5
.LC13:
	.string	"TGran64 = "
	.zero	5
.LC14:
	.string	"TGran4 = "
	.zero	6
.LC15:
	.string	"RES0 = "
.LC16:
	.string	"\n"
	.zero	6
.LC17:
	.string	"4KB granule is not supported\n"
	.zero	2
.LC18:
	.string	"PARange not supported\n"
	.zero	1
.LC19:
	.string	"[INFO] "
.LC20:
	.string	"PARange is 52, we need to reduce it to 48\n"
	.zero	5
.LC21:
	.string	"Initial level not at 0,which this program designed for specifically."
	.zero	3
.LC22:
	.string	"end of main overflows, meaning that it may not be flatten mapped.\n"
	.zero	5
.LC23:
	.string	"L0Table = "
	.zero	5
.LC24:
	.string	"L1Table = "
	.zero	5
.LC25:
	.string	"TTBR0_EL1 : "
	.zero	3
.LC26:
	.string	"CnP = "
	.zero	1
.LC27:
	.string	"BADDR = "
	.zero	7
.LC28:
	.string	"ASID = "
.LC29:
	.string	"TTBR1_EL1 : "
	.zero	3
.LC30:
	.string	"TCR_EL1 : "
	.zero	5
.LC31:
	.string	"T0SZ = "
.LC32:
	.string	"RES0_0 = "
	.zero	6
.LC33:
	.string	"EPD0 = "
.LC34:
	.string	"IRGN0 = "
	.zero	7
.LC35:
	.string	"ORGN0 = "
	.zero	7
.LC36:
	.string	"SH0 = "
	.zero	1
.LC37:
	.string	"TG0 = "
	.zero	1
.LC38:
	.string	"T1SZ = "
.LC39:
	.string	"A1 = "
	.zero	2
.LC40:
	.string	"EPD1 = "
.LC41:
	.string	"IRGN1 = "
	.zero	7
.LC42:
	.string	"ORGN1 = "
	.zero	7
.LC43:
	.string	"SH1 = "
	.zero	1
.LC44:
	.string	"TG1 = "
	.zero	1
.LC45:
	.string	"IPS = "
	.zero	1
.LC46:
	.string	"RES0_1 = "
	.zero	6
.LC47:
	.string	"AS = "
	.zero	2
.LC48:
	.string	"TBI0 = "
.LC49:
	.string	"TBI1 = "
.LC50:
	.string	"HA = "
	.zero	2
.LC51:
	.string	"HD = "
	.zero	2
.LC52:
	.string	"HPD0 = "
.LC53:
	.string	"HPD1 = "
.LC54:
	.string	"HWU059 = "
	.zero	6
.LC55:
	.string	"HWU060 = "
	.zero	6
.LC56:
	.string	"HWU061 = "
	.zero	6
.LC57:
	.string	"HWU062 = "
	.zero	6
.LC58:
	.string	"HWU159 = "
	.zero	6
.LC59:
	.string	"HWU160 = "
	.zero	6
.LC60:
	.string	"HWU161 = "
	.zero	6
.LC61:
	.string	"HWU162 = "
	.zero	6
.LC62:
	.string	"RES0_2 = "
	.zero	6
.LC63:
	.string	"NFD0 = "
.LC64:
	.string	"NFD1 = "
.LC65:
	.string	"RES0_3 = "
	.zero	6
.LC66:
	.string	"Descriptor4KBL0 : "
	.zero	5
.LC67:
	.string	"Valid = "
	.zero	7
.LC68:
	.string	"IsTable = "
	.zero	5
.LC69:
	.string	"Ignored_0 = "
	.zero	3
.LC70:
	.string	"NextLevelTableAddr = "
	.zero	2
.LC71:
	.string	"Ignored_1 = "
	.zero	3
.LC72:
	.string	"PXNTable = "
	.zero	4
.LC73:
	.string	"XNTable = "
	.zero	5
.LC74:
	.string	"APTable = "
	.zero	5
.LC75:
	.string	"NSTable = "
	.zero	5
.LC76:
	.string	"Descriptor4KBL1 : "
	.zero	5
.LC77:
	.string	"S0.Valid = "
	.zero	4
.LC78:
	.string	"S0.IsTable = "
	.zero	2
.LC79:
	.string	"S0.AttrIndex = "
.LC80:
	.string	"S0.NS = "
	.zero	7
.LC81:
	.string	"S0.AP = "
	.zero	7
.LC82:
	.string	"S0.SH = "
	.zero	7
.LC83:
	.string	"S0.AF = "
	.zero	7
.LC84:
	.string	"S0.nG = "
	.zero	7
.LC85:
	.string	"S0.RES0_0 = "
	.zero	3
.LC86:
	.string	"S0.OutputAddr = "
	.zero	7
.LC87:
	.string	"S0.RES0_1 = "
	.zero	3
.LC88:
	.string	"S0.Contiguous = "
	.zero	7
.LC89:
	.string	"S0.PXN = "
	.zero	6
.LC90:
	.string	"S0.UXN = "
	.zero	6
.LC91:
	.string	"S0.Reserved = "
	.zero	1
.LC92:
	.string	"S0.PBHA = "
	.zero	5
.LC93:
	.string	"S0.Ignored = "
	.zero	2
.LC94:
	.string	"S1.Valid = "
	.zero	4
.LC95:
	.string	"S1.IsTable = "
	.zero	2
.LC96:
	.string	"S1.Ignored_0 = "
.LC97:
	.string	"S1.NextLevelTableAddr = "
	.zero	7
.LC98:
	.string	"S1.RES0 = "
	.zero	5
.LC99:
	.string	"S1.Ignored_1 = "
.LC100:
	.string	"S1.PXNTable = "
	.zero	1
.LC101:
	.string	"S1.XNTable = "
	.zero	2
.LC102:
	.string	"S1.APTable = "
	.zero	2
.LC103:
	.string	"S1.NSTable = "
	.zero	2
.LC104:
	.string	"SCTLR_EL1 : "
	.zero	3
.LC105:
	.string	"M = "
	.zero	3
.LC106:
	.string	"A = "
	.zero	3
.LC107:
	.string	"C = "
	.zero	3
.LC108:
	.string	"SA = "
	.zero	2
.LC109:
	.string	"SA0 = "
	.zero	1
.LC110:
	.string	"CP15BEN = "
	.zero	5
.LC111:
	.string	"ITD = "
	.zero	1
.LC112:
	.string	"SED = "
	.zero	1
.LC113:
	.string	"UMA = "
	.zero	1
.LC114:
	.string	"RES1_2 = "
	.zero	6
.LC115:
	.string	"I = "
	.zero	3
.LC116:
	.string	"DZE = "
	.zero	1
.LC117:
	.string	"UCT = "
	.zero	1
.LC118:
	.string	"nTWI = "
.LC119:
	.string	"RES0_4 = "
	.zero	6
.LC120:
	.string	"nTWE = "
.LC121:
	.string	"WXN = "
	.zero	1
.LC122:
	.string	"RES1_5 = "
	.zero	6
.LC123:
	.string	"IESB = "
.LC124:
	.string	"RES1_6 = "
	.zero	6
.LC125:
	.string	"SPAN = "
.LC126:
	.string	"E0E = "
	.zero	1
.LC127:
	.string	"EE = "
	.zero	2
.LC128:
	.string	"UCI = "
	.zero	1
.LC129:
	.string	"RES0_7 = "
	.zero	6
.LC130:
	.string	"nTLSMD = "
	.zero	6
.LC131:
	.string	"LSMAOE = "
	.zero	6
.LC132:
	.string	"RES0_8 = "
	.zero	6
.LC133:
	.string	"PAN not supported\n"
	.zero	5
.LC134:
	.string	"PAN : "
	.zero	1
.LC135:
	.string	"PAN = "
	.zero	1
.LC136:
	.string	"Successfully set TTBR0\n"
.LC137:
	.string	"afterMMUSet = "
	.zero	1
.LC138:
	.string	"mainEnd = "
	.zero	5
.LC139:
	.string	"Successfully enabled MMU\n"
	.zero	6
.LC140:
	.string	"end enableMMU.\n"
.LC141:
	.string	"code pointer is nullptr \n"
	.zero	6
.LC142:
	.string	"codePtr = "
	.zero	5
.LC143:
	.string	"====code is \n"
	.zero	2
.LC144:
	.string	"a level of page table can not be allocated\n"
	.zero	4
.LC145:
	.string	"Address translation fault, can not get physical address \n"
	.zero	6
.LC146:
	.string	"PAR_EL1 : "
	.zero	5
.LC147:
	.string	"S0.F = "
.LC148:
	.string	"S0.IMP_DEF = "
	.zero	2
.LC149:
	.string	"S0.RES1_1 = "
	.zero	3
.LC150:
	.string	"S0.PA47_12 = "
	.zero	2
.LC151:
	.string	"S0.PA51_48 = "
	.zero	2
.LC152:
	.string	"S0.RES0_2 = "
	.zero	3
.LC153:
	.string	"S0.ATTR = "
	.zero	5
.LC154:
	.string	"S1.F = "
.LC155:
	.string	"S1.FST = "
	.zero	6
.LC156:
	.string	"S1.RES0_0 = "
	.zero	3
.LC157:
	.string	"S1.PTW = "
	.zero	6
.LC158:
	.string	"S1.S = "
.LC159:
	.string	"S1.RES0_1 = "
	.zero	3
.LC160:
	.string	"S1.RES1_2 = "
	.zero	3
.LC161:
	.string	"S1.RES0_3 = "
	.zero	3
.LC162:
	.string	"S1.IMP_DEF0 = "
	.zero	1
.LC163:
	.string	"S1.IMP_DEF1 = "
	.zero	1
.LC164:
	.string	"S1.IMP_DEF2 = "
	.zero	1
.LC165:
	.string	"spVa = "
	.text
.Letext0:
	.file 8 "d:\\installed\\gcc-linaro-7.2.1-2017.11-i686-mingw32_aarch64-elf\\aarch64-elf\\include\\c++\\7.2.1\\cstddef"
	.file 9 "d:\\installed\\gcc-linaro-7.2.1-2017.11-i686-mingw32_aarch64-elf\\aarch64-elf\\include\\c++\\7.2.1\\cstdint"
	.file 10 "d:\\installed\\gcc-linaro-7.2.1-2017.11-i686-mingw32_aarch64-elf\\aarch64-elf\\include\\c++\\7.2.1\\cstring"
	.file 11 "d:\\installed\\gcc-linaro-7.2.1-2017.11-i686-mingw32_aarch64-elf\\aarch64-elf\\include\\c++\\7.2.1\\bits\\exception_ptr.h"
	.file 12 "d:\\installed\\gcc-linaro-7.2.1-2017.11-i686-mingw32_aarch64-elf\\aarch64-elf\\include\\c++\\7.2.1\\aarch64-elf\\bits\\c++config.h"
	.file 13 "d:\\installed\\gcc-linaro-7.2.1-2017.11-i686-mingw32_aarch64-elf\\aarch64-elf\\include\\c++\\7.2.1\\type_traits"
	.file 14 "d:\\installed\\gcc-linaro-7.2.1-2017.11-i686-mingw32_aarch64-elf\\aarch64-elf\\include\\c++\\7.2.1\\new"
	.file 15 "d:\\installed\\gcc-linaro-7.2.1-2017.11-i686-mingw32_aarch64-elf\\lib\\gcc\\aarch64-elf\\7.2.1\\include\\stddef.h"
	.file 16 "d:\\installed\\gcc-linaro-7.2.1-2017.11-i686-mingw32_aarch64-elf\\lib\\gcc\\aarch64-elf\\7.2.1\\include\\stdint-gcc.h"
	.file 17 "D:\\Pool\\eclipse-workspace_aarch64\\newspace\\raspiOS\\include/def.h"
	.file 18 "D:\\Pool\\eclipse-workspace_aarch64\\newspace\\raspiOS\\include/io/Output.h"
	.file 19 "D:\\Pool\\eclipse-workspace_aarch64\\newspace\\raspiOS\\include/IntegerFormatter.h"
	.file 20 "D:\\Pool\\eclipse-workspace_aarch64\\newspace\\raspiOS\\include/memory/MemoryChunk.h"
	.file 21 "D:\\Pool\\eclipse-workspace_aarch64\\newspace\\raspiOS\\include/memory/MemoryManager.h"
	.file 22 "D:\\Pool\\eclipse-workspace_aarch64\\newspace\\raspiOS\\include/arch/common_aarch64/mmu/VirtualAddress.h"
	.file 23 "d:\\installed\\gcc-linaro-7.2.1-2017.11-i686-mingw32_aarch64-elf\\aarch64-elf\\libc\\usr\\include\\sys\\lock.h"
	.file 24 "d:\\installed\\gcc-linaro-7.2.1-2017.11-i686-mingw32_aarch64-elf\\aarch64-elf\\libc\\usr\\include\\sys\\_types.h"
	.file 25 "d:\\installed\\gcc-linaro-7.2.1-2017.11-i686-mingw32_aarch64-elf\\aarch64-elf\\libc\\usr\\include\\sys\\reent.h"
	.file 26 "d:\\installed\\gcc-linaro-7.2.1-2017.11-i686-mingw32_aarch64-elf\\aarch64-elf\\libc\\usr\\include\\string.h"
	.file 27 "<built-in>"