	.arch armv8.2-a+crc
	.file	"MemoryChunk.cpp"
	.text
.Ltext0:
	.cfi_sections	.debug_frame
	.section	.rodata
	.align	2
	.type	_ZL6UNIT_K, %object
	.size	_ZL6UNIT_K, 4
_ZL6UNIT_K:
	.word	1024
	.align	2
	.type	_ZL3KiB, %object
	.size	_ZL3KiB, 4
_ZL3KiB:
	.word	1024
	.align	2
	.type	_ZL3MiB, %object
	.size	_ZL3MiB, 4
_ZL3MiB:
	.word	1048576
	.align	2
	.type	_ZL3GiB, %object
	.size	_ZL3GiB, 4
_ZL3GiB:
	.word	1073741824
	.section	.text._ZnwmPv,"axG",@progbits,_ZnwmPv,comdat
	.align	2
	.weak	_ZnwmPv
	.type	_ZnwmPv, %function
_ZnwmPv:
.LFB75:
	.file 1 "d:\\installed\\gcc-linaro-7.2.1-2017.11-i686-mingw32_aarch64-elf\\aarch64-elf\\include\\c++\\7.2.1\\new"
	.loc 1 169 0
	.cfi_startproc
	sub	sp, sp, #16
	.cfi_def_cfa_offset 16
	str	x0, [sp, 8]
	str	x1, [sp]
	.loc 1 169 0
	ldr	x0, [sp]
	add	sp, sp, 16
	.cfi_def_cfa_offset 0
	ret
	.cfi_endproc
.LFE75:
	.size	_ZnwmPv, .-_ZnwmPv
	.text
	.align	2
	.global	_ZN11MemoryChunkC2Embmbm
	.type	_ZN11MemoryChunkC2Embmbm, %function
_ZN11MemoryChunkC2Embmbm:
.LFB80:
	.file 2 "D:/Pool/eclipse-workspace_aarch64/newspace/raspiOS/src/memory/MemoryChunk.cpp"
	.loc 2 12 0
	.cfi_startproc
	sub	sp, sp, #48
	.cfi_def_cfa_offset 48
	str	x0, [sp, 40]
	str	x1, [sp, 32]
	strb	w2, [sp, 31]
	str	x3, [sp, 16]
	strb	w4, [sp, 30]
	str	x5, [sp, 8]
.LBB2:
	.loc 2 13 0
	ldr	x0, [sp, 16]
	and	w0, w0, 63
	and	w2, w0, 255
	ldr	x1, [sp, 40]
	ldrb	w0, [x1]
	bfi	w0, w2, 0, 6
	strb	w0, [x1]
	ldrb	w0, [sp, 30]
	cmp	w0, 0
	beq	.L4
	.loc 2 13 0 is_stmt 0 discriminator 1
	mov	w2, 1
	b	.L5
.L4:
	.loc 2 13 0 discriminator 2
	mov	w2, 0
.L5:
	.loc 2 13 0 discriminator 4
	ldr	x1, [sp, 40]
	ldrb	w0, [x1]
	bfi	w0, w2, 6, 1
	strb	w0, [x1]
	ldrb	w0, [sp, 31]
	cmp	w0, 0
	beq	.L6
	.loc 2 13 0 discriminator 5
	mov	w2, 1
	b	.L7
.L6:
	.loc 2 13 0 discriminator 6
	mov	w2, 0
.L7:
	.loc 2 13 0 discriminator 8
	ldr	x1, [sp, 40]
	ldrb	w0, [x1]
	bfi	w0, w2, 7, 1
	strb	w0, [x1]
	ldr	x0, [sp, 32]
	and	x2, x0, 274877906943
	ldr	x1, [sp, 40]
	ldr	x0, [x1]
	bfi	x0, x2, 8, 38
	str	x0, [x1]
	ldr	x0, [sp, 8]
	mov	w1, w0
	and	w1, w1, 262143
	ldr	x2, [sp, 40]
	ldr	w0, [x2, 4]
	bfi	w0, w1, 14, 18
	str	w0, [x2, 4]
.LBE2:
	nop
	add	sp, sp, 48
	.cfi_def_cfa_offset 0
	ret
	.cfi_endproc
.LFE80:
	.size	_ZN11MemoryChunkC2Embmbm, .-_ZN11MemoryChunkC2Embmbm
	.global	_ZN11MemoryChunkC1Embmbm
	.set	_ZN11MemoryChunkC1Embmbm,_ZN11MemoryChunkC2Embmbm
	.align	2
	.global	_ZNK11MemoryChunk11isAllocatedEv
	.type	_ZNK11MemoryChunk11isAllocatedEv, %function
_ZNK11MemoryChunk11isAllocatedEv:
.LFB82:
	.loc 2 14 0 is_stmt 1
	.cfi_startproc
	sub	sp, sp, #16
	.cfi_def_cfa_offset 16
	str	x0, [sp, 8]
	.loc 2 15 0
	ldr	x0, [sp, 8]
	ldrb	w0, [x0]
	and	w0, w0, -128
	and	w0, w0, 255
	cmp	w0, 0
	cset	w0, ne
	and	w0, w0, 255
	.loc 2 16 0
	add	sp, sp, 16
	.cfi_def_cfa_offset 0
	ret
	.cfi_endproc
.LFE82:
	.size	_ZNK11MemoryChunk11isAllocatedEv, .-_ZNK11MemoryChunk11isAllocatedEv
	.align	2
	.global	_ZN11MemoryChunk12setAllocatedEb
	.type	_ZN11MemoryChunk12setAllocatedEb, %function
_ZN11MemoryChunk12setAllocatedEb:
.LFB83:
	.loc 2 19 0
	.cfi_startproc
	sub	sp, sp, #16
	.cfi_def_cfa_offset 16
	str	x0, [sp, 8]
	strb	w1, [sp, 7]
	.loc 2 20 0
	ldrb	w0, [sp, 7]
	cmp	w0, 0
	beq	.L11
	.loc 2 20 0 is_stmt 0 discriminator 1
	mov	w2, 1
	b	.L12
.L11:
	.loc 2 20 0 discriminator 2
	mov	w2, 0
.L12:
	.loc 2 20 0 discriminator 4
	ldr	x1, [sp, 8]
	ldrb	w0, [x1]
	bfi	w0, w2, 7, 1
	strb	w0, [x1]
	.loc 2 21 0 is_stmt 1 discriminator 4
	nop
	add	sp, sp, 16
	.cfi_def_cfa_offset 0
	ret
	.cfi_endproc
.LFE83:
	.size	_ZN11MemoryChunk12setAllocatedEb, .-_ZN11MemoryChunk12setAllocatedEb
	.align	2
	.global	_ZNK11MemoryChunk5isEndEv
	.type	_ZNK11MemoryChunk5isEndEv, %function
_ZNK11MemoryChunk5isEndEv:
.LFB84:
	.loc 2 23 0
	.cfi_startproc
	sub	sp, sp, #16
	.cfi_def_cfa_offset 16
	str	x0, [sp, 8]
	.loc 2 24 0
	ldr	x0, [sp, 8]
	ldrb	w0, [x0]
	and	w0, w0, 64
	and	w0, w0, 255
	cmp	w0, 0
	cset	w0, ne
	and	w0, w0, 255
	.loc 2 25 0
	add	sp, sp, 16
	.cfi_def_cfa_offset 0
	ret
	.cfi_endproc
.LFE84:
	.size	_ZNK11MemoryChunk5isEndEv, .-_ZNK11MemoryChunk5isEndEv
	.align	2
	.global	_ZN11MemoryChunk6setEndEb
	.type	_ZN11MemoryChunk6setEndEb, %function
_ZN11MemoryChunk6setEndEb:
.LFB85:
	.loc 2 27 0
	.cfi_startproc
	sub	sp, sp, #16
	.cfi_def_cfa_offset 16
	str	x0, [sp, 8]
	strb	w1, [sp, 7]
	.loc 2 28 0
	ldrb	w0, [sp, 7]
	cmp	w0, 0
	beq	.L16
	.loc 2 28 0 is_stmt 0 discriminator 1
	mov	w2, 1
	b	.L17
.L16:
	.loc 2 28 0 discriminator 2
	mov	w2, 0
.L17:
	.loc 2 28 0 discriminator 4
	ldr	x1, [sp, 8]
	ldrb	w0, [x1]
	bfi	w0, w2, 6, 1
	strb	w0, [x1]
	.loc 2 29 0 is_stmt 1 discriminator 4
	nop
	add	sp, sp, 16
	.cfi_def_cfa_offset 0
	ret
	.cfi_endproc
.LFE85:
	.size	_ZN11MemoryChunk6setEndEb, .-_ZN11MemoryChunk6setEndEb
	.align	2
	.global	_ZNK11MemoryChunk7getNextEv
	.type	_ZNK11MemoryChunk7getNextEv, %function
_ZNK11MemoryChunk7getNextEv:
.LFB86:
	.loc 2 31 0
	.cfi_startproc
	stp	x29, x30, [sp, -48]!
	.cfi_def_cfa_offset 48
	.cfi_offset 29, -48
	.cfi_offset 30, -40
	add	x29, sp, 0
	.cfi_def_cfa_register 29
	str	x0, [x29, 24]
	.loc 2 32 0
	ldr	x0, [x29, 24]
	bl	_ZNK11MemoryChunk5isEndEv
	and	w0, w0, 255
	cmp	w0, 0
	beq	.L19
	.loc 2 33 0
	mov	x0, 0
	b	.L20
.L19:
	.loc 2 34 0
	ldr	x0, [x29, 24]
	bl	_ZNK11MemoryChunk10getDataEndEv
	mov	x1, x0
	ldr	x0, [x29, 24]
	ldr	w0, [x0, 4]
	lsr	w0, w0, 14
	uxtw	x0, w0
	add	x0, x1, x0
	str	x0, [x29, 40]
.L24:
	.loc 2 35 0
	ldr	x0, [x29, 40]
	bl	_ZNK11MemoryChunk5isEndEv
	and	w0, w0, 255
	eor	w0, w0, 1
	and	w0, w0, 255
	cmp	w0, 0
	beq	.L21
	.loc 2 35 0 is_stmt 0 discriminator 1
	ldr	x0, [x29, 40]
	ldrb	w0, [x0]
	and	w0, w0, 63
	and	w0, w0, 255
	cmp	w0, 0
	beq	.L21
	.loc 2 35 0 discriminator 3
	mov	w0, 1
	b	.L22
.L21:
	.loc 2 35 0 discriminator 4
	mov	w0, 0
.L22:
	.loc 2 35 0 discriminator 6
	cmp	w0, 0
	beq	.L23
	.loc 2 36 0 is_stmt 1
	ldr	x0, [x29, 40]
	ldrb	w0, [x0]
	ubfx	x0, x0, 0, 6
	and	w0, w0, 255
	and	x0, x0, 255
	ldr	x1, [x29, 40]
	add	x0, x1, x0
	str	x0, [x29, 40]
	.loc 2 35 0
	b	.L24
.L23:
	.loc 2 37 0
	ldr	x0, [x29, 40]
.L20:
	.loc 2 38 0
	ldp	x29, x30, [sp], 48
	.cfi_restore 30
	.cfi_restore 29
	.cfi_def_cfa 31, 0
	ret
	.cfi_endproc
.LFE86:
	.size	_ZNK11MemoryChunk7getNextEv, .-_ZNK11MemoryChunk7getNextEv
	.align	2
	.global	_ZN11MemoryChunk7getNextEv
	.type	_ZN11MemoryChunk7getNextEv, %function
_ZN11MemoryChunk7getNextEv:
.LFB87:
	.loc 2 40 0
	.cfi_startproc
	stp	x29, x30, [sp, -32]!
	.cfi_def_cfa_offset 32
	.cfi_offset 29, -32
	.cfi_offset 30, -24
	add	x29, sp, 0
	.cfi_def_cfa_register 29
	str	x0, [x29, 24]
	.loc 2 41 0
	ldr	x0, [x29, 24]
	bl	_ZNK11MemoryChunk7getNextEv
	.loc 2 42 0
	ldp	x29, x30, [sp], 32
	.cfi_restore 30
	.cfi_restore 29
	.cfi_def_cfa 31, 0
	ret
	.cfi_endproc
.LFE87:
	.size	_ZN11MemoryChunk7getNextEv, .-_ZN11MemoryChunk7getNextEv
	.align	2
	.global	_ZNK11MemoryChunk7getSizeEv
	.type	_ZNK11MemoryChunk7getSizeEv, %function
_ZNK11MemoryChunk7getSizeEv:
.LFB88:
	.loc 2 46 0
	.cfi_startproc
	sub	sp, sp, #16
	.cfi_def_cfa_offset 16
	str	x0, [sp, 8]
	.loc 2 47 0
	ldr	x0, [sp, 8]
	ldrb	w1, [x0, 1]
	ldrb	w2, [x0, 2]
	lsl	x2, x2, 8
	orr	x1, x2, x1
	ldrb	w2, [x0, 3]
	lsl	x2, x2, 16
	orr	x1, x2, x1
	ldrb	w2, [x0, 4]
	lsl	x2, x2, 24
	orr	x1, x2, x1
	ldrb	w0, [x0, 5]
	and	x0, x0, 63
	lsl	x0, x0, 32
	orr	x0, x0, x1
	.loc 2 48 0
	add	sp, sp, 16
	.cfi_def_cfa_offset 0
	ret
	.cfi_endproc
.LFE88:
	.size	_ZNK11MemoryChunk7getSizeEv, .-_ZNK11MemoryChunk7getSizeEv
	.align	2
	.global	_ZN11MemoryChunk7setSizeEm
	.type	_ZN11MemoryChunk7setSizeEm, %function
_ZN11MemoryChunk7setSizeEm:
.LFB89:
	.loc 2 51 0
	.cfi_startproc
	sub	sp, sp, #16
	.cfi_def_cfa_offset 16
	str	x0, [sp, 8]
	str	x1, [sp]
	.loc 2 52 0
	ldr	x0, [sp]
	and	x2, x0, 274877906943
	ldr	x1, [sp, 8]
	ldr	x0, [x1]
	bfi	x0, x2, 8, 38
	str	x0, [x1]
	.loc 2 53 0
	nop
	add	sp, sp, 16
	.cfi_def_cfa_offset 0
	ret
	.cfi_endproc
.LFE89:
	.size	_ZN11MemoryChunk7setSizeEm, .-_ZN11MemoryChunk7setSizeEm
	.align	2
	.global	_ZN11MemoryChunk10getDataPtrEv
	.type	_ZN11MemoryChunk10getDataPtrEv, %function
_ZN11MemoryChunk10getDataPtrEv:
.LFB90:
	.loc 2 55 0
	.cfi_startproc
	stp	x29, x30, [sp, -32]!
	.cfi_def_cfa_offset 32
	.cfi_offset 29, -32
	.cfi_offset 30, -24
	add	x29, sp, 0
	.cfi_def_cfa_register 29
	str	x0, [x29, 24]
	.loc 2 56 0
	ldr	x0, [x29, 24]
	bl	_ZNK11MemoryChunk10getDataPtrEv
	.loc 2 57 0
	ldp	x29, x30, [sp], 32
	.cfi_restore 30
	.cfi_restore 29
	.cfi_def_cfa 31, 0
	ret
	.cfi_endproc
.LFE90:
	.size	_ZN11MemoryChunk10getDataPtrEv, .-_ZN11MemoryChunk10getDataPtrEv
	.align	2
	.global	_ZNK11MemoryChunk10getDataPtrEv
	.type	_ZNK11MemoryChunk10getDataPtrEv, %function
_ZNK11MemoryChunk10getDataPtrEv:
.LFB91:
	.loc 2 59 0
	.cfi_startproc
	sub	sp, sp, #16
	.cfi_def_cfa_offset 16
	str	x0, [sp, 8]
	.loc 2 60 0
	ldr	x0, [sp, 8]
	add	x0, x0, 8
	.loc 2 61 0
	add	sp, sp, 16
	.cfi_def_cfa_offset 0
	ret
	.cfi_endproc
.LFE91:
	.size	_ZNK11MemoryChunk10getDataPtrEv, .-_ZNK11MemoryChunk10getDataPtrEv
	.align	2
	.global	_ZN11MemoryChunk10getDataEndEv
	.type	_ZN11MemoryChunk10getDataEndEv, %function
_ZN11MemoryChunk10getDataEndEv:
.LFB92:
	.loc 2 63 0
	.cfi_startproc
	stp	x29, x30, [sp, -32]!
	.cfi_def_cfa_offset 32
	.cfi_offset 29, -32
	.cfi_offset 30, -24
	add	x29, sp, 0
	.cfi_def_cfa_register 29
	str	x0, [x29, 24]
	.loc 2 64 0
	ldr	x0, [x29, 24]
	bl	_ZNK11MemoryChunk10getDataEndEv
	.loc 2 65 0
	ldp	x29, x30, [sp], 32
	.cfi_restore 30
	.cfi_restore 29
	.cfi_def_cfa 31, 0
	ret
	.cfi_endproc
.LFE92:
	.size	_ZN11MemoryChunk10getDataEndEv, .-_ZN11MemoryChunk10getDataEndEv
	.align	2
	.global	_ZNK11MemoryChunk10getDataEndEv
	.type	_ZNK11MemoryChunk10getDataEndEv, %function
_ZNK11MemoryChunk10getDataEndEv:
.LFB93:
	.loc 2 67 0
	.cfi_startproc
	stp	x29, x30, [sp, -32]!
	.cfi_def_cfa_offset 32
	.cfi_offset 29, -32
	.cfi_offset 30, -24
	add	x29, sp, 0
	.cfi_def_cfa_register 29
	str	x0, [x29, 24]
	.loc 2 68 0
	ldr	x0, [x29, 24]
	bl	_ZNK11MemoryChunk7getSizeEv
	add	x0, x0, 8
	ldr	x1, [x29, 24]
	add	x0, x1, x0
	.loc 2 69 0
	ldp	x29, x30, [sp], 32
	.cfi_restore 30
	.cfi_restore 29
	.cfi_def_cfa 31, 0
	ret
	.cfi_endproc
.LFE93:
	.size	_ZNK11MemoryChunk10getDataEndEv, .-_ZNK11MemoryChunk10getDataEndEv
	.align	2
	.global	_ZNK11MemoryChunk18getNextBaseFromEndEv
	.type	_ZNK11MemoryChunk18getNextBaseFromEndEv, %function
_ZNK11MemoryChunk18getNextBaseFromEndEv:
.LFB94:
	.loc 2 74 0
	.cfi_startproc
	sub	sp, sp, #16
	.cfi_def_cfa_offset 16
	str	x0, [sp, 8]
	.loc 2 75 0
	ldr	x0, [sp, 8]
	ldr	w0, [x0, 4]
	lsr	w0, w0, 14
	uxtw	x0, w0
	.loc 2 76 0
	add	sp, sp, 16
	.cfi_def_cfa_offset 0
	ret
	.cfi_endproc
.LFE94:
	.size	_ZNK11MemoryChunk18getNextBaseFromEndEv, .-_ZNK11MemoryChunk18getNextBaseFromEndEv
	.align	2
	.global	_ZN11MemoryChunk18setNextBaseFromEndEm
	.type	_ZN11MemoryChunk18setNextBaseFromEndEm, %function
_ZN11MemoryChunk18setNextBaseFromEndEm:
.LFB95:
	.loc 2 78 0
	.cfi_startproc
	sub	sp, sp, #16
	.cfi_def_cfa_offset 16
	str	x0, [sp, 8]
	str	x1, [sp]
	.loc 2 79 0
	ldr	x0, [sp]
	mov	w1, w0
	and	w1, w1, 262143
	ldr	x2, [sp, 8]
	ldr	w0, [x2, 4]
	bfi	w0, w1, 14, 18
	str	w0, [x2, 4]
	.loc 2 80 0
	nop
	add	sp, sp, 16
	.cfi_def_cfa_offset 0
	ret
	.cfi_endproc
.LFE95:
	.size	_ZN11MemoryChunk18setNextBaseFromEndEm, .-_ZN11MemoryChunk18setNextBaseFromEndEm
	.align	2
	.global	_ZNK11MemoryChunk23getNextValidChunkOffsetEv
	.type	_ZNK11MemoryChunk23getNextValidChunkOffsetEv, %function
_ZNK11MemoryChunk23getNextValidChunkOffsetEv:
.LFB96:
	.loc 2 82 0
	.cfi_startproc
	sub	sp, sp, #16
	.cfi_def_cfa_offset 16
	str	x0, [sp, 8]
	.loc 2 83 0
	ldr	x0, [sp, 8]
	ldrb	w0, [x0]
	ubfx	x0, x0, 0, 6
	and	w0, w0, 255
	and	x0, x0, 255
	.loc 2 84 0
	add	sp, sp, 16
	.cfi_def_cfa_offset 0
	ret
	.cfi_endproc
.LFE96:
	.size	_ZNK11MemoryChunk23getNextValidChunkOffsetEv, .-_ZNK11MemoryChunk23getNextValidChunkOffsetEv
	.align	2
	.global	_ZN11MemoryChunk23setNextValidChunkOffsetEm
	.type	_ZN11MemoryChunk23setNextValidChunkOffsetEm, %function
_ZN11MemoryChunk23setNextValidChunkOffsetEm:
.LFB97:
	.loc 2 87 0
	.cfi_startproc
	sub	sp, sp, #16
	.cfi_def_cfa_offset 16
	str	x0, [sp, 8]
	str	x1, [sp]
	.loc 2 88 0
	ldr	x0, [sp]
	and	w0, w0, 63
	and	w2, w0, 255
	ldr	x1, [sp, 8]
	ldrb	w0, [x1]
	bfi	w0, w2, 0, 6
	strb	w0, [x1]
	.loc 2 89 0
	nop
	add	sp, sp, 16
	.cfi_def_cfa_offset 0
	ret
	.cfi_endproc
.LFE97:
	.size	_ZN11MemoryChunk23setNextValidChunkOffsetEm, .-_ZN11MemoryChunk23setNextValidChunkOffsetEm
	.align	2
	.global	_ZN11MemoryChunk9moveAheadEm
	.type	_ZN11MemoryChunk9moveAheadEm, %function
_ZN11MemoryChunk9moveAheadEm:
.LFB98:
	.loc 2 92 0
	.cfi_startproc
	sub	sp, sp, #32
	.cfi_def_cfa_offset 32
	str	x0, [sp, 8]
	str	x1, [sp]
	.loc 2 93 0
	ldr	x0, [sp, 8]
	ldrb	w0, [x0]
	and	w0, w0, -128
	and	w0, w0, 255
	cmp	w0, 0
	bne	.L45
	.loc 2 93 0 is_stmt 0 discriminator 1
	ldr	x0, [sp, 8]
	ldrb	w1, [x0, 1]
	ldrb	w2, [x0, 2]
	lsl	x2, x2, 8
	orr	x1, x2, x1
	ldrb	w2, [x0, 3]
	lsl	x2, x2, 16
	orr	x1, x2, x1
	ldrb	w2, [x0, 4]
	lsl	x2, x2, 24
	orr	x1, x2, x1
	ldrb	w0, [x0, 5]
	and	x0, x0, 63
	lsl	x0, x0, 32
	orr	x0, x0, x1
	mov	x1, x0
	ldr	x0, [sp]
	cmp	x0, x1
	bcc	.L46
.L45:
	.loc 2 94 0 is_stmt 1
	mov	x0, 0
	b	.L47
.L46:
	.loc 2 95 0
	ldr	x0, [sp]
	cmp	x0, 0
	bne	.L48
	.loc 2 96 0
	ldr	x0, [sp, 8]
	b	.L47
.L48:
	.loc 2 97 0
	ldr	x1, [sp, 8]
	ldr	x0, [sp]
	add	x0, x1, x0
	str	x0, [sp, 24]
.LBB3:
	.loc 2 99 0
	ldr	x0, [sp]
	cmp	x0, 7
	bls	.L49
	.loc 2 100 0
	ldr	x0, [sp, 24]
	ldr	x1, [sp, 8]
	ldr	x1, [x1]
	str	x1, [x0]
	b	.L50
.L49:
.LBB4:
	.loc 2 102 0
	ldr	x0, [sp, 8]
	ldr	x0, [x0]
	str	x0, [sp, 16]
	.loc 2 103 0
	ldr	x0, [sp, 24]
	ldr	x1, [sp, 16]
	str	x1, [x0]
.L50:
.LBE4:
.LBE3:
	.loc 2 105 0
	ldr	x0, [sp, 24]
	ldrb	w1, [x0, 1]
	ldrb	w2, [x0, 2]
	lsl	x2, x2, 8
	orr	x1, x2, x1
	ldrb	w2, [x0, 3]
	lsl	x2, x2, 16
	orr	x1, x2, x1
	ldrb	w2, [x0, 4]
	lsl	x2, x2, 24
	orr	x1, x2, x1
	ldrb	w0, [x0, 5]
	and	x0, x0, 63
	lsl	x0, x0, 32
	orr	x0, x0, x1
	mov	x1, x0
	ldr	x0, [sp]
	sub	x0, x1, x0
	and	x2, x0, 274877906943
	ldr	x1, [sp, 24]
	ldr	x0, [x1]
	bfi	x0, x2, 8, 38
	str	x0, [x1]
	.loc 2 108 0
	ldr	x0, [sp]
	cmp	x0, 8
	bls	.L51
	.loc 2 111 0
	ldr	x0, [sp, 8]
	ldrb	w1, [x0, 5]
	and	w1, w1, 63
	strb	w1, [x0, 5]
	ldrb	w1, [x0, 6]
	mov	w2, 0
	and	w1, w1, w2
	strb	w1, [x0, 6]
	ldrb	w1, [x0, 7]
	mov	w2, 0
	and	w1, w1, w2
	strb	w1, [x0, 7]
	.loc 2 112 0
	ldr	x0, [sp]
	sub	x0, x0, #8
	and	x2, x0, 274877906943
	ldr	x1, [sp, 8]
	ldr	x0, [x1]
	bfi	x0, x2, 8, 38
	str	x0, [x1]
	b	.L52
.L51:
	.loc 2 114 0
	ldr	x0, [sp]
	and	w0, w0, 63
	and	w2, w0, 255
	ldr	x1, [sp, 8]
	ldrb	w0, [x1]
	bfi	w0, w2, 0, 6
	strb	w0, [x1]
.L52:
	.loc 2 116 0
	ldr	x0, [sp, 24]
.L47:
	.loc 2 117 0
	add	sp, sp, 32
	.cfi_def_cfa_offset 0
	ret
	.cfi_endproc
.LFE98:
	.size	_ZN11MemoryChunk9moveAheadEm, .-_ZN11MemoryChunk9moveAheadEm
	.align	2
	.global	_ZNK11MemoryChunk33moveOffsetOfAllocSuchAlignedSpaceEmm
	.type	_ZNK11MemoryChunk33moveOffsetOfAllocSuchAlignedSpaceEmm, %function
_ZNK11MemoryChunk33moveOffsetOfAllocSuchAlignedSpaceEmm:
.LFB99:
	.loc 2 119 0
	.cfi_startproc
	stp	x29, x30, [sp, -64]!
	.cfi_def_cfa_offset 64
	.cfi_offset 29, -64
	.cfi_offset 30, -56
	add	x29, sp, 0
	.cfi_def_cfa_register 29
	str	x0, [x29, 40]
	str	x1, [x29, 32]
	str	x2, [x29, 24]
	.loc 2 120 0
	ldr	x0, [x29, 40]
	ldrb	w1, [x0, 1]
	ldrb	w2, [x0, 2]
	lsl	x2, x2, 8
	orr	x1, x2, x1
	ldrb	w2, [x0, 3]
	lsl	x2, x2, 16
	orr	x1, x2, x1
	ldrb	w2, [x0, 4]
	lsl	x2, x2, 24
	orr	x1, x2, x1
	ldrb	w0, [x0, 5]
	and	x0, x0, 63
	lsl	x0, x0, 32
	orr	x0, x0, x1
	mov	x1, x0
	ldr	x0, [x29, 32]
	cmp	x0, x1
	bls	.L54
	.loc 2 121 0
	mov	x0, -1
	b	.L55
.L54:
	.loc 2 122 0
	ldr	x0, [x29, 40]
	bl	_ZNK11MemoryChunk10getDataPtrEv
	ldr	x1, [x29, 24]
	udiv	x2, x0, x1
	ldr	x1, [x29, 24]
	mul	x1, x2, x1
	sub	x0, x0, x1
	str	x0, [x29, 56]
	.loc 2 123 0
	ldr	x0, [x29, 56]
	cmp	x0, 0
	beq	.L56
	.loc 2 125 0
	ldr	x1, [x29, 24]
	ldr	x0, [x29, 56]
	sub	x1, x1, x0
	ldr	x0, [x29, 32]
	add	x1, x1, x0
	ldr	x0, [x29, 40]
	ldrb	w2, [x0, 1]
	ldrb	w3, [x0, 2]
	lsl	x3, x3, 8
	orr	x2, x3, x2
	ldrb	w3, [x0, 3]
	lsl	x3, x3, 16
	orr	x2, x3, x2
	ldrb	w3, [x0, 4]
	lsl	x3, x3, 24
	orr	x2, x3, x2
	ldrb	w0, [x0, 5]
	and	x0, x0, 63
	lsl	x0, x0, 32
	orr	x0, x0, x2
	cmp	x1, x0
	bls	.L57
	.loc 2 126 0
	mov	x0, -1
	b	.L55
.L57:
	.loc 2 128 0
	ldr	x1, [x29, 24]
	ldr	x0, [x29, 56]
	sub	x0, x1, x0
	b	.L55
.L56:
	.loc 2 130 0
	mov	x0, 0
.L55:
	.loc 2 131 0
	ldp	x29, x30, [sp], 64
	.cfi_restore 30
	.cfi_restore 29
	.cfi_def_cfa 31, 0
	ret
	.cfi_endproc
.LFE99:
	.size	_ZNK11MemoryChunk33moveOffsetOfAllocSuchAlignedSpaceEmm, .-_ZNK11MemoryChunk33moveOffsetOfAllocSuchAlignedSpaceEmm
	.align	2
	.global	_ZN11MemoryChunk5splitEm
	.type	_ZN11MemoryChunk5splitEm, %function
_ZN11MemoryChunk5splitEm:
.LFB100:
	.loc 2 133 0
	.cfi_startproc
	stp	x29, x30, [sp, -64]!
	.cfi_def_cfa_offset 64
	.cfi_offset 29, -64
	.cfi_offset 30, -56
	add	x29, sp, 0
	.cfi_def_cfa_register 29
	stp	x19, x20, [sp, 16]
	.cfi_offset 19, -48
	.cfi_offset 20, -40
	str	x0, [x29, 40]
	str	x1, [x29, 32]
	.loc 2 134 0
	ldr	x0, [x29, 40]
	bl	_ZNK11MemoryChunk5isEndEv
	and	w0, w0, 255
	cmp	w0, 0
	bne	.L59
	.loc 2 134 0 is_stmt 0 discriminator 2
	ldr	x0, [x29, 40]
	bl	_ZNK11MemoryChunk11isAllocatedEv
	and	w0, w0, 255
	cmp	w0, 0
	bne	.L59
	.loc 2 134 0 discriminator 4
	ldr	x0, [x29, 40]
	bl	_ZNK11MemoryChunk7getSizeEv
	mov	x1, x0
	ldr	x0, [x29, 32]
	cmp	x0, x1
	bhi	.L59
	.loc 2 134 0 discriminator 6
	ldr	x0, [x29, 32]
	cmp	x0, 0
	bne	.L60
.L59:
	.loc 2 134 0 discriminator 7
	mov	w0, 1
	b	.L61
.L60:
	.loc 2 134 0 discriminator 8
	mov	w0, 0
.L61:
	.loc 2 134 0 discriminator 10
	cmp	w0, 0
	beq	.L62
	.loc 2 135 0 is_stmt 1
	mov	w0, 0
	b	.L63
.L62:
	.loc 2 136 0
	ldr	x0, [x29, 40]
	bl	_ZNK11MemoryChunk7getSizeEv
	mov	x1, x0
	ldr	x0, [x29, 32]
	sub	x0, x1, x0
	str	x0, [x29, 56]
	.loc 2 137 0
	ldr	x0, [x29, 40]
	bl	_ZN11MemoryChunk10getDataPtrEv
	mov	x1, x0
	ldr	x0, [x29, 32]
	add	x0, x1, x0
	str	x0, [x29, 48]
	.loc 2 138 0
	ldr	x0, [x29, 56]
	cmp	x0, 8
	bls	.L64
	.loc 2 140 0
	ldr	x0, [x29, 40]
	bl	_ZNK11MemoryChunk11isAllocatedEv
	and	w19, w0, 255
	ldr	x0, [x29, 40]
	bl	_ZNK11MemoryChunk18getNextBaseFromEndEv
	mov	x20, x0
	ldr	x0, [x29, 48]
	mov	x1, x0
	mov	x0, 8
	bl	_ZnwmPv
	mov	x6, x0
	cmp	x6, 0
	beq	.L66
	.loc 2 140 0 is_stmt 0 discriminator 1
	ldr	x0, [x29, 56]
	sub	x0, x0, #8
	mov	x5, x20
	mov	w4, 0
	mov	x3, 0
	mov	w2, w19
	mov	x1, x0
	mov	x0, x6
	bl	_ZN11MemoryChunkC1Embmbm
.L66:
	.loc 2 142 0 is_stmt 1
	ldr	x0, [x29, 32]
	and	x2, x0, 274877906943
	ldr	x1, [x29, 40]
	ldr	x0, [x1]
	bfi	x0, x2, 8, 38
	str	x0, [x1]
	.loc 2 143 0
	ldr	x0, [x29, 40]
	ldrb	w1, [x0, 5]
	and	w1, w1, 63
	strb	w1, [x0, 5]
	ldrb	w1, [x0, 6]
	mov	w2, 0
	and	w1, w1, w2
	strb	w1, [x0, 6]
	ldrb	w1, [x0, 7]
	mov	w2, 0
	and	w1, w1, w2
	strb	w1, [x0, 7]
	b	.L67
.L64:
	.loc 2 145 0
	ldr	x0, [x29, 56]
	and	w0, w0, 63
	and	w2, w0, 255
	ldr	x1, [x29, 40]
	ldrb	w0, [x1]
	bfi	w0, w2, 0, 6
	strb	w0, [x1]
.L67:
	.loc 2 147 0
	mov	w0, 1
.L63:
	.loc 2 148 0
	ldp	x19, x20, [sp, 16]
	ldp	x29, x30, [sp], 64
	.cfi_restore 30
	.cfi_restore 29
	.cfi_restore 19
	.cfi_restore 20
	.cfi_def_cfa 31, 0
	ret
	.cfi_endproc
.LFE100:
	.size	_ZN11MemoryChunk5splitEm, .-_ZN11MemoryChunk5splitEm
	.align	2
	.global	_ZN11MemoryChunk25mergeTrailingsUnallocatedEv
	.type	_ZN11MemoryChunk25mergeTrailingsUnallocatedEv, %function
_ZN11MemoryChunk25mergeTrailingsUnallocatedEv:
.LFB101:
	.loc 2 151 0
	.cfi_startproc
	stp	x29, x30, [sp, -64]!
	.cfi_def_cfa_offset 64
	.cfi_offset 29, -64
	.cfi_offset 30, -56
	add	x29, sp, 0
	.cfi_def_cfa_register 29
	str	x0, [x29, 24]
	.loc 2 152 0
	ldr	x0, [x29, 24]
	bl	_ZNK11MemoryChunk11isAllocatedEv
	and	w0, w0, 255
	cmp	w0, 0
	bne	.L69
	.loc 2 152 0 is_stmt 0 discriminator 2
	ldr	x0, [x29, 24]
	ldr	w0, [x0, 4]
	lsr	w0, w0, 14
	cmp	w0, 0
	bne	.L69
	.loc 2 152 0 discriminator 4
	ldr	x0, [x29, 24]
	bl	_ZNK11MemoryChunk5isEndEv
	and	w0, w0, 255
	cmp	w0, 0
	beq	.L70
.L69:
	.loc 2 152 0 discriminator 5
	mov	w0, 1
	b	.L71
.L70:
	.loc 2 152 0 discriminator 6
	mov	w0, 0
.L71:
	.loc 2 152 0 discriminator 8
	cmp	w0, 0
	bne	.L80
	.loc 2 154 0 is_stmt 1
	str	xzr, [x29, 56]
	.loc 2 155 0
	ldr	x0, [x29, 24]
	ldrb	w1, [x0, 1]
	ldrb	w2, [x0, 2]
	lsl	x2, x2, 8
	orr	x1, x2, x1
	ldrb	w2, [x0, 3]
	lsl	x2, x2, 16
	orr	x1, x2, x1
	ldrb	w2, [x0, 4]
	lsl	x2, x2, 24
	orr	x1, x2, x1
	ldrb	w0, [x0, 5]
	and	x0, x0, 63
	lsl	x0, x0, 32
	orr	x0, x0, x1
	add	x0, x0, 8
	ldr	x1, [x29, 24]
	add	x0, x1, x0
	str	x0, [x29, 48]
	.loc 2 156 0
	str	xzr, [x29, 40]
.L79:
.LBB5:
	.loc 2 159 0
	ldr	x0, [x29, 48]
	ldrb	w0, [x0]
	ubfx	x0, x0, 0, 6
	and	w0, w0, 255
	and	x0, x0, 255
	str	x0, [x29, 32]
	.loc 2 160 0
	ldr	x0, [x29, 32]
	cmp	x0, 0
	bne	.L74
	.loc 2 162 0
	ldr	x0, [x29, 48]
	bl	_ZNK11MemoryChunk5isEndEv
	and	w0, w0, 255
	eor	w0, w0, 1
	and	w0, w0, 255
	cmp	w0, 0
	beq	.L75
	.loc 2 162 0 is_stmt 0 discriminator 1
	ldr	x0, [x29, 48]
	bl	_ZNK11MemoryChunk11isAllocatedEv
	and	w0, w0, 255
	eor	w0, w0, 1
	and	w0, w0, 255
	cmp	w0, 0
	beq	.L75
	.loc 2 162 0 discriminator 3
	ldr	x0, [x29, 48]
	ldr	w0, [x0, 4]
	lsr	w0, w0, 14
	cmp	w0, 0
	bne	.L75
	.loc 2 162 0 discriminator 5
	mov	w0, 1
	b	.L76
.L75:
	.loc 2 162 0 discriminator 6
	mov	w0, 0
.L76:
	.loc 2 162 0 discriminator 8
	cmp	w0, 0
	beq	.L81
	.loc 2 163 0 is_stmt 1
	ldr	x0, [x29, 48]
	ldrb	w1, [x0, 1]
	ldrb	w2, [x0, 2]
	lsl	x2, x2, 8
	orr	x1, x2, x1
	ldrb	w2, [x0, 3]
	lsl	x2, x2, 16
	orr	x1, x2, x1
	ldrb	w2, [x0, 4]
	lsl	x2, x2, 24
	orr	x1, x2, x1
	ldrb	w0, [x0, 5]
	and	x0, x0, 63
	lsl	x0, x0, 32
	orr	x0, x0, x1
	add	x0, x0, 8
	str	x0, [x29, 32]
.L74:
	.loc 2 167 0
	ldr	x1, [x29, 56]
	ldr	x0, [x29, 32]
	add	x0, x1, x0
	str	x0, [x29, 56]
	.loc 2 168 0
	ldr	x0, [x29, 48]
	str	x0, [x29, 40]
	.loc 2 169 0
	ldr	x1, [x29, 48]
	ldr	x0, [x29, 32]
	add	x0, x1, x0
	str	x0, [x29, 48]
.LBE5:
	.loc 2 170 0
	b	.L79
.L81:
.LBB6:
	.loc 2 165 0
	nop
.LBE6:
	.loc 2 172 0
	ldr	x0, [x29, 24]
	ldrb	w1, [x0, 1]
	ldrb	w2, [x0, 2]
	lsl	x2, x2, 8
	orr	x1, x2, x1
	ldrb	w2, [x0, 3]
	lsl	x2, x2, 16
	orr	x1, x2, x1
	ldrb	w2, [x0, 4]
	lsl	x2, x2, 24
	orr	x1, x2, x1
	ldrb	w0, [x0, 5]
	and	x0, x0, 63
	lsl	x0, x0, 32
	orr	x0, x0, x1
	mov	x1, x0
	ldr	x0, [x29, 56]
	add	x0, x1, x0
	and	x2, x0, 274877906943
	ldr	x1, [x29, 24]
	ldr	x0, [x1]
	bfi	x0, x2, 8, 38
	str	x0, [x1]
	.loc 2 173 0
	ldr	x0, [x29, 40]
	ldrb	w0, [x0]
	and	w0, w0, 63
	and	w0, w0, 255
	cmp	w0, 0
	bne	.L68
	.loc 2 174 0
	ldr	x0, [x29, 40]
	ldr	w0, [x0, 4]
	lsr	w2, w0, 14
	ldr	x1, [x29, 24]
	ldr	w0, [x1, 4]
	bfi	w0, w2, 14, 18
	str	w0, [x1, 4]
	b	.L68
.L80:
	.loc 2 153 0
	nop
.L68:
	.loc 2 175 0
	ldp	x29, x30, [sp], 64
	.cfi_restore 30
	.cfi_restore 29
	.cfi_def_cfa 31, 0
	ret
	.cfi_endproc
.LFE101:
	.size	_ZN11MemoryChunk25mergeTrailingsUnallocatedEv, .-_ZN11MemoryChunk25mergeTrailingsUnallocatedEv
.Letext0:
	.file 3 "d:\\installed\\gcc-linaro-7.2.1-2017.11-i686-mingw32_aarch64-elf\\aarch64-elf\\include\\c++\\7.2.1\\cstddef"
	.file 4 "d:\\installed\\gcc-linaro-7.2.1-2017.11-i686-mingw32_aarch64-elf\\aarch64-elf\\include\\c++\\7.2.1\\cstdint"
	.file 5 "d:\\installed\\gcc-linaro-7.2.1-2017.11-i686-mingw32_aarch64-elf\\aarch64-elf\\include\\c++\\7.2.1\\bits\\exception_ptr.h"
	.file 6 "d:\\installed\\gcc-linaro-7.2.1-2017.11-i686-mingw32_aarch64-elf\\aarch64-elf\\include\\c++\\7.2.1\\aarch64-elf\\bits\\c++config.h"
	.file 7 "d:\\installed\\gcc-linaro-7.2.1-2017.11-i686-mingw32_aarch64-elf\\aarch64-elf\\include\\c++\\7.2.1\\type_traits"
	.file 8 "d:\\installed\\gcc-linaro-7.2.1-2017.11-i686-mingw32_aarch64-elf\\lib\\gcc\\aarch64-elf\\7.2.1\\include\\stddef.h"
	.file 9 "d:\\installed\\gcc-linaro-7.2.1-2017.11-i686-mingw32_aarch64-elf\\lib\\gcc\\aarch64-elf\\7.2.1\\include\\stdint-gcc.h"
	.file 10 "D:\\Pool\\eclipse-workspace_aarch64\\newspace\\raspiOS\\include/def.h"
	.file 11 "D:\\Pool\\eclipse-workspace_aarch64\\newspace\\raspiOS\\include/generic_util.h"
	.file 12 "D:\\Pool\\eclipse-workspace_aarch64\\newspace\\raspiOS\\include/memory/MemoryChunk.h"
	.file 13 "<built-in>"