	.arch armv8.2-a+crc
	.file	"MemoryManager_aarch64.cpp"
	.text
.Ltext0:
	.cfi_sections	.debug_frame
	.align	2
	.global	_ZN13MemoryManagerC2EPvmb
	.type	_ZN13MemoryManagerC2EPvmb, %function
_ZN13MemoryManagerC2EPvmb:
.LFB873:
	.file 1 "D:/Pool/eclipse-workspace_aarch64/newspace/raspiOS/src/memory/MemoryManager_aarch64.cpp"
	.loc 1 13 0
	.cfi_startproc
.LVL0:
.LBB5:
	.loc 1 16 0
	str	x1, [x0]
	str	x1, [x0, 8]
	str	x2, [x0, 16]
	.loc 1 18 0
	tst	w3, 255
	beq	.L5
.LBE5:
	.loc 1 13 0
	stp	x29, x30, [sp, -32]!
	.cfi_def_cfa_offset 32
	.cfi_offset 29, -32
	.cfi_offset 30, -24
	add	x29, sp, 0
	.cfi_def_cfa_register 29
	str	x19, [sp, 16]
	.cfi_offset 19, -16
	mov	x7, x2
	mov	x6, x1
	mov	x19, x0
.LBB6:
	.loc 1 20 0
	cbz	x1, .L3
	.loc 1 20 0 is_stmt 0 discriminator 1
	mov	x5, 0
	mov	w4, 0
	mov	x3, 0
.LVL1:
	mov	w2, 0
.LVL2:
	sub	x1, x7, #9
.LVL3:
	mov	x0, x6
.LVL4:
	bl	_ZN11MemoryChunkC1Embmbm
.LVL5:
.L3:
	.loc 1 21 0 is_stmt 1
	ldr	x0, [x19]
	bl	_ZN11MemoryChunk10getDataEndEv
.LVL6:
	mov	w1, 1
	bl	_ZN11MemoryChunk6setEndEb
.LVL7:
.LBE6:
	.loc 1 23 0
	ldr	x19, [sp, 16]
.LVL8:
	ldp	x29, x30, [sp], 32
	.cfi_restore 30
	.cfi_restore 29
	.cfi_restore 19
	.cfi_def_cfa 31, 0
	ret
.LVL9:
.L5:
	ret
	.cfi_endproc
.LFE873:
	.size	_ZN13MemoryManagerC2EPvmb, .-_ZN13MemoryManagerC2EPvmb
	.global	_ZN13MemoryManagerC1EPvmb
	.set	_ZN13MemoryManagerC1EPvmb,_ZN13MemoryManagerC2EPvmb
	.align	2
	.global	_ZN13MemoryManager18normalizeAllocSizeEm
	.type	_ZN13MemoryManager18normalizeAllocSizeEm, %function
_ZN13MemoryManager18normalizeAllocSizeEm:
.LFB875:
	.loc 1 25 0
	.cfi_startproc
.LVL10:
	cmp	x1, 8
	mov	x0, 8
.LVL11:
	csel	x1, x1, x0, cs
.LVL12:
	.loc 1 28 0
	and	x2, x1, 7
	.loc 1 29 0
	and	x0, x1, -8
	add	x0, x0, 8
	cmp	x2, 0
	.loc 1 31 0
	csel	x0, x0, x1, ne
	ret
	.cfi_endproc
.LFE875:
	.size	_ZN13MemoryManager18normalizeAllocSizeEm, .-_ZN13MemoryManager18normalizeAllocSizeEm
	.align	2
	.global	_ZN13MemoryManager8allocateEmm
	.type	_ZN13MemoryManager8allocateEmm, %function
_ZN13MemoryManager8allocateEmm:
.LFB877:
	.loc 1 37 0
	.cfi_startproc
.LVL13:
	stp	x29, x30, [sp, -48]!
	.cfi_def_cfa_offset 48
	.cfi_offset 29, -48
	.cfi_offset 30, -40
	add	x29, sp, 0
	.cfi_def_cfa_register 29
	stp	x19, x20, [sp, 16]
	str	x21, [sp, 32]
	.cfi_offset 19, -32
	.cfi_offset 20, -24
	.cfi_offset 21, -16
	mov	x20, x1
	mov	x21, x2
	.loc 1 38 0
	ldr	x19, [x0]
.LVL14:
	.loc 1 44 0
	cbnz	x19, .L14
	.loc 1 45 0
	mov	x0, 0
.LVL15:
	b	.L10
.LVL16:
.L12:
	.loc 1 48 0 discriminator 4
	mov	x0, x19
	bl	_ZN11MemoryChunk7getNextEv
.LVL17:
	mov	x19, x0
.LVL18:
	.loc 1 44 0 discriminator 4
	cbz	x0, .L19
.LVL19:
.L14:
	.loc 1 44 0 is_stmt 0 discriminator 2
	mov	x0, x19
	bl	_ZNK11MemoryChunk5isEndEv
.LVL20:
	tst	w0, 255
	bne	.L16
	.loc 1 46 0 is_stmt 1
	mov	x0, x19
	bl	_ZNK11MemoryChunk11isAllocatedEv
.LVL21:
	tst	w0, 255
	bne	.L12
	.loc 1 46 0 is_stmt 0 discriminator 1
	mov	x2, x21
	mov	x1, x20
	mov	x0, x19
	bl	_ZNK11MemoryChunk33moveOffsetOfAllocSuchAlignedSpaceEmm
.LVL22:
	cmn	x0, #1
	beq	.L12
	.loc 1 50 0 is_stmt 1
	mov	x1, x0
	mov	x0, x19
.LVL23:
	bl	_ZN11MemoryChunk9moveAheadEm
.LVL24:
	mov	x19, x0
.LVL25:
	.loc 1 51 0
	mov	x1, x20
	bl	_ZN11MemoryChunk5splitEm
.LVL26:
	.loc 1 52 0
	mov	w1, 1
	mov	x0, x19
	bl	_ZN11MemoryChunk12setAllocatedEb
.LVL27:
	.loc 1 53 0
	mov	x0, x19
	bl	_ZN11MemoryChunk10getDataPtrEv
.LVL28:
	b	.L10
.LVL29:
.L16:
	.loc 1 45 0
	mov	x0, 0
.LVL30:
.L10:
	.loc 1 54 0
	ldp	x19, x20, [sp, 16]
.LVL31:
	ldr	x21, [sp, 32]
.LVL32:
	ldp	x29, x30, [sp], 48
	.cfi_remember_state
	.cfi_restore 30
	.cfi_restore 29
	.cfi_restore 21
	.cfi_restore 19
	.cfi_restore 20
	.cfi_def_cfa 31, 0
	ret
.LVL33:
.L19:
	.cfi_restore_state
	.loc 1 45 0
	mov	x0, 0
.LVL34:
	b	.L10
	.cfi_endproc
.LFE877:
	.size	_ZN13MemoryManager8allocateEmm, .-_ZN13MemoryManager8allocateEmm
	.align	2
	.global	_ZN13MemoryManager8allocateEm
	.type	_ZN13MemoryManager8allocateEm, %function
_ZN13MemoryManager8allocateEm:
.LFB876:
	.loc 1 33 0
	.cfi_startproc
.LVL35:
	stp	x29, x30, [sp, -16]!
	.cfi_def_cfa_offset 16
	.cfi_offset 29, -16
	.cfi_offset 30, -8
	add	x29, sp, 0
	.cfi_def_cfa_register 29
	.loc 1 34 0
	mov	x2, 8
	bl	_ZN13MemoryManager8allocateEmm
.LVL36:
	.loc 1 35 0
	ldp	x29, x30, [sp], 16
	.cfi_restore 30
	.cfi_restore 29
	.cfi_def_cfa 31, 0
	ret
	.cfi_endproc
.LFE876:
	.size	_ZN13MemoryManager8allocateEm, .-_ZN13MemoryManager8allocateEm
	.align	2
	.global	_ZN13MemoryManager10deallocateEPv
	.type	_ZN13MemoryManager10deallocateEPv, %function
_ZN13MemoryManager10deallocateEPv:
.LFB878:
	.loc 1 56 0
	.cfi_startproc
.LVL37:
.LBB7:
	.loc 1 57 0
	cmp	x1, 0
	ccmp	x1, 8, 0, ne
	bhi	.L28
	ret
.L28:
.LBE7:
	.loc 1 56 0
	stp	x29, x30, [sp, -32]!
	.cfi_def_cfa_offset 32
	.cfi_offset 29, -32
	.cfi_offset 30, -24
	add	x29, sp, 0
	.cfi_def_cfa_register 29
	str	x19, [sp, 16]
	.cfi_offset 19, -16
.LBB10:
.LBB8:
	.loc 1 59 0
	sub	x19, x1, #8
.LVL38:
	.loc 1 60 0
	mov	x0, x19
.LVL39:
	bl	_ZNK11MemoryChunk11isAllocatedEv
.LVL40:
	tst	w0, 255
	bne	.L29
.L22:
.LBE8:
.LBE10:
	.loc 1 67 0
	ldr	x19, [sp, 16]
.LVL41:
	ldp	x29, x30, [sp], 32
	.cfi_remember_state
	.cfi_restore 30
	.cfi_restore 29
	.cfi_restore 19
	.cfi_def_cfa 31, 0
	ret
.LVL42:
.L29:
	.cfi_restore_state
.LBB11:
.LBB9:
	.loc 1 62 0
	mov	w1, 0
	mov	x0, x19
	bl	_ZN11MemoryChunk12setAllocatedEb
.LVL43:
	.loc 1 63 0
	mov	x0, x19
	bl	_ZN11MemoryChunk25mergeTrailingsUnallocatedEv
.LVL44:
.LBE9:
.LBE11:
	.loc 1 67 0
	b	.L22
	.cfi_endproc
.LFE878:
	.size	_ZN13MemoryManager10deallocateEPv, .-_ZN13MemoryManager10deallocateEPv
	.align	2
	.global	_ZN13MemoryManager11tryIncreaseEPvm
	.type	_ZN13MemoryManager11tryIncreaseEPvm, %function
_ZN13MemoryManager11tryIncreaseEPvm:
.LFB879:
	.loc 1 71 0
	.cfi_startproc
.LVL45:
	.loc 1 73 0
	mov	w0, 0
.LVL46:
	ret
	.cfi_endproc
.LFE879:
	.size	_ZN13MemoryManager11tryIncreaseEPvm, .-_ZN13MemoryManager11tryIncreaseEPvm
	.align	2
	.global	_ZN13MemoryManager11tryDecreaseEPvm
	.type	_ZN13MemoryManager11tryDecreaseEPvm, %function
_ZN13MemoryManager11tryDecreaseEPvm:
.LFB880:
	.loc 1 75 0
	.cfi_startproc
.LVL47:
	.loc 1 77 0
	mov	w0, 0
.LVL48:
	ret
	.cfi_endproc
.LFE880:
	.size	_ZN13MemoryManager11tryDecreaseEPvm, .-_ZN13MemoryManager11tryDecreaseEPvm
	.align	2
	.global	_ZNK13MemoryManager18getAllocatedLengthEPv
	.type	_ZNK13MemoryManager18getAllocatedLengthEPv, %function
_ZNK13MemoryManager18getAllocatedLengthEPv:
.LFB882:
	.loc 1 114 0
	.cfi_startproc
.LVL49:
.LBB12:
	.loc 1 115 0
	cmp	x1, 0
.LBE12:
	.loc 1 121 0
	mov	x2, -1
.LBB17:
	.loc 1 115 0
	ccmp	x1, 8, 0, ne
	bls	.L39
.LBE17:
	.loc 1 114 0
	stp	x29, x30, [sp, -32]!
	.cfi_def_cfa_offset 32
	.cfi_offset 29, -32
	.cfi_offset 30, -24
	add	x29, sp, 0
	.cfi_def_cfa_register 29
	str	x19, [sp, 16]
	.cfi_offset 19, -16
.LBB18:
.LBB13:
	.loc 1 117 0
	sub	x19, x1, #8
.LVL50:
	.loc 1 118 0
	mov	x0, x19
.LVL51:
	bl	_ZNK11MemoryChunk23getNextValidChunkOffsetEv
.LVL52:
.LBE13:
.LBE18:
	.loc 1 121 0
	mov	x2, -1
.LBB19:
.LBB14:
	.loc 1 118 0
	cbnz	x0, .L32
	.loc 1 118 0 is_stmt 0 discriminator 1
	mov	x0, x19
	bl	_ZNK11MemoryChunk5isEndEv
.LVL53:
.LBE14:
.LBE19:
	.loc 1 121 0 is_stmt 1 discriminator 1
	mov	x2, -1
.LBB20:
.LBB15:
	.loc 1 118 0 discriminator 1
	tst	w0, 255
	bne	.L32
	.loc 1 118 0 is_stmt 0 discriminator 3
	mov	x0, x19
	bl	_ZNK11MemoryChunk11isAllocatedEv
.LVL54:
.LBE15:
.LBE20:
	.loc 1 121 0 is_stmt 1 discriminator 3
	mov	x2, -1
.LBB21:
.LBB16:
	.loc 1 118 0 discriminator 3
	tst	w0, 255
	beq	.L32
	.loc 1 119 0
	mov	x0, x19
	bl	_ZNK11MemoryChunk7getSizeEv
.LVL55:
	mov	x2, x0
.L32:
.LBE16:
.LBE21:
	.loc 1 122 0
	mov	x0, x2
	ldr	x19, [sp, 16]
.LVL56:
	ldp	x29, x30, [sp], 32
	.cfi_restore 30
	.cfi_restore 29
	.cfi_restore 19
	.cfi_def_cfa 31, 0
	ret
.LVL57:
.L39:
	mov	x0, x2
.LVL58:
	ret
	.cfi_endproc
.LFE882:
	.size	_ZNK13MemoryManager18getAllocatedLengthEPv, .-_ZNK13MemoryManager18getAllocatedLengthEPv
	.align	2
	.global	_ZN13MemoryManager10reallocateEPvmm
	.type	_ZN13MemoryManager10reallocateEPvmm, %function
_ZN13MemoryManager10reallocateEPvmm:
.LFB881:
	.loc 1 79 0
	.cfi_startproc
.LVL59:
	stp	x29, x30, [sp, -64]!
	.cfi_def_cfa_offset 64
	.cfi_offset 29, -64
	.cfi_offset 30, -56
	add	x29, sp, 0
	.cfi_def_cfa_register 29
	str	x19, [sp, 16]
	.cfi_offset 19, -48
	mov	x19, x1
	.loc 1 80 0
	cbz	x1, .L43
	stp	x20, x21, [x29, 24]
	.cfi_offset 21, -32
	.cfi_offset 20, -40
	str	x23, [x29, 48]
	.cfi_offset 23, -16
	mov	x23, x0
	mov	x20, x2
	mov	x21, x3
	.loc 1 82 0
	cbz	x2, .L51
	.loc 1 87 0
	cmn	x3, #1
	beq	.L52
.LVL60:
.L45:
	.loc 1 91 0
	cmp	x20, x21
	beq	.L50
	str	x22, [x29, 40]
	.cfi_remember_state
	.cfi_offset 22, -24
	.loc 1 93 0
	sub	x22, x19, #8
.LVL61:
	.loc 1 96 0
	mov	w1, 0
	mov	x0, x22
	bl	_ZN11MemoryChunk12setAllocatedEb
.LVL62:
	.loc 1 97 0
	mov	x0, x22
	bl	_ZN11MemoryChunk25mergeTrailingsUnallocatedEv
.LVL63:
.LBB26:
	.loc 1 98 0
	mov	x0, x22
	bl	_ZNK11MemoryChunk7getSizeEv
.LVL64:
	cmp	x0, x20
	bcs	.L53
.LBB27:
	.loc 1 104 0
	mov	w1, 1
	mov	x0, x22
	bl	_ZN11MemoryChunk12setAllocatedEb
.LVL65:
.LBB28:
.LBB29:
	.file 2 "D:\\Pool\\eclipse-workspace_aarch64\\newspace\\raspiOS\\include/templates_implementation/MemoryManager.h"
	.loc 2 17 0
	mov	x1, x20
	mov	x0, x23
	bl	_ZN13MemoryManager8allocateEm
.LVL66:
	mov	x20, x0
.LVL67:
.LBE29:
.LBE28:
	.loc 1 106 0
	cbz	x0, .L48
	.loc 1 108 0
	mov	x2, x21
	mov	x1, x19
	bl	memcpy
.LVL68:
	.loc 1 109 0
	mov	w1, 0
	mov	x0, x22
	bl	_ZN11MemoryChunk12setAllocatedEb
.LVL69:
	.loc 1 110 0
	mov	x19, x20
.LVL70:
	ldp	x20, x21, [x29, 24]
	.cfi_restore 21
	.cfi_restore 20
.LVL71:
	ldp	x22, x23, [x29, 40]
	.cfi_restore 23
	.cfi_restore 22
.LVL72:
	b	.L43
.LVL73:
.L51:
	.cfi_restore_state
.LBE27:
.LBE26:
	.loc 1 84 0
	bl	_ZN13MemoryManager10deallocateEPv
.LVL74:
	.loc 1 85 0
	mov	x19, 0
.LVL75:
	ldp	x20, x21, [x29, 24]
	.cfi_remember_state
	.cfi_restore 21
	.cfi_restore 20
.LVL76:
	ldr	x23, [x29, 48]
	.cfi_restore 23
.LVL77:
	b	.L43
.LVL78:
.L52:
	.cfi_restore_state
	.loc 1 88 0
	bl	_ZNK13MemoryManager18getAllocatedLengthEPv
.LVL79:
	mov	x21, x0
.LVL80:
	.loc 1 89 0
	cmn	x0, #1
	bne	.L45
	.loc 1 90 0
	mov	x19, 0
.LVL81:
	ldp	x20, x21, [x29, 24]
	.cfi_restore 21
	.cfi_restore 20
.LVL82:
	ldr	x23, [x29, 48]
	.cfi_restore 23
.LVL83:
	b	.L43
.LVL84:
.L53:
	.cfi_offset 20, -40
	.cfi_offset 21, -32
	.cfi_offset 22, -24
	.cfi_offset 23, -16
.LBB31:
	.loc 1 100 0
	mov	x1, x20
	mov	x0, x22
	bl	_ZN11MemoryChunk5splitEm
.LVL85:
	.loc 1 101 0
	mov	w1, 1
	mov	x0, x22
	bl	_ZN11MemoryChunk12setAllocatedEb
.LVL86:
	.loc 1 102 0
	ldp	x20, x21, [x29, 24]
	.cfi_remember_state
	.cfi_restore 21
	.cfi_restore 20
.LVL87:
	ldp	x22, x23, [x29, 40]
	.cfi_restore 23
	.cfi_restore 22
.LVL88:
	b	.L43
.LVL89:
.L48:
	.cfi_restore_state
.LBB30:
	.loc 1 107 0
	mov	x19, x0
.LVL90:
	ldp	x20, x21, [x29, 24]
	.cfi_restore 21
	.cfi_restore 20
.LVL91:
	ldp	x22, x23, [x29, 40]
	.cfi_restore 23
	.cfi_restore 22
.LVL92:
	b	.L43
.LVL93:
.L50:
	.cfi_offset 20, -40
	.cfi_offset 21, -32
	.cfi_offset 23, -16
	ldp	x20, x21, [x29, 24]
	.cfi_restore 21
	.cfi_restore 20
.LVL94:
	ldr	x23, [x29, 48]
	.cfi_restore 23
.LVL95:
.L43:
.LBE30:
.LBE31:
	.loc 1 112 0
	mov	x0, x19
	ldr	x19, [sp, 16]
	ldp	x29, x30, [sp], 64
	.cfi_restore 30
	.cfi_restore 29
	.cfi_restore 19
	.cfi_def_cfa 31, 0
	ret
	.cfi_endproc
.LFE881:
	.size	_ZN13MemoryManager10reallocateEPvmm, .-_ZN13MemoryManager10reallocateEPvmm
.Letext0:
	.file 3 "d:\\installed\\gcc-linaro-7.2.1-2017.11-i686-mingw32_aarch64-elf\\aarch64-elf\\include\\c++\\7.2.1\\cstddef"
	.file 4 "d:\\installed\\gcc-linaro-7.2.1-2017.11-i686-mingw32_aarch64-elf\\aarch64-elf\\include\\c++\\7.2.1\\cstdint"
	.file 5 "d:\\installed\\gcc-linaro-7.2.1-2017.11-i686-mingw32_aarch64-elf\\aarch64-elf\\include\\c++\\7.2.1\\bits\\exception_ptr.h"
	.file 6 "d:\\installed\\gcc-linaro-7.2.1-2017.11-i686-mingw32_aarch64-elf\\aarch64-elf\\include\\c++\\7.2.1\\aarch64-elf\\bits\\c++config.h"
	.file 7 "d:\\installed\\gcc-linaro-7.2.1-2017.11-i686-mingw32_aarch64-elf\\aarch64-elf\\include\\c++\\7.2.1\\type_traits"
	.file 8 "d:\\installed\\gcc-linaro-7.2.1-2017.11-i686-mingw32_aarch64-elf\\aarch64-elf\\include\\c++\\7.2.1\\new"
	.file 9 "d:\\installed\\gcc-linaro-7.2.1-2017.11-i686-mingw32_aarch64-elf\\aarch64-elf\\include\\c++\\7.2.1\\cstring"
	.file 10 "d:\\installed\\gcc-linaro-7.2.1-2017.11-i686-mingw32_aarch64-elf\\aarch64-elf\\include\\c++\\7.2.1\\bits\\stl_pair.h"
	.file 11 "d:\\installed\\gcc-linaro-7.2.1-2017.11-i686-mingw32_aarch64-elf\\aarch64-elf\\include\\c++\\7.2.1\\debug\\debug.h"
	.file 12 "d:\\installed\\gcc-linaro-7.2.1-2017.11-i686-mingw32_aarch64-elf\\aarch64-elf\\include\\c++\\7.2.1\\bits\\std_abs.h"
	.file 13 "d:\\installed\\gcc-linaro-7.2.1-2017.11-i686-mingw32_aarch64-elf\\aarch64-elf\\include\\c++\\7.2.1\\cstdlib"
	.file 14 "d:\\installed\\gcc-linaro-7.2.1-2017.11-i686-mingw32_aarch64-elf\\aarch64-elf\\include\\c++\\7.2.1\\bits\\algorithmfwd.h"
	.file 15 "d:\\installed\\gcc-linaro-7.2.1-2017.11-i686-mingw32_aarch64-elf\\aarch64-elf\\include\\c++\\7.2.1\\bits\\stl_algo.h"
	.file 16 "d:\\installed\\gcc-linaro-7.2.1-2017.11-i686-mingw32_aarch64-elf\\aarch64-elf\\include\\c++\\7.2.1\\bits\\predefined_ops.h"
	.file 17 "d:\\installed\\gcc-linaro-7.2.1-2017.11-i686-mingw32_aarch64-elf\\aarch64-elf\\include\\c++\\7.2.1\\ext\\numeric_traits.h"
	.file 18 "d:\\installed\\gcc-linaro-7.2.1-2017.11-i686-mingw32_aarch64-elf\\lib\\gcc\\aarch64-elf\\7.2.1\\include\\stddef.h"
	.file 19 "d:\\installed\\gcc-linaro-7.2.1-2017.11-i686-mingw32_aarch64-elf\\lib\\gcc\\aarch64-elf\\7.2.1\\include\\stdint-gcc.h"
	.file 20 "D:\\Pool\\eclipse-workspace_aarch64\\newspace\\raspiOS\\include/def.h"
	.file 21 "D:\\Pool\\eclipse-workspace_aarch64\\newspace\\raspiOS\\include/generic_util.h"
	.file 22 "D:\\Pool\\eclipse-workspace_aarch64\\newspace\\raspiOS\\include/memory/MemoryChunk.h"
	.file 23 "D:\\Pool\\eclipse-workspace_aarch64\\newspace\\raspiOS\\include/memory/MemoryManager.h"
	.file 24 "d:\\installed\\gcc-linaro-7.2.1-2017.11-i686-mingw32_aarch64-elf\\aarch64-elf\\libc\\usr\\include\\sys\\lock.h"
	.file 25 "d:\\installed\\gcc-linaro-7.2.1-2017.11-i686-mingw32_aarch64-elf\\aarch64-elf\\libc\\usr\\include\\sys\\_types.h"
	.file 26 "d:\\installed\\gcc-linaro-7.2.1-2017.11-i686-mingw32_aarch64-elf\\aarch64-elf\\libc\\usr\\include\\sys\\reent.h"
	.file 27 "d:\\installed\\gcc-linaro-7.2.1-2017.11-i686-mingw32_aarch64-elf\\aarch64-elf\\libc\\usr\\include\\string.h"
	.file 28 "d:\\installed\\gcc-linaro-7.2.1-2017.11-i686-mingw32_aarch64-elf\\aarch64-elf\\libc\\usr\\include\\stdlib.h"
	.file 29 "<built-in>"