	.arch armv8.2-a+crc
	.file	"Output.cpp"
	.text
.Ltext0:
	.cfi_sections	.debug_frame
	.align	2
	.global	_ZN6Output5printEPKcm
	.type	_ZN6Output5printEPKcm, %function
_ZN6Output5printEPKcm:
.LFB51:
	.file 1 "D:/Pool/eclipse-workspace_aarch64/newspace/raspiOS/src/io/Output.cpp"
	.loc 1 17 0
	.cfi_startproc
.LVL0:
	stp	x29, x30, [sp, -16]!
	.cfi_def_cfa_offset 16
	.cfi_offset 29, -16
	.cfi_offset 30, -8
	add	x29, sp, 0
	.cfi_def_cfa_register 29
	mov	x0, x1
.LVL1:
	.loc 1 18 0
	mov	x1, x2
.LVL2:
	bl	_Z6printkPKcm
.LVL3:
	.loc 1 19 0
	ldp	x29, x30, [sp], 16
	.cfi_restore 30
	.cfi_restore 29
	.cfi_def_cfa 31, 0
	ret
	.cfi_endproc
.LFE51:
	.size	_ZN6Output5printEPKcm, .-_ZN6Output5printEPKcm
	.align	2
	.global	_ZN6Output5printEPKc
	.type	_ZN6Output5printEPKc, %function
_ZN6Output5printEPKc:
.LFB52:
	.loc 1 21 0
	.cfi_startproc
.LVL4:
	stp	x29, x30, [sp, -16]!
	.cfi_def_cfa_offset 16
	.cfi_offset 29, -16
	.cfi_offset 30, -8
	add	x29, sp, 0
	.cfi_def_cfa_register 29
	.loc 1 22 0
	mov	x0, x1
.LVL5:
	bl	_Z6printkPKc
.LVL6:
	.loc 1 23 0
	ldp	x29, x30, [sp], 16
	.cfi_restore 30
	.cfi_restore 29
	.cfi_def_cfa 31, 0
	ret
	.cfi_endproc
.LFE52:
	.size	_ZN6Output5printEPKc, .-_ZN6Output5printEPKc
	.align	2
	.global	_ZN6OutputlsEc
	.type	_ZN6OutputlsEc, %function
_ZN6OutputlsEc:
.LFB53:
	.loc 1 25 0
	.cfi_startproc
.LVL7:
	stp	x29, x30, [sp, -32]!
	.cfi_def_cfa_offset 32
	.cfi_offset 29, -32
	.cfi_offset 30, -24
	add	x29, sp, 0
	.cfi_def_cfa_register 29
	str	x19, [sp, 16]
	.cfi_offset 19, -16
	mov	x19, x0
	.loc 1 26 0
	mov	w0, w1
.LVL8:
	bl	_Z6printkc
.LVL9:
	.loc 1 28 0
	mov	x0, x19
	ldr	x19, [sp, 16]
.LVL10:
	ldp	x29, x30, [sp], 32
	.cfi_restore 30
	.cfi_restore 29
	.cfi_restore 19
	.cfi_def_cfa 31, 0
	ret
	.cfi_endproc
.LFE53:
	.size	_ZN6OutputlsEc, .-_ZN6OutputlsEc
	.align	2
	.global	_ZN6OutputlsEb
	.type	_ZN6OutputlsEb, %function
_ZN6OutputlsEb:
.LFB57:
	.loc 1 43 0
	.cfi_startproc
.LVL11:
	stp	x29, x30, [sp, -32]!
	.cfi_def_cfa_offset 32
	.cfi_offset 29, -32
	.cfi_offset 30, -24
	add	x29, sp, 0
	.cfi_def_cfa_register 29
	str	x19, [sp, 16]
	.cfi_offset 19, -16
	mov	x19, x0
	and	w1, w1, 255
	.loc 1 44 0
	adrp	x2, .LC1
	add	x2, x2, :lo12:.LC1
	adrp	x0, .LC0
.LVL12:
	add	x0, x0, :lo12:.LC0
	cmp	w1, 0
.LVL13:
.LBB4:
.LBB5:
	.loc 1 60 0
	csel	x0, x0, x2, ne
.LVL14:
	bl	_Z6printkPKc
.LVL15:
.LBE5:
.LBE4:
	.loc 1 45 0
	mov	x0, x19
	ldr	x19, [sp, 16]
.LVL16:
	ldp	x29, x30, [sp], 32
	.cfi_restore 30
	.cfi_restore 29
	.cfi_restore 19
	.cfi_def_cfa 31, 0
	ret
	.cfi_endproc
.LFE57:
	.size	_ZN6OutputlsEb, .-_ZN6OutputlsEb
	.align	2
	.global	_ZN6OutputlsEPKc
	.type	_ZN6OutputlsEPKc, %function
_ZN6OutputlsEPKc:
.LFB61:
	.loc 1 59 0
	.cfi_startproc
.LVL17:
	stp	x29, x30, [sp, -32]!
	.cfi_def_cfa_offset 32
	.cfi_offset 29, -32
	.cfi_offset 30, -24
	add	x29, sp, 0
	.cfi_def_cfa_register 29
	str	x19, [sp, 16]
	.cfi_offset 19, -16
	mov	x19, x0
	.loc 1 60 0
	mov	x0, x1
.LVL18:
	bl	_Z6printkPKc
.LVL19:
	.loc 1 62 0
	mov	x0, x19
	ldr	x19, [sp, 16]
.LVL20:
	ldp	x29, x30, [sp], 32
	.cfi_restore 30
	.cfi_restore 29
	.cfi_restore 19
	.cfi_def_cfa 31, 0
	ret
	.cfi_endproc
.LFE61:
	.size	_ZN6OutputlsEPKc, .-_ZN6OutputlsEPKc
	.align	2
	.global	_ZN6OutputlsEm
	.type	_ZN6OutputlsEm, %function
_ZN6OutputlsEm:
.LFB62:
	.loc 1 64 0
	.cfi_startproc
.LVL21:
	stp	x29, x30, [sp, -32]!
	.cfi_def_cfa_offset 32
	.cfi_offset 29, -32
	.cfi_offset 30, -24
	add	x29, sp, 0
	.cfi_def_cfa_register 29
	stp	x19, x20, [sp, 16]
	.cfi_offset 19, -16
	.cfi_offset 20, -8
	mov	x20, x0
	mov	x0, x1
.LVL22:
.LBB11:
.LBB12:
	.file 2 "D:\\Pool\\eclipse-workspace_aarch64\\newspace\\raspiOS\\include/templates_implementation/IntegerFormatter.h"
	.loc 2 26 0
	adrp	x19, koutBuf
	add	x19, x19, :lo12:koutBuf
	mov	x3, 65
	mov	x2, x19
	mov	w1, 10
.LVL23:
	bl	_Z4itosmjPcm
.LVL24:
.LBE12:
.LBE11:
	.loc 1 65 0
	mov	x0, x19
	bl	_Z6printkPKc
.LVL25:
	.loc 1 67 0
	mov	x0, x20
	ldp	x19, x20, [sp, 16]
.LVL26:
	ldp	x29, x30, [sp], 32
	.cfi_restore 30
	.cfi_restore 29
	.cfi_restore 19
	.cfi_restore 20
	.cfi_def_cfa 31, 0
	ret
	.cfi_endproc
.LFE62:
	.size	_ZN6OutputlsEm, .-_ZN6OutputlsEm
	.align	2
	.global	_ZN6OutputlsEh
	.type	_ZN6OutputlsEh, %function
_ZN6OutputlsEh:
.LFB54:
	.loc 1 30 0
	.cfi_startproc
.LVL27:
	stp	x29, x30, [sp, -16]!
	.cfi_def_cfa_offset 16
	.cfi_offset 29, -16
	.cfi_offset 30, -8
	add	x29, sp, 0
	.cfi_def_cfa_register 29
	.loc 1 31 0
	and	x1, x1, 255
	bl	_ZN6OutputlsEm
.LVL28:
	.loc 1 32 0
	ldp	x29, x30, [sp], 16
	.cfi_restore 30
	.cfi_restore 29
	.cfi_def_cfa 31, 0
	ret
	.cfi_endproc
.LFE54:
	.size	_ZN6OutputlsEh, .-_ZN6OutputlsEh
	.align	2
	.global	_ZN6OutputlsEt
	.type	_ZN6OutputlsEt, %function
_ZN6OutputlsEt:
.LFB55:
	.loc 1 34 0
	.cfi_startproc
.LVL29:
	stp	x29, x30, [sp, -16]!
	.cfi_def_cfa_offset 16
	.cfi_offset 29, -16
	.cfi_offset 30, -8
	add	x29, sp, 0
	.cfi_def_cfa_register 29
	.loc 1 35 0
	and	x1, x1, 65535
	bl	_ZN6OutputlsEm
.LVL30:
	.loc 1 36 0
	ldp	x29, x30, [sp], 16
	.cfi_restore 30
	.cfi_restore 29
	.cfi_def_cfa 31, 0
	ret
	.cfi_endproc
.LFE55:
	.size	_ZN6OutputlsEt, .-_ZN6OutputlsEt
	.align	2
	.global	_ZN6OutputlsEj
	.type	_ZN6OutputlsEj, %function
_ZN6OutputlsEj:
.LFB56:
	.loc 1 38 0
	.cfi_startproc
.LVL31:
	stp	x29, x30, [sp, -16]!
	.cfi_def_cfa_offset 16
	.cfi_offset 29, -16
	.cfi_offset 30, -8
	add	x29, sp, 0
	.cfi_def_cfa_register 29
	.loc 1 39 0
	uxtw	x1, w1
	bl	_ZN6OutputlsEm
.LVL32:
	.loc 1 40 0
	ldp	x29, x30, [sp], 16
	.cfi_restore 30
	.cfi_restore 29
	.cfi_def_cfa 31, 0
	ret
	.cfi_endproc
.LFE56:
	.size	_ZN6OutputlsEj, .-_ZN6OutputlsEj
	.align	2
	.global	_ZN6OutputlsEs
	.type	_ZN6OutputlsEs, %function
_ZN6OutputlsEs:
.LFB58:
	.loc 1 47 0
	.cfi_startproc
.LVL33:
	stp	x29, x30, [sp, -16]!
	.cfi_def_cfa_offset 16
	.cfi_offset 29, -16
	.cfi_offset 30, -8
	add	x29, sp, 0
	.cfi_def_cfa_register 29
	.loc 1 48 0
	sxth	x1, w1
	bl	_ZN6OutputlsEm
.LVL34:
	.loc 1 49 0
	ldp	x29, x30, [sp], 16
	.cfi_restore 30
	.cfi_restore 29
	.cfi_def_cfa 31, 0
	ret
	.cfi_endproc
.LFE58:
	.size	_ZN6OutputlsEs, .-_ZN6OutputlsEs
	.align	2
	.global	_ZN6OutputlsEi
	.type	_ZN6OutputlsEi, %function
_ZN6OutputlsEi:
.LFB59:
	.loc 1 51 0
	.cfi_startproc
.LVL35:
	stp	x29, x30, [sp, -16]!
	.cfi_def_cfa_offset 16
	.cfi_offset 29, -16
	.cfi_offset 30, -8
	add	x29, sp, 0
	.cfi_def_cfa_register 29
	.loc 1 52 0
	sxtw	x1, w1
	bl	_ZN6OutputlsEm
.LVL36:
	.loc 1 53 0
	ldp	x29, x30, [sp], 16
	.cfi_restore 30
	.cfi_restore 29
	.cfi_def_cfa 31, 0
	ret
	.cfi_endproc
.LFE59:
	.size	_ZN6OutputlsEi, .-_ZN6OutputlsEi
	.align	2
	.global	_ZN6OutputlsEd
	.type	_ZN6OutputlsEd, %function
_ZN6OutputlsEd:
.LFB60:
	.loc 1 55 0
	.cfi_startproc
.LVL37:
	stp	x29, x30, [sp, -16]!
	.cfi_def_cfa_offset 16
	.cfi_offset 29, -16
	.cfi_offset 30, -8
	add	x29, sp, 0
	.cfi_def_cfa_register 29
	.loc 1 56 0
	fcvtzu	x1, d0
	bl	_ZN6OutputlsEm
.LVL38:
	.loc 1 57 0
	ldp	x29, x30, [sp], 16
	.cfi_restore 30
	.cfi_restore 29
	.cfi_def_cfa 31, 0
	ret
	.cfi_endproc
.LFE60:
	.size	_ZN6OutputlsEd, .-_ZN6OutputlsEd
	.align	2
	.global	_ZN6OutputlsEPKv
	.type	_ZN6OutputlsEPKv, %function
_ZN6OutputlsEPKv:
.LFB63:
	.loc 1 69 0
	.cfi_startproc
.LVL39:
	stp	x29, x30, [sp, -32]!
	.cfi_def_cfa_offset 32
	.cfi_offset 29, -32
	.cfi_offset 30, -24
	add	x29, sp, 0
	.cfi_def_cfa_register 29
	stp	x19, x20, [sp, 16]
	.cfi_offset 19, -16
	.cfi_offset 20, -8
	mov	x20, x0
	mov	x0, x1
.LVL40:
.LBB18:
.LBB19:
	.loc 2 26 0
	adrp	x19, koutBuf
	add	x19, x19, :lo12:koutBuf
	mov	x3, 65
	mov	x2, x19
	mov	w1, 16
.LVL41:
	bl	_Z4itosmjPcm
.LVL42:
.LBE19:
.LBE18:
	.loc 1 70 0
	mov	x0, x19
	bl	_Z6printkPKc
.LVL43:
	.loc 1 72 0
	mov	x0, x20
	ldp	x19, x20, [sp, 16]
.LVL44:
	ldp	x29, x30, [sp], 32
	.cfi_restore 30
	.cfi_restore 29
	.cfi_restore 19
	.cfi_restore 20
	.cfi_def_cfa 31, 0
	ret
	.cfi_endproc
.LFE63:
	.size	_ZN6OutputlsEPKv, .-_ZN6OutputlsEPKv
	.align	2
	.global	_ZN6OutputlsEPVKv
	.type	_ZN6OutputlsEPVKv, %function
_ZN6OutputlsEPVKv:
.LFB64:
	.loc 1 75 0
	.cfi_startproc
.LVL45:
	stp	x29, x30, [sp, -16]!
	.cfi_def_cfa_offset 16
	.cfi_offset 29, -16
	.cfi_offset 30, -8
	add	x29, sp, 0
	.cfi_def_cfa_register 29
	.loc 1 76 0
	bl	_ZN6OutputlsEPKv
.LVL46:
	.loc 1 77 0
	ldp	x29, x30, [sp], 16
	.cfi_restore 30
	.cfi_restore 29
	.cfi_def_cfa 31, 0
	ret
	.cfi_endproc
.LFE64:
	.size	_ZN6OutputlsEPVKv, .-_ZN6OutputlsEPVKv
	.align	2
	.global	_ZN6Output5flushEv
	.type	_ZN6Output5flushEv, %function
_ZN6Output5flushEv:
.LFB65:
	.loc 1 79 0
	.cfi_startproc
.LVL47:
	stp	x29, x30, [sp, -32]!
	.cfi_def_cfa_offset 32
	.cfi_offset 29, -32
	.cfi_offset 30, -24
	add	x29, sp, 0
	.cfi_def_cfa_register 29
	str	x19, [sp, 16]
	.cfi_offset 19, -16
	mov	x19, x0
	.loc 1 80 0
	bl	_Z5flushv
.LVL48:
	.loc 1 82 0
	mov	x0, x19
	ldr	x19, [sp, 16]
.LVL49:
	ldp	x29, x30, [sp], 32
	.cfi_restore 30
	.cfi_restore 29
	.cfi_restore 19
	.cfi_def_cfa 31, 0
	ret
	.cfi_endproc
.LFE65:
	.size	_ZN6Output5flushEv, .-_ZN6Output5flushEv
	.align	2
	.global	_ZlsR6OutputRK9StringRef
	.type	_ZlsR6OutputRK9StringRef, %function
_ZlsR6OutputRK9StringRef:
.LFB66:
	.loc 1 86 0
	.cfi_startproc
.LVL50:
	stp	x29, x30, [sp, -48]!
	.cfi_def_cfa_offset 48
	.cfi_offset 29, -48
	.cfi_offset 30, -40
	add	x29, sp, 0
	.cfi_def_cfa_register 29
	stp	x20, x21, [sp, 24]
	.cfi_offset 20, -24
	.cfi_offset 21, -16
	mov	x21, x0
.LVL51:
.LBB26:
.LBB27:
	.file 3 "D:\\Pool\\eclipse-workspace_aarch64\\newspace\\raspiOS\\include/templates_implementation/data_structures/VectorRef.h"
	.loc 3 31 0
	ldr	x20, [x1, 8]
.LVL52:
.LBE27:
.LBE26:
	.loc 1 89 0
	cbz	x20, .L34
	str	x19, [x29, 16]
	.cfi_offset 19, -32
.LBB28:
.LBB29:
	.loc 3 25 0
	ldr	x19, [x1]
.LVL53:
	add	x20, x19, x20
.LVL54:
.L35:
.LBE29:
.LBE28:
.LBB30:
.LBB31:
	.loc 1 26 0
	ldrb	w0, [x19], 1
.LVL55:
	bl	_Z6printkc
.LVL56:
.LBE31:
.LBE30:
	.loc 1 90 0
	cmp	x20, x19
	bne	.L35
	ldr	x19, [x29, 16]
	.cfi_restore 19
.LVL57:
.L34:
	.loc 1 93 0
	mov	x0, x21
	ldp	x20, x21, [sp, 24]
.LVL58:
	ldp	x29, x30, [sp], 48
	.cfi_restore 30
	.cfi_restore 29
	.cfi_restore 20
	.cfi_restore 21
	.cfi_def_cfa 31, 0
	ret
	.cfi_endproc
.LFE66:
	.size	_ZlsR6OutputRK9StringRef, .-_ZlsR6OutputRK9StringRef
	.section	.rodata.str1.8,"aMS",@progbits,1
	.align	3
.LC0:
	.string	"true"
	.zero	3
.LC1:
	.string	"false"
	.text
.Letext0:
	.file 4 "d:\\installed\\gcc-linaro-7.2.1-2017.11-i686-mingw32_aarch64-elf\\aarch64-elf\\include\\c++\\7.2.1\\cstddef"
	.file 5 "d:\\installed\\gcc-linaro-7.2.1-2017.11-i686-mingw32_aarch64-elf\\aarch64-elf\\include\\c++\\7.2.1\\cstdint"
	.file 6 "d:\\installed\\gcc-linaro-7.2.1-2017.11-i686-mingw32_aarch64-elf\\aarch64-elf\\include\\c++\\7.2.1\\aarch64-elf\\bits\\c++config.h"
	.file 7 "d:\\installed\\gcc-linaro-7.2.1-2017.11-i686-mingw32_aarch64-elf\\lib\\gcc\\aarch64-elf\\7.2.1\\include\\stddef.h"
	.file 8 "d:\\installed\\gcc-linaro-7.2.1-2017.11-i686-mingw32_aarch64-elf\\lib\\gcc\\aarch64-elf\\7.2.1\\include\\stdint-gcc.h"
	.file 9 "D:\\Pool\\eclipse-workspace_aarch64\\newspace\\raspiOS\\include/def.h"
	.file 10 "D:\\Pool\\eclipse-workspace_aarch64\\newspace\\raspiOS\\include/io/Output.h"
	.file 11 "D:\\Pool\\eclipse-workspace_aarch64\\newspace\\raspiOS\\include/generic_util.h"
	.file 12 "D:\\Pool\\eclipse-workspace_aarch64\\newspace\\raspiOS\\include/IntegerFormatter.h"
	.file 13 "D:\\Pool\\eclipse-workspace_aarch64\\newspace\\raspiOS\\include/memory/MemoryChunk.h"
	.file 14 "D:\\Pool\\eclipse-workspace_aarch64\\newspace\\raspiOS\\include/memory/MemoryManager.h"
	.file 15 "D:\\Pool\\eclipse-workspace_aarch64\\newspace\\raspiOS\\include/data_structures/Vector.h"
	.file 16 "D:\\Pool\\eclipse-workspace_aarch64\\newspace\\raspiOS\\include/templates_implementation/data_structures/Vector.h"
	.file 17 "D:\\Pool\\eclipse-workspace_aarch64\\newspace\\raspiOS\\include/data_structures/String.h"
	.file 18 "D:\\Pool\\eclipse-workspace_aarch64\\newspace\\raspiOS\\include/data_structures/VectorRef.h"
	.file 19 "D:\\Pool\\eclipse-workspace_aarch64\\newspace\\raspiOS\\include/data_structures/StringRef.h"
	.file 20 "D:\\Pool\\eclipse-workspace_aarch64\\newspace\\raspiOS\\include/io/printk.h"
	.file 21 "<built-in>"