	.arch armv8.2-a+crc
	.file	"FAT32ReadUtil.cpp"
	.text
.Ltext0:
	.cfi_sections	.debug_frame
	.align	2
	.global	_ZN13FAT32ReadUtil15findByShortNameEPK11FATDirEntrymPKcS4_
	.type	_ZN13FAT32ReadUtil15findByShortNameEPK11FATDirEntrymPKcS4_, %function
_ZN13FAT32ReadUtil15findByShortNameEPK11FATDirEntrymPKcS4_:
.LFB1348:
	.file 1 "D:/Pool/eclipse-workspace_aarch64/newspace/raspiOS/src/filesystem/fat/FAT32ReadUtil.cpp"
	.loc 1 9 0
	.cfi_startproc
.LVL0:
	stp	x29, x30, [sp, -96]!
	.cfi_def_cfa_offset 96
	.cfi_offset 29, -96
	.cfi_offset 30, -88
	add	x29, sp, 0
	.cfi_def_cfa_register 29
	stp	x19, x20, [sp, 16]
	stp	x21, x22, [sp, 32]
	stp	x23, x24, [sp, 48]
	.cfi_offset 19, -80
	.cfi_offset 20, -72
	.cfi_offset 21, -64
	.cfi_offset 22, -56
	.cfi_offset 23, -48
	.cfi_offset 24, -40
	mov	x22, x0
	mov	x21, x1
	mov	x24, x2
	mov	x23, x3
.LVL1:
.LBB8:
	.loc 1 10 0
	mov	x19, 0
	b	.L4
.LVL2:
.L3:
	.loc 1 10 0 is_stmt 0 discriminator 4
	add	x19, x19, 1
.LVL3:
.L4:
	.loc 1 10 0 discriminator 1
	cmp	x19, x21
	beq	.L5
	.loc 1 12 0 is_stmt 1
	add	x20, x22, x19, lsl 5
	mov	x0, x20
	bl	_ZNK11FATDirEntry19uni_isLongNameEntryEv
.LVL4:
	tst	w0, 255
	bne	.L3
	.loc 1 12 0 is_stmt 0 discriminator 1
	mov	x1, x24
	add	x0, x29, 64
	bl	_ZN9StringRefC1EPKv
.LVL5:
	mov	x1, x23
	add	x0, x29, 80
	bl	_ZN9StringRefC1EPKv
.LVL6:
	add	x2, x29, 80
	add	x1, x29, 64
	mov	x0, x20
	bl	_ZNK11FATDirEntry15shortNameEqualsERK9StringRefS2_
.LVL7:
	tst	w0, 255
	beq	.L3
	b	.L1
.L5:
.LBE8:
	.loc 1 15 0 is_stmt 1
	mov	x19, -1
.LVL8:
.L1:
	.loc 1 16 0
	mov	x0, x19
	ldp	x19, x20, [sp, 16]
	ldp	x21, x22, [sp, 32]
.LVL9:
	ldp	x23, x24, [sp, 48]
.LVL10:
	ldp	x29, x30, [sp], 96
	.cfi_restore 30
	.cfi_restore 29
	.cfi_restore 23
	.cfi_restore 24
	.cfi_restore 21
	.cfi_restore 22
	.cfi_restore 19
	.cfi_restore 20
	.cfi_def_cfa 31, 0
	ret
	.cfi_endproc
.LFE1348:
	.size	_ZN13FAT32ReadUtil15findByShortNameEPK11FATDirEntrymPKcS4_, .-_ZN13FAT32ReadUtil15findByShortNameEPK11FATDirEntrymPKcS4_
	.align	2
	.global	_ZN13FAT32ReadUtil14findByLongNameEPK11FATDirEntrymPKc
	.type	_ZN13FAT32ReadUtil14findByLongNameEPK11FATDirEntrymPKc, %function
_ZN13FAT32ReadUtil14findByLongNameEPK11FATDirEntrymPKc:
.LFB1349:
	.loc 1 18 0
	.cfi_startproc
.LVL11:
	stp	x29, x30, [sp, -80]!
	.cfi_def_cfa_offset 80
	.cfi_offset 29, -80
	.cfi_offset 30, -72
	add	x29, sp, 0
	.cfi_def_cfa_register 29
	stp	x19, x20, [sp, 16]
	stp	x21, x22, [sp, 32]
	stp	x23, x24, [sp, 48]
	.cfi_offset 19, -64
	.cfi_offset 20, -56
	.cfi_offset 21, -48
	.cfi_offset 22, -40
	.cfi_offset 23, -32
	.cfi_offset 24, -24
	mov	x23, x0
	mov	x22, x1
	mov	x24, x2
.LVL12:
	.loc 1 19 0
	mov	x19, 0
	b	.L8
.LVL13:
.L9:
.LBB9:
	.loc 1 23 0 discriminator 4
	cmp	x19, x22
	beq	.L12
	.loc 1 25 0
	add	x21, x23, x19, lsl 5
.LVL14:
	.loc 1 26 0
	mov	x0, x21
	bl	_ZNK16FATLongNameEntry18getLastAppearEntryEv
.LVL15:
	mov	x20, x0
.LVL16:
	.loc 1 27 0
	mov	x1, x24
	add	x0, x29, 64
.LVL17:
	bl	_ZN9StringRefC1EPKv
.LVL18:
	mov	w3, 0
	add	x2, x29, 64
	mov	x1, x21
	mov	x0, x20
	bl	_ZNK16FATLongNameEntry23nameEqulasAsciiNameUptoEPKS_RK9StringRefb
.LVL19:
	tst	w0, 255
	bne	.L7
	.loc 1 30 0
	sub	x20, x20, x21
.LVL20:
	add	x19, x19, x20, asr 5
.LVL21:
	add	x19, x19, 1
.LVL22:
.L8:
	.loc 1 22 0 discriminator 8
	cmp	x19, x22
	beq	.L9
	.loc 1 22 0 is_stmt 0 discriminator 1
	add	x0, x23, x19, lsl 5
	bl	_ZNK11FATDirEntry19uni_isLongNameEntryEv
.LVL23:
	tst	w0, 255
	bne	.L9
	.loc 1 22 0
	add	x19, x19, 1
.LVL24:
	b	.L8
.L12:
	.loc 1 24 0 is_stmt 1
	mov	x19, -1
.LVL25:
.L7:
.LBE9:
	.loc 1 32 0
	mov	x0, x19
	ldp	x19, x20, [sp, 16]
	ldp	x21, x22, [sp, 32]
.LVL26:
	ldp	x23, x24, [sp, 48]
.LVL27:
	ldp	x29, x30, [sp], 80
	.cfi_restore 30
	.cfi_restore 29
	.cfi_restore 23
	.cfi_restore 24
	.cfi_restore 21
	.cfi_restore 22
	.cfi_restore 19
	.cfi_restore 20
	.cfi_def_cfa 31, 0
	ret
	.cfi_endproc
.LFE1349:
	.size	_ZN13FAT32ReadUtil14findByLongNameEPK11FATDirEntrymPKc, .-_ZN13FAT32ReadUtil14findByLongNameEPK11FATDirEntrymPKc
	.align	2
	.global	_ZN13FAT32ReadUtil17getNextEntryIndexEPK10FAT32Entrym
	.type	_ZN13FAT32ReadUtil17getNextEntryIndexEPK10FAT32Entrym, %function
_ZN13FAT32ReadUtil17getNextEntryIndexEPK10FAT32Entrym:
.LFB1353:
	.loc 1 62 0
	.cfi_startproc
.LVL28:
	stp	x29, x30, [sp, -16]!
	.cfi_def_cfa_offset 16
	.cfi_offset 29, -16
	.cfi_offset 30, -8
	add	x29, sp, 0
	.cfi_def_cfa_register 29
	.loc 1 63 0
	add	x0, x0, x1, lsl 2
.LVL29:
	bl	_ZNK10FAT32Entry8getAsIntEv
.LVL30:
	.loc 1 64 0
	uxtw	x0, w0
	ldp	x29, x30, [sp], 16
	.cfi_restore 30
	.cfi_restore 29
	.cfi_def_cfa 31, 0
	ret
	.cfi_endproc
.LFE1353:
	.size	_ZN13FAT32ReadUtil17getNextEntryIndexEPK10FAT32Entrym, .-_ZN13FAT32ReadUtil17getNextEntryIndexEPK10FAT32Entrym
	.align	2
	.global	_ZN13FAT32ReadUtil19getLastClusterIndexEPK10FAT32Entrym
	.type	_ZN13FAT32ReadUtil19getLastClusterIndexEPK10FAT32Entrym, %function
_ZN13FAT32ReadUtil19getLastClusterIndexEPK10FAT32Entrym:
.LFB1354:
	.loc 1 66 0
	.cfi_startproc
.LVL31:
	stp	x29, x30, [sp, -32]!
	.cfi_def_cfa_offset 32
	.cfi_offset 29, -32
	.cfi_offset 30, -24
	add	x29, sp, 0
	.cfi_def_cfa_register 29
	stp	x19, x20, [sp, 16]
	.cfi_offset 19, -16
	.cfi_offset 20, -8
	mov	x20, x0
	mov	x19, x1
	.loc 1 67 0
	cmp	x1, 1
	bls	.L19
.LVL32:
.L18:
	.loc 1 69 0
	add	x0, x20, x19, lsl 2
	bl	_ZNK10FAT32Entry6isLastEv
.LVL33:
	tst	w0, 255
	beq	.L17
	.loc 1 70 0
	add	x19, x19, 1
.LVL34:
	.loc 1 69 0
	b	.L18
.LVL35:
.L19:
	.loc 1 68 0
	mov	x19, -1
.LVL36:
.L17:
	.loc 1 72 0
	mov	x0, x19
	ldp	x19, x20, [sp, 16]
.LVL37:
	ldp	x29, x30, [sp], 32
	.cfi_restore 30
	.cfi_restore 29
	.cfi_restore 19
	.cfi_restore 20
	.cfi_def_cfa 31, 0
	ret
	.cfi_endproc
.LFE1354:
	.size	_ZN13FAT32ReadUtil19getLastClusterIndexEPK10FAT32Entrym, .-_ZN13FAT32ReadUtil19getLastClusterIndexEPK10FAT32Entrym
	.align	2
	.global	_ZN13FAT32ReadUtil25findFirstFreeClusterIndexEPK10FAT32Entrymm
	.type	_ZN13FAT32ReadUtil25findFirstFreeClusterIndexEPK10FAT32Entrymm, %function
_ZN13FAT32ReadUtil25findFirstFreeClusterIndexEPK10FAT32Entrymm:
.LFB1355:
	.loc 1 75 0
	.cfi_startproc
.LVL38:
	stp	x29, x30, [sp, -48]!
	.cfi_def_cfa_offset 48
	.cfi_offset 29, -48
	.cfi_offset 30, -40
	add	x29, sp, 0
	.cfi_def_cfa_register 29
	stp	x19, x20, [sp, 16]
	str	x21, [sp, 32]
	.cfi_offset 19, -32
	.cfi_offset 20, -24
	.cfi_offset 21, -16
	mov	x21, x0
	mov	x20, x1
	.loc 1 76 0
	cmp	x2, 1
	bls	.L26
	mov	x19, x2
.LVL39:
.L24:
	.loc 1 78 0
	cmp	x19, x20
	beq	.L23
	.loc 1 78 0 is_stmt 0 discriminator 1
	add	x0, x21, x19, lsl 2
	bl	_ZNK10FAT32Entry6isFreeEv
.LVL40:
	tst	w0, 255
	bne	.L23
	.loc 1 79 0 is_stmt 1
	add	x19, x19, 1
.LVL41:
	.loc 1 78 0
	b	.L24
.LVL42:
.L26:
	.loc 1 77 0
	mov	x19, 2
	b	.L24
.LVL43:
.L23:
	.loc 1 80 0 discriminator 4
	cmp	x19, x20
	beq	.L29
.LVL44:
.L21:
	.loc 1 81 0
	mov	x0, x19
	ldp	x19, x20, [sp, 16]
.LVL45:
	ldr	x21, [sp, 32]
.LVL46:
	ldp	x29, x30, [sp], 48
	.cfi_remember_state
	.cfi_restore 30
	.cfi_restore 29
	.cfi_restore 21
	.cfi_restore 19
	.cfi_restore 20
	.cfi_def_cfa 31, 0
	ret
.LVL47:
.L29:
	.cfi_restore_state
	.loc 1 80 0
	mov	x19, -1
.LVL48:
	b	.L21
	.cfi_endproc
.LFE1355:
	.size	_ZN13FAT32ReadUtil25findFirstFreeClusterIndexEPK10FAT32Entrymm, .-_ZN13FAT32ReadUtil25findFirstFreeClusterIndexEPK10FAT32Entrymm
	.section	.text._ZN6VectorI11FATDirEntryED2Ev,"axG",@progbits,_ZN6VectorI11FATDirEntryED5Ev,comdat
	.align	2
	.weak	_ZN6VectorI11FATDirEntryED2Ev
	.type	_ZN6VectorI11FATDirEntryED2Ev, %function
_ZN6VectorI11FATDirEntryED2Ev:
.LFB1592:
	.file 2 "D:\\Pool\\eclipse-workspace_aarch64\\newspace\\raspiOS\\include/templates_implementation/data_structures/Vector.h"
	.loc 2 53 0
	.cfi_startproc
.LVL49:
.LBB10:
	.loc 2 55 0
	ldr	x1, [x0]
	cbz	x1, .L33
.LBE10:
	.loc 2 53 0
	stp	x29, x30, [sp, -16]!
	.cfi_def_cfa_offset 16
	.cfi_offset 29, -16
	.cfi_offset 30, -8
	add	x29, sp, 0
	.cfi_def_cfa_register 29
.LBB11:
	.loc 2 57 0
	adrp	x0, mman
.LVL50:
	add	x0, x0, :lo12:mman
	bl	_ZN13MemoryManager10deallocateEPv
.LVL51:
.LBE11:
	.loc 2 60 0
	ldp	x29, x30, [sp], 16
	.cfi_restore 30
	.cfi_restore 29
	.cfi_def_cfa 31, 0
	ret
.LVL52:
.L33:
	ret
	.cfi_endproc
.LFE1592:
	.size	_ZN6VectorI11FATDirEntryED2Ev, .-_ZN6VectorI11FATDirEntryED2Ev
	.weak	_ZN6VectorI11FATDirEntryED1Ev
	.set	_ZN6VectorI11FATDirEntryED1Ev,_ZN6VectorI11FATDirEntryED2Ev
	.section	.text._ZN6VectorI11FATDirEntryE7getDataEv,"axG",@progbits,_ZN6VectorI11FATDirEntryE7getDataEv,comdat
	.align	2
	.weak	_ZN6VectorI11FATDirEntryE7getDataEv
	.type	_ZN6VectorI11FATDirEntryE7getDataEv, %function
_ZN6VectorI11FATDirEntryE7getDataEv:
.LFB1594:
	.loc 2 91 0
	.cfi_startproc
.LVL53:
	.loc 2 94 0
	ldr	x0, [x0]
.LVL54:
	ret
	.cfi_endproc
.LFE1594:
	.size	_ZN6VectorI11FATDirEntryE7getDataEv, .-_ZN6VectorI11FATDirEntryE7getDataEv
	.section	.text._ZNK6VectorI10FAT32EntryEixEm,"axG",@progbits,_ZNK6VectorI10FAT32EntryEixEm,comdat
	.align	2
	.weak	_ZNK6VectorI10FAT32EntryEixEm
	.type	_ZNK6VectorI10FAT32EntryEixEm, %function
_ZNK6VectorI10FAT32EntryEixEm:
.LFB1595:
	.loc 2 63 0
	.cfi_startproc
.LVL55:
	.loc 2 65 0
	ldr	x0, [x0]
.LVL56:
	.loc 2 66 0
	add	x0, x0, x1, lsl 2
	ret
	.cfi_endproc
.LFE1595:
	.size	_ZNK6VectorI10FAT32EntryEixEm, .-_ZNK6VectorI10FAT32EntryEixEm
	.text
	.align	2
	.global	_ZN13FAT32ReadUtil13getEntryCountERK6VectorI10FAT32EntryEm
	.type	_ZN13FAT32ReadUtil13getEntryCountERK6VectorI10FAT32EntryEm, %function
_ZN13FAT32ReadUtil13getEntryCountERK6VectorI10FAT32EntryEm:
.LFB1352:
	.loc 1 48 0
	.cfi_startproc
.LVL57:
	stp	x29, x30, [sp, -48]!
	.cfi_def_cfa_offset 48
	.cfi_offset 29, -48
	.cfi_offset 30, -40
	add	x29, sp, 0
	.cfi_def_cfa_register 29
	str	x20, [sp, 24]
	.cfi_offset 20, -24
	.loc 1 49 0
	cmp	x1, 1
	bls	.L41
	str	x19, [x29, 16]
	.cfi_offset 19, -32
	str	x21, [x29, 32]
	.cfi_offset 21, -16
	mov	x21, x0
	mov	x19, x1
	.loc 1 49 0 is_stmt 0 discriminator 2
	bl	_ZNK6VectorI10FAT32EntryEixEm
.LVL58:
	bl	_ZNK10FAT32Entry9isAllocedEv
.LVL59:
	tst	w0, 255
	beq	.L42
	.loc 1 51 0 is_stmt 1
	mov	x20, 0
.L40:
.LVL60:
	.loc 1 54 0
	add	x20, x20, 1
.LVL61:
	.loc 1 55 0
	mov	x1, x19
	mov	x0, x21
	bl	_ZNK6VectorI10FAT32EntryEixEm
.LVL62:
	bl	_ZNK10FAT32Entry6isLastEv
.LVL63:
	tst	w0, 255
	bne	.L44
	.loc 1 57 0
	mov	x1, x19
	mov	x0, x21
	bl	_ZNK6VectorI10FAT32EntryEixEm
.LVL64:
	bl	_ZNK10FAT32Entry8getAsIntEv
.LVL65:
	uxtw	x19, w0
.LVL66:
	.loc 1 54 0
	b	.L40
.LVL67:
.L41:
	.cfi_restore 19
	.cfi_restore 21
	.loc 1 50 0
	mov	x20, 0
.LVL68:
.L38:
	.loc 1 60 0
	mov	x0, x20
	ldr	x20, [sp, 24]
	ldp	x29, x30, [sp], 48
	.cfi_restore 30
	.cfi_restore 29
	.cfi_restore 20
	.cfi_def_cfa 31, 0
	ret
.LVL69:
.L42:
	.cfi_def_cfa 29, 48
	.cfi_offset 19, -32
	.cfi_offset 20, -24
	.cfi_offset 21, -16
	.cfi_offset 29, -48
	.cfi_offset 30, -40
	.loc 1 50 0
	mov	x20, 0
	ldr	x19, [x29, 16]
	.cfi_remember_state
	.cfi_restore 19
.LVL70:
	ldr	x21, [x29, 32]
	.cfi_restore 21
.LVL71:
	b	.L38
.LVL72:
.L44:
	.cfi_restore_state
	ldr	x19, [x29, 16]
	.cfi_restore 19
.LVL73:
	ldr	x21, [x29, 32]
	.cfi_restore 21
.LVL74:
	b	.L38
	.cfi_endproc
.LFE1352:
	.size	_ZN13FAT32ReadUtil13getEntryCountERK6VectorI10FAT32EntryEm, .-_ZN13FAT32ReadUtil13getEntryCountERK6VectorI10FAT32EntryEm
	.section	.text._ZN6VectorI11FATDirEntryEC2EOS1_,"axG",@progbits,_ZN6VectorI11FATDirEntryEC5EOS1_,comdat
	.align	2
	.weak	_ZN6VectorI11FATDirEntryEC2EOS1_
	.type	_ZN6VectorI11FATDirEntryEC2EOS1_, %function
_ZN6VectorI11FATDirEntryEC2EOS1_:
.LFB1597:
	.loc 2 32 0
	.cfi_startproc
.LVL75:
.LBB12:
	.loc 2 33 0
	ldr	x2, [x1]
	str	x2, [x0]
	ldr	x2, [x1, 8]
	str	x2, [x0, 8]
	ldr	x2, [x1, 16]
	str	x2, [x0, 16]
	.loc 2 35 0
	str	xzr, [x1]
	.loc 2 36 0
	str	xzr, [x1, 8]
	.loc 2 37 0
	str	xzr, [x1, 16]
.LBE12:
	.loc 2 38 0
	ret
	.cfi_endproc
.LFE1597:
	.size	_ZN6VectorI11FATDirEntryEC2EOS1_, .-_ZN6VectorI11FATDirEntryEC2EOS1_
	.weak	_ZN6VectorI11FATDirEntryEC1EOS1_
	.set	_ZN6VectorI11FATDirEntryEC1EOS1_,_ZN6VectorI11FATDirEntryEC2EOS1_
	.section	.text._ZN6VectorIPK11FATDirEntryED2Ev,"axG",@progbits,_ZN6VectorIPK11FATDirEntryED5Ev,comdat
	.align	2
	.weak	_ZN6VectorIPK11FATDirEntryED2Ev
	.type	_ZN6VectorIPK11FATDirEntryED2Ev, %function
_ZN6VectorIPK11FATDirEntryED2Ev:
.LFB1603:
	.loc 2 53 0
	.cfi_startproc
.LVL76:
.LBB13:
	.loc 2 55 0
	ldr	x1, [x0]
	cbz	x1, .L49
.LBE13:
	.loc 2 53 0
	stp	x29, x30, [sp, -16]!
	.cfi_def_cfa_offset 16
	.cfi_offset 29, -16
	.cfi_offset 30, -8
	add	x29, sp, 0
	.cfi_def_cfa_register 29
.LBB14:
	.loc 2 57 0
	adrp	x0, mman
.LVL77:
	add	x0, x0, :lo12:mman
	bl	_ZN13MemoryManager10deallocateEPv
.LVL78:
.LBE14:
	.loc 2 60 0
	ldp	x29, x30, [sp], 16
	.cfi_restore 30
	.cfi_restore 29
	.cfi_def_cfa 31, 0
	ret
.LVL79:
.L49:
	ret
	.cfi_endproc
.LFE1603:
	.size	_ZN6VectorIPK11FATDirEntryED2Ev, .-_ZN6VectorIPK11FATDirEntryED2Ev
	.weak	_ZN6VectorIPK11FATDirEntryED1Ev
	.set	_ZN6VectorIPK11FATDirEntryED1Ev,_ZN6VectorIPK11FATDirEntryED2Ev
	.section	.text._ZNK6VectorI11FATDirEntryE7getSizeEv,"axG",@progbits,_ZNK6VectorI11FATDirEntryE7getSizeEv,comdat
	.align	2
	.weak	_ZNK6VectorI11FATDirEntryE7getSizeEv
	.type	_ZNK6VectorI11FATDirEntryE7getSizeEv, %function
_ZNK6VectorI11FATDirEntryE7getSizeEv:
.LFB1605:
	.loc 2 103 0
	.cfi_startproc
.LVL80:
	.loc 2 106 0
	ldr	x0, [x0, 16]
.LVL81:
	ret
	.cfi_endproc
.LFE1605:
	.size	_ZNK6VectorI11FATDirEntryE7getSizeEv, .-_ZNK6VectorI11FATDirEntryE7getSizeEv
	.section	.text._ZNK6VectorI11FATDirEntryEixEm,"axG",@progbits,_ZNK6VectorI11FATDirEntryEixEm,comdat
	.align	2
	.weak	_ZNK6VectorI11FATDirEntryEixEm
	.type	_ZNK6VectorI11FATDirEntryEixEm, %function
_ZNK6VectorI11FATDirEntryEixEm:
.LFB1606:
	.loc 2 63 0
	.cfi_startproc
.LVL82:
	.loc 2 65 0
	ldr	x0, [x0]
.LVL83:
	.loc 2 66 0
	add	x0, x0, x1, lsl 5
	ret
	.cfi_endproc
.LFE1606:
	.size	_ZNK6VectorI11FATDirEntryEixEm, .-_ZNK6VectorI11FATDirEntryEixEm
	.section	.text._ZNK6VectorI11FATDirEntryE7getDataEv,"axG",@progbits,_ZNK6VectorI11FATDirEntryE7getDataEv,comdat
	.align	2
	.weak	_ZNK6VectorI11FATDirEntryE7getDataEv
	.type	_ZNK6VectorI11FATDirEntryE7getDataEv, %function
_ZNK6VectorI11FATDirEntryE7getDataEv:
.LFB1607:
	.loc 2 97 0
	.cfi_startproc
.LVL84:
	.loc 2 100 0
	ldr	x0, [x0]
.LVL85:
	ret
	.cfi_endproc
.LFE1607:
	.size	_ZNK6VectorI11FATDirEntryE7getDataEv, .-_ZNK6VectorI11FATDirEntryE7getDataEv
	.section	.text._ZN6VectorIPK11FATDirEntryEC2EOS3_,"axG",@progbits,_ZN6VectorIPK11FATDirEntryEC5EOS3_,comdat
	.align	2
	.weak	_ZN6VectorIPK11FATDirEntryEC2EOS3_
	.type	_ZN6VectorIPK11FATDirEntryEC2EOS3_, %function
_ZN6VectorIPK11FATDirEntryEC2EOS3_:
.LFB1610:
	.loc 2 32 0
	.cfi_startproc
.LVL86:
.LBB15:
	.loc 2 33 0
	ldr	x2, [x1]
	str	x2, [x0]
	ldr	x2, [x1, 8]
	str	x2, [x0, 8]
	ldr	x2, [x1, 16]
	str	x2, [x0, 16]
	.loc 2 35 0
	str	xzr, [x1]
	.loc 2 36 0
	str	xzr, [x1, 8]
	.loc 2 37 0
	str	xzr, [x1, 16]
.LBE15:
	.loc 2 38 0
	ret
	.cfi_endproc
.LFE1610:
	.size	_ZN6VectorIPK11FATDirEntryEC2EOS3_, .-_ZN6VectorIPK11FATDirEntryEC2EOS3_
	.weak	_ZN6VectorIPK11FATDirEntryEC1EOS3_
	.set	_ZN6VectorIPK11FATDirEntryEC1EOS3_,_ZN6VectorIPK11FATDirEntryEC2EOS3_
	.section	.text._ZN13MemoryManager10allocateAsIP11FATDirEntryEET_m,"axG",@progbits,_ZN13MemoryManager10allocateAsIP11FATDirEntryEET_m,comdat
	.align	2
	.weak	_ZN13MemoryManager10allocateAsIP11FATDirEntryEET_m
	.type	_ZN13MemoryManager10allocateAsIP11FATDirEntryEET_m, %function
_ZN13MemoryManager10allocateAsIP11FATDirEntryEET_m:
.LFB1743:
	.file 3 "D:\\Pool\\eclipse-workspace_aarch64\\newspace\\raspiOS\\include/templates_implementation/MemoryManager.h"
	.loc 3 15 0
	.cfi_startproc
.LVL87:
	stp	x29, x30, [sp, -16]!
	.cfi_def_cfa_offset 16
	.cfi_offset 29, -16
	.cfi_offset 30, -8
	add	x29, sp, 0
	.cfi_def_cfa_register 29
	.loc 3 17 0
	bl	_ZN13MemoryManager8allocateEm
.LVL88:
	.loc 3 18 0
	ldp	x29, x30, [sp], 16
	.cfi_restore 30
	.cfi_restore 29
	.cfi_def_cfa 31, 0
	ret
	.cfi_endproc
.LFE1743:
	.size	_ZN13MemoryManager10allocateAsIP11FATDirEntryEET_m, .-_ZN13MemoryManager10allocateAsIP11FATDirEntryEET_m
	.section	.text._ZN6VectorI11FATDirEntryE14resizeCapacityEm,"axG",@progbits,_ZN6VectorI11FATDirEntryE14resizeCapacityEm,comdat
	.align	2
	.weak	_ZN6VectorI11FATDirEntryE14resizeCapacityEm
	.type	_ZN6VectorI11FATDirEntryE14resizeCapacityEm, %function
_ZN6VectorI11FATDirEntryE14resizeCapacityEm:
.LFB1710:
	.loc 2 167 0
	.cfi_startproc
.LVL89:
	.loc 2 169 0
	ldr	x2, [x0, 8]
	cmp	x2, x1
	beq	.L62
	.loc 2 167 0
	stp	x29, x30, [sp, -48]!
	.cfi_def_cfa_offset 48
	.cfi_offset 29, -48
	.cfi_offset 30, -40
	add	x29, sp, 0
	.cfi_def_cfa_register 29
	stp	x19, x20, [sp, 16]
	stp	x21, x22, [sp, 32]
	.cfi_offset 19, -32
	.cfi_offset 20, -24
	.cfi_offset 21, -16
	.cfi_offset 22, -8
	mov	x20, x1
	mov	x19, x0
	.loc 2 171 0
	lsl	x22, x1, 5
	adrp	x21, mman
	add	x21, x21, :lo12:mman
	mov	x3, -1
	mov	x2, x22
	ldr	x1, [x0]
.LVL90:
	mov	x0, x21
.LVL91:
	bl	_ZN13MemoryManager10reallocateEPvmm
.LVL92:
	.loc 2 172 0
	mov	x1, x22
	mov	x0, x21
	bl	_ZN13MemoryManager10allocateAsIP11FATDirEntryEET_m
.LVL93:
	mov	x21, x0
.LVL94:
	.loc 2 173 0
	cbz	x0, .L63
.LBB16:
	.loc 2 176 0
	mov	x4, 0
.LVL95:
.L61:
	.loc 2 176 0 is_stmt 0 discriminator 3
	ldr	x0, [x19, 16]
	cmp	x0, x4
	beq	.L60
	.loc 2 177 0 is_stmt 1 discriminator 2
	ldr	x3, [x19]
	lsl	x2, x4, 5
	add	x3, x3, x2
	add	x2, x21, x2
	ldp	x0, x1, [x3]
	stp	x0, x1, [x2]
	ldp	x0, x1, [x3, 16]
	stp	x0, x1, [x2, 16]
	.loc 2 176 0 discriminator 2
	add	x4, x4, 1
.LVL96:
	b	.L61
.L60:
.LBE16:
	.loc 2 178 0
	ldr	x1, [x19]
	adrp	x0, mman
	add	x0, x0, :lo12:mman
	bl	_ZN13MemoryManager10deallocateEPv
.LVL97:
	.loc 2 181 0
	str	x21, [x19]
	.loc 2 182 0
	str	x20, [x19, 8]
	.loc 2 183 0
	mov	w0, 1
.L59:
	.loc 2 184 0
	ldp	x19, x20, [sp, 16]
.LVL98:
	ldp	x21, x22, [sp, 32]
.LVL99:
	ldp	x29, x30, [sp], 48
	.cfi_restore 30
	.cfi_restore 29
	.cfi_restore 21
	.cfi_restore 22
	.cfi_restore 19
	.cfi_restore 20
	.cfi_def_cfa 31, 0
	ret
.LVL100:
.L62:
	.loc 2 170 0
	mov	w0, 1
.LVL101:
	.loc 2 184 0
	ret
.LVL102:
.L63:
	.cfi_def_cfa 29, 48
	.cfi_offset 19, -32
	.cfi_offset 20, -24
	.cfi_offset 21, -16
	.cfi_offset 22, -8
	.cfi_offset 29, -48
	.cfi_offset 30, -40
	.loc 2 174 0
	mov	w0, 0
.LVL103:
	b	.L59
	.cfi_endproc
.LFE1710:
	.size	_ZN6VectorI11FATDirEntryE14resizeCapacityEm, .-_ZN6VectorI11FATDirEntryE14resizeCapacityEm
	.section	.text._ZN6VectorI11FATDirEntryEC2Em,"axG",@progbits,_ZN6VectorI11FATDirEntryEC5Em,comdat
	.align	2
	.weak	_ZN6VectorI11FATDirEntryEC2Em
	.type	_ZN6VectorI11FATDirEntryEC2Em, %function
_ZN6VectorI11FATDirEntryEC2Em:
.LFB1589:
	.loc 2 15 0
	.cfi_startproc
.LVL104:
	stp	x29, x30, [sp, -32]!
	.cfi_def_cfa_offset 32
	.cfi_offset 29, -32
	.cfi_offset 30, -24
	add	x29, sp, 0
	.cfi_def_cfa_register 29
	stp	x19, x20, [sp, 16]
	.cfi_offset 19, -16
	.cfi_offset 20, -8
	mov	x19, x0
	mov	x20, x1
.LBB17:
	.loc 2 16 0
	str	xzr, [x0]
	str	xzr, [x0, 8]
	str	xzr, [x0, 16]
	.loc 2 18 0
	cmp	x1, 8
	mov	x1, 8
.LVL105:
	csel	x1, x20, x1, cs
	bl	_ZN6VectorI11FATDirEntryE14resizeCapacityEm
.LVL106:
	tst	w0, 255
	beq	.L68
	.loc 2 20 0
	str	x20, [x19, 16]
.L68:
.LBE17:
	.loc 2 22 0
	ldp	x19, x20, [sp, 16]
.LVL107:
	ldp	x29, x30, [sp], 32
	.cfi_restore 30
	.cfi_restore 29
	.cfi_restore 19
	.cfi_restore 20
	.cfi_def_cfa 31, 0
	ret
	.cfi_endproc
.LFE1589:
	.size	_ZN6VectorI11FATDirEntryEC2Em, .-_ZN6VectorI11FATDirEntryEC2Em
	.weak	_ZN6VectorI11FATDirEntryEC1Em
	.set	_ZN6VectorI11FATDirEntryEC1Em,_ZN6VectorI11FATDirEntryEC2Em
	.text
	.align	2
	.global	_ZN13FAT32ReadUtil17readAllDirEntriesERK6VectorI10FAT32EntryEmPK11FAT32ExtBPBR12SectorReader
	.type	_ZN13FAT32ReadUtil17readAllDirEntriesERK6VectorI10FAT32EntryEmPK11FAT32ExtBPBR12SectorReader, %function
_ZN13FAT32ReadUtil17readAllDirEntriesERK6VectorI10FAT32EntryEmPK11FAT32ExtBPBR12SectorReader:
.LFB1350:
	.loc 1 35 0
	.cfi_startproc
.LVL108:
	stp	x29, x30, [sp, -128]!
	.cfi_def_cfa_offset 128
	.cfi_offset 29, -128
	.cfi_offset 30, -120
	add	x29, sp, 0
	.cfi_def_cfa_register 29
	stp	x19, x20, [sp, 16]
	stp	x21, x22, [sp, 32]
	stp	x23, x24, [sp, 48]
	stp	x25, x26, [sp, 64]
	str	x27, [sp, 80]
	.cfi_offset 19, -112
	.cfi_offset 20, -104
	.cfi_offset 21, -96
	.cfi_offset 22, -88
	.cfi_offset 23, -80
	.cfi_offset 24, -72
	.cfi_offset 25, -64
	.cfi_offset 26, -56
	.cfi_offset 27, -48
	mov	x26, x8
	mov	x25, x0
	mov	x20, x1
	mov	x21, x2
	mov	x24, x3
	.loc 1 36 0
	bl	_ZN13FAT32ReadUtil13getEntryCountERK6VectorI10FAT32EntryEm
.LVL109:
	mov	x23, x0
.LVL110:
	.loc 1 37 0
	ldrb	w22, [x21, 13]
	ldrh	w0, [x21, 11]
.LVL111:
	mul	w22, w22, w0
	sxtw	x22, w22
	lsr	x22, x22, 5
.LVL112:
	.loc 1 38 0
	mul	x1, x23, x22
	add	x0, x29, 104
	bl	_ZN6VectorI11FATDirEntryEC1Em
.LVL113:
.LBB18:
	.loc 1 39 0
	mov	x19, 0
.LVL114:
.L73:
	.loc 1 39 0 is_stmt 0 discriminator 3
	cmp	x19, x23
	beq	.L72
	.loc 1 41 0 is_stmt 1 discriminator 2
	mov	x1, x20
	mov	x0, x21
	bl	_ZNK11FAT32ExtBPB21getClusterFirstSectorEm
.LVL115:
	mov	x27, x0
	add	x0, x29, 104
	bl	_ZN6VectorI11FATDirEntryE7getDataEv
.LVL116:
	mul	x2, x19, x22
	ldrb	w3, [x21, 13]
	add	x2, x0, x2, lsl 5
	mov	x1, x27
	mov	x0, x24
	bl	_ZN12SectorReader4readEmPvm
.LVL117:
	.loc 1 42 0 discriminator 2
	mov	x1, x20
	mov	x0, x25
	bl	_ZNK6VectorI10FAT32EntryEixEm
.LVL118:
	bl	_ZNK10FAT32Entry8getAsIntEv
.LVL119:
	uxtw	x20, w0
.LVL120:
	.loc 1 39 0 discriminator 2
	add	x19, x19, 1
.LVL121:
	b	.L73
.L72:
.LBE18:
	.loc 1 44 0
	add	x1, x29, 104
	mov	x0, x26
	bl	_ZN6VectorI11FATDirEntryEC1EOS1_
.LVL122:
	.loc 1 38 0
	add	x0, x29, 104
	bl	_ZN6VectorI11FATDirEntryED1Ev
.LVL123:
	.loc 1 45 0
	mov	x0, x26
	ldp	x19, x20, [sp, 16]
.LVL124:
	ldp	x21, x22, [sp, 32]
.LVL125:
	ldp	x23, x24, [sp, 48]
.LVL126:
	ldp	x25, x26, [sp, 64]
.LVL127:
	ldr	x27, [sp, 80]
	ldp	x29, x30, [sp], 128
	.cfi_restore 30
	.cfi_restore 29
	.cfi_restore 27
	.cfi_restore 25
	.cfi_restore 26
	.cfi_restore 23
	.cfi_restore 24
	.cfi_restore 21
	.cfi_restore 22
	.cfi_restore 19
	.cfi_restore 20
	.cfi_def_cfa 31, 0
	ret
	.cfi_endproc
.LFE1350:
	.size	_ZN13FAT32ReadUtil17readAllDirEntriesERK6VectorI10FAT32EntryEmPK11FAT32ExtBPBR12SectorReader, .-_ZN13FAT32ReadUtil17readAllDirEntriesERK6VectorI10FAT32EntryEmPK11FAT32ExtBPBR12SectorReader
	.section	.text._ZN13MemoryManager10allocateAsIPPK11FATDirEntryEET_m,"axG",@progbits,_ZN13MemoryManager10allocateAsIPPK11FATDirEntryEET_m,comdat
	.align	2
	.weak	_ZN13MemoryManager10allocateAsIPPK11FATDirEntryEET_m
	.type	_ZN13MemoryManager10allocateAsIPPK11FATDirEntryEET_m, %function
_ZN13MemoryManager10allocateAsIPPK11FATDirEntryEET_m:
.LFB1744:
	.loc 3 15 0
	.cfi_startproc
.LVL128:
	stp	x29, x30, [sp, -16]!
	.cfi_def_cfa_offset 16
	.cfi_offset 29, -16
	.cfi_offset 30, -8
	add	x29, sp, 0
	.cfi_def_cfa_register 29
	.loc 3 17 0
	bl	_ZN13MemoryManager8allocateEm
.LVL129:
	.loc 3 18 0
	ldp	x29, x30, [sp], 16
	.cfi_restore 30
	.cfi_restore 29
	.cfi_def_cfa 31, 0
	ret
	.cfi_endproc
.LFE1744:
	.size	_ZN13MemoryManager10allocateAsIPPK11FATDirEntryEET_m, .-_ZN13MemoryManager10allocateAsIPPK11FATDirEntryEET_m
	.section	.text._ZN6VectorIPK11FATDirEntryE14resizeCapacityEm,"axG",@progbits,_ZN6VectorIPK11FATDirEntryE14resizeCapacityEm,comdat
	.align	2
	.weak	_ZN6VectorIPK11FATDirEntryE14resizeCapacityEm
	.type	_ZN6VectorIPK11FATDirEntryE14resizeCapacityEm, %function
_ZN6VectorIPK11FATDirEntryE14resizeCapacityEm:
.LFB1711:
	.loc 2 167 0
	.cfi_startproc
.LVL130:
	.loc 2 169 0
	ldr	x2, [x0, 8]
	cmp	x2, x1
	beq	.L81
	.loc 2 167 0
	stp	x29, x30, [sp, -48]!
	.cfi_def_cfa_offset 48
	.cfi_offset 29, -48
	.cfi_offset 30, -40
	add	x29, sp, 0
	.cfi_def_cfa_register 29
	stp	x19, x20, [sp, 16]
	stp	x21, x22, [sp, 32]
	.cfi_offset 19, -32
	.cfi_offset 20, -24
	.cfi_offset 21, -16
	.cfi_offset 22, -8
	mov	x21, x1
	mov	x19, x0
	.loc 2 171 0
	lsl	x22, x1, 3
	adrp	x20, mman
	add	x20, x20, :lo12:mman
	mov	x3, -1
	mov	x2, x22
	ldr	x1, [x0]
.LVL131:
	mov	x0, x20
.LVL132:
	bl	_ZN13MemoryManager10reallocateEPvmm
.LVL133:
	.loc 2 172 0
	mov	x1, x22
	mov	x0, x20
	bl	_ZN13MemoryManager10allocateAsIPPK11FATDirEntryEET_m
.LVL134:
	mov	x20, x0
.LVL135:
	.loc 2 173 0
	cbz	x0, .L82
.LBB19:
	.loc 2 176 0
	mov	x2, 0
.LVL136:
.L80:
	.loc 2 176 0 is_stmt 0 discriminator 3
	ldr	x0, [x19, 16]
	cmp	x0, x2
	beq	.L79
	.loc 2 177 0 is_stmt 1 discriminator 2
	ldr	x0, [x19]
	ldr	x0, [x0, x2, lsl 3]
	str	x0, [x20, x2, lsl 3]
	.loc 2 176 0 discriminator 2
	add	x2, x2, 1
.LVL137:
	b	.L80
.L79:
.LBE19:
	.loc 2 178 0
	ldr	x1, [x19]
	adrp	x0, mman
	add	x0, x0, :lo12:mman
	bl	_ZN13MemoryManager10deallocateEPv
.LVL138:
	.loc 2 181 0
	str	x20, [x19]
	.loc 2 182 0
	str	x21, [x19, 8]
	.loc 2 183 0
	mov	w0, 1
.L78:
	.loc 2 184 0
	ldp	x19, x20, [sp, 16]
.LVL139:
	ldp	x21, x22, [sp, 32]
.LVL140:
	ldp	x29, x30, [sp], 48
	.cfi_restore 30
	.cfi_restore 29
	.cfi_restore 21
	.cfi_restore 22
	.cfi_restore 19
	.cfi_restore 20
	.cfi_def_cfa 31, 0
	ret
.LVL141:
.L81:
	.loc 2 170 0
	mov	w0, 1
.LVL142:
	.loc 2 184 0
	ret
.LVL143:
.L82:
	.cfi_def_cfa 29, 48
	.cfi_offset 19, -32
	.cfi_offset 20, -24
	.cfi_offset 21, -16
	.cfi_offset 22, -8
	.cfi_offset 29, -48
	.cfi_offset 30, -40
	.loc 2 174 0
	mov	w0, 0
.LVL144:
	b	.L78
	.cfi_endproc
.LFE1711:
	.size	_ZN6VectorIPK11FATDirEntryE14resizeCapacityEm, .-_ZN6VectorIPK11FATDirEntryE14resizeCapacityEm
	.section	.text._ZN6VectorIPK11FATDirEntryEC2Em,"axG",@progbits,_ZN6VectorIPK11FATDirEntryEC5Em,comdat
	.align	2
	.weak	_ZN6VectorIPK11FATDirEntryEC2Em
	.type	_ZN6VectorIPK11FATDirEntryEC2Em, %function
_ZN6VectorIPK11FATDirEntryEC2Em:
.LFB1600:
	.loc 2 15 0
	.cfi_startproc
.LVL145:
	stp	x29, x30, [sp, -32]!
	.cfi_def_cfa_offset 32
	.cfi_offset 29, -32
	.cfi_offset 30, -24
	add	x29, sp, 0
	.cfi_def_cfa_register 29
	stp	x19, x20, [sp, 16]
	.cfi_offset 19, -16
	.cfi_offset 20, -8
	mov	x19, x0
	mov	x20, x1
.LBB20:
	.loc 2 16 0
	str	xzr, [x0]
	str	xzr, [x0, 8]
	str	xzr, [x0, 16]
	.loc 2 18 0
	cmp	x1, 8
	mov	x1, 8
.LVL146:
	csel	x1, x20, x1, cs
	bl	_ZN6VectorIPK11FATDirEntryE14resizeCapacityEm
.LVL147:
	tst	w0, 255
	beq	.L87
	.loc 2 20 0
	str	x20, [x19, 16]
.L87:
.LBE20:
	.loc 2 22 0
	ldp	x19, x20, [sp, 16]
.LVL148:
	ldp	x29, x30, [sp], 32
	.cfi_restore 30
	.cfi_restore 29
	.cfi_restore 19
	.cfi_restore 20
	.cfi_def_cfa 31, 0
	ret
	.cfi_endproc
.LFE1600:
	.size	_ZN6VectorIPK11FATDirEntryEC2Em, .-_ZN6VectorIPK11FATDirEntryEC2Em
	.weak	_ZN6VectorIPK11FATDirEntryEC1Em
	.set	_ZN6VectorIPK11FATDirEntryEC1Em,_ZN6VectorIPK11FATDirEntryEC2Em
	.section	.text._ZN6VectorIPK11FATDirEntryE18getIncrementalSizeEm,"axG",@progbits,_ZN6VectorIPK11FATDirEntryE18getIncrementalSizeEm,comdat
	.align	2
	.weak	_ZN6VectorIPK11FATDirEntryE18getIncrementalSizeEm
	.type	_ZN6VectorIPK11FATDirEntryE18getIncrementalSizeEm, %function
_ZN6VectorIPK11FATDirEntryE18getIncrementalSizeEm:
.LFB1745:
	.loc 2 209 0
	.cfi_startproc
.LVL149:
	.loc 2 211 0
	add	x0, x0, x0, lsl 1
.LVL150:
	.loc 2 212 0
	lsr	x0, x0, 1
	ret
	.cfi_endproc
.LFE1745:
	.size	_ZN6VectorIPK11FATDirEntryE18getIncrementalSizeEm, .-_ZN6VectorIPK11FATDirEntryE18getIncrementalSizeEm
	.section	.text._ZN6VectorIPK11FATDirEntryE24adjustCapacityForOneMoreEv,"axG",@progbits,_ZN6VectorIPK11FATDirEntryE24adjustCapacityForOneMoreEv,comdat
	.align	2
	.weak	_ZN6VectorIPK11FATDirEntryE24adjustCapacityForOneMoreEv
	.type	_ZN6VectorIPK11FATDirEntryE24adjustCapacityForOneMoreEv, %function
_ZN6VectorIPK11FATDirEntryE24adjustCapacityForOneMoreEv:
.LFB1712:
	.loc 2 187 0
	.cfi_startproc
.LVL151:
	.loc 2 189 0
	ldr	x1, [x0, 16]
	add	x1, x1, 1
	ldr	x2, [x0, 8]
	cmp	x1, x2
	bhi	.L98
	.loc 2 191 0
	mov	w0, 1
.LVL152:
	.loc 2 192 0
	ret
.LVL153:
.L98:
	.loc 2 187 0
	stp	x29, x30, [sp, -32]!
	.cfi_def_cfa_offset 32
	.cfi_offset 29, -32
	.cfi_offset 30, -24
	add	x29, sp, 0
	.cfi_def_cfa_register 29
	str	x19, [sp, 16]
	.cfi_offset 19, -16
	mov	x19, x0
	.loc 2 190 0
	mov	x0, x2
.LVL154:
	bl	_ZN6VectorIPK11FATDirEntryE18getIncrementalSizeEm
.LVL155:
	mov	x1, x0
	mov	x0, x19
	bl	_ZN6VectorIPK11FATDirEntryE14resizeCapacityEm
.LVL156:
	and	w0, w0, 255
	.loc 2 192 0
	ldr	x19, [sp, 16]
.LVL157:
	ldp	x29, x30, [sp], 32
	.cfi_restore 30
	.cfi_restore 29
	.cfi_restore 19
	.cfi_def_cfa 31, 0
	ret
	.cfi_endproc
.LFE1712:
	.size	_ZN6VectorIPK11FATDirEntryE24adjustCapacityForOneMoreEv, .-_ZN6VectorIPK11FATDirEntryE24adjustCapacityForOneMoreEv
	.section	.text._ZN6VectorIPK11FATDirEntryE8pushBackES2_,"axG",@progbits,_ZN6VectorIPK11FATDirEntryE8pushBackES2_,comdat
	.align	2
	.weak	_ZN6VectorIPK11FATDirEntryE8pushBackES2_
	.type	_ZN6VectorIPK11FATDirEntryE8pushBackES2_, %function
_ZN6VectorIPK11FATDirEntryE8pushBackES2_:
.LFB1608:
	.loc 2 81 0
	.cfi_startproc
.LVL158:
	stp	x29, x30, [sp, -32]!
	.cfi_def_cfa_offset 32
	.cfi_offset 29, -32
	.cfi_offset 30, -24
	add	x29, sp, 0
	.cfi_def_cfa_register 29
	stp	x19, x20, [sp, 16]
	.cfi_offset 19, -16
	.cfi_offset 20, -8
	mov	x19, x0
	mov	x20, x1
	.loc 2 83 0
	bl	_ZN6VectorIPK11FATDirEntryE24adjustCapacityForOneMoreEv
.LVL159:
	tst	w0, 255
	beq	.L99
	.loc 2 85 0
	ldr	x0, [x19, 16]
	add	x0, x0, 1
	str	x0, [x19, 16]
	.loc 2 86 0
	ldr	x1, [x19]
	lsl	x0, x0, 3
	sub	x0, x0, #8
	str	x20, [x1, x0]
.L99:
	.loc 2 88 0
	ldp	x19, x20, [sp, 16]
.LVL160:
	ldp	x29, x30, [sp], 32
	.cfi_restore 30
	.cfi_restore 29
	.cfi_restore 19
	.cfi_restore 20
	.cfi_def_cfa 31, 0
	ret
	.cfi_endproc
.LFE1608:
	.size	_ZN6VectorIPK11FATDirEntryE8pushBackES2_, .-_ZN6VectorIPK11FATDirEntryE8pushBackES2_
	.text
	.align	2
	.global	_ZN13FAT32ReadUtil22filterInDirFileEntriesERK6VectorI11FATDirEntryE
	.type	_ZN13FAT32ReadUtil22filterInDirFileEntriesERK6VectorI11FATDirEntryE, %function
_ZN13FAT32ReadUtil22filterInDirFileEntriesERK6VectorI11FATDirEntryE:
.LFB1356:
	.loc 1 83 0
	.cfi_startproc
.LVL161:
	stp	x29, x30, [sp, -80]!
	.cfi_def_cfa_offset 80
	.cfi_offset 29, -80
	.cfi_offset 30, -72
	add	x29, sp, 0
	.cfi_def_cfa_register 29
	stp	x19, x20, [sp, 16]
	str	x21, [sp, 32]
	.cfi_offset 19, -64
	.cfi_offset 20, -56
	.cfi_offset 21, -48
	mov	x21, x8
	mov	x20, x0
	.loc 1 84 0
	mov	x1, 0
	add	x0, x29, 56
.LVL162:
	bl	_ZN6VectorIPK11FATDirEntryEC1Em
.LVL163:
.LBB21:
	.loc 1 85 0
	mov	x19, 0
	b	.L105
.LVL164:
.L104:
	.loc 1 85 0 is_stmt 0 discriminator 2
	add	x19, x19, 1
.LVL165:
.L105:
	.loc 1 85 0 discriminator 1
	mov	x0, x20
	bl	_ZNK6VectorI11FATDirEntryE7getSizeEv
.LVL166:
	cmp	x0, x19
	beq	.L103
	.loc 1 87 0 is_stmt 1
	mov	x1, x19
	mov	x0, x20
	bl	_ZNK6VectorI11FATDirEntryEixEm
.LVL167:
	bl	_ZNK11FATDirEntry19uni_isLongNameEntryEv
.LVL168:
	tst	w0, 255
	bne	.L104
	.loc 1 87 0 is_stmt 0 discriminator 1
	mov	x1, x19
	mov	x0, x20
	bl	_ZNK6VectorI11FATDirEntryEixEm
.LVL169:
	bl	_ZNK11FATDirEntry10isVolumeIDEv
.LVL170:
	tst	w0, 255
	bne	.L104
	.loc 1 89 0 is_stmt 1
	mov	x0, x20
	bl	_ZNK6VectorI11FATDirEntryE7getDataEv
.LVL171:
	add	x1, x0, x19, lsl 5
	add	x0, x29, 56
	bl	_ZN6VectorIPK11FATDirEntryE8pushBackES2_
.LVL172:
	b	.L104
.L103:
.LBE21:
	.loc 1 92 0
	add	x1, x29, 56
	mov	x0, x21
	bl	_ZN6VectorIPK11FATDirEntryEC1EOS3_
.LVL173:
	.loc 1 84 0
	add	x0, x29, 56
	bl	_ZN6VectorIPK11FATDirEntryED1Ev
.LVL174:
	.loc 1 93 0
	mov	x0, x21
	ldp	x19, x20, [sp, 16]
.LVL175:
	ldr	x21, [sp, 32]
	ldp	x29, x30, [sp], 80
	.cfi_restore 30
	.cfi_restore 29
	.cfi_restore 21
	.cfi_restore 19
	.cfi_restore 20
	.cfi_def_cfa 31, 0
	ret
	.cfi_endproc
.LFE1356:
	.size	_ZN13FAT32ReadUtil22filterInDirFileEntriesERK6VectorI11FATDirEntryE, .-_ZN13FAT32ReadUtil22filterInDirFileEntriesERK6VectorI11FATDirEntryE
.Letext0:
	.file 4 "d:\\installed\\gcc-linaro-7.2.1-2017.11-i686-mingw32_aarch64-elf\\aarch64-elf\\include\\c++\\7.2.1\\cstddef"
	.file 5 "d:\\installed\\gcc-linaro-7.2.1-2017.11-i686-mingw32_aarch64-elf\\aarch64-elf\\include\\c++\\7.2.1\\cstdint"
	.file 6 "d:\\installed\\gcc-linaro-7.2.1-2017.11-i686-mingw32_aarch64-elf\\aarch64-elf\\include\\c++\\7.2.1\\initializer_list"
	.file 7 "d:\\installed\\gcc-linaro-7.2.1-2017.11-i686-mingw32_aarch64-elf\\aarch64-elf\\include\\c++\\7.2.1\\type_traits"
	.file 8 "d:\\installed\\gcc-linaro-7.2.1-2017.11-i686-mingw32_aarch64-elf\\aarch64-elf\\include\\c++\\7.2.1\\aarch64-elf\\bits\\c++config.h"
	.file 9 "d:\\installed\\gcc-linaro-7.2.1-2017.11-i686-mingw32_aarch64-elf\\aarch64-elf\\include\\c++\\7.2.1\\bits\\exception_ptr.h"
	.file 10 "d:\\installed\\gcc-linaro-7.2.1-2017.11-i686-mingw32_aarch64-elf\\aarch64-elf\\include\\c++\\7.2.1\\new"
	.file 11 "d:\\installed\\gcc-linaro-7.2.1-2017.11-i686-mingw32_aarch64-elf\\aarch64-elf\\include\\c++\\7.2.1\\bits\\stl_pair.h"
	.file 12 "d:\\installed\\gcc-linaro-7.2.1-2017.11-i686-mingw32_aarch64-elf\\aarch64-elf\\include\\c++\\7.2.1\\debug\\debug.h"
	.file 13 "d:\\installed\\gcc-linaro-7.2.1-2017.11-i686-mingw32_aarch64-elf\\aarch64-elf\\include\\c++\\7.2.1\\cwchar"
	.file 14 "d:\\installed\\gcc-linaro-7.2.1-2017.11-i686-mingw32_aarch64-elf\\aarch64-elf\\include\\c++\\7.2.1\\clocale"
	.file 15 "d:\\installed\\gcc-linaro-7.2.1-2017.11-i686-mingw32_aarch64-elf\\aarch64-elf\\include\\c++\\7.2.1\\cctype"
	.file 16 "d:\\installed\\gcc-linaro-7.2.1-2017.11-i686-mingw32_aarch64-elf\\aarch64-elf\\include\\c++\\7.2.1\\bits\\std_abs.h"
	.file 17 "d:\\installed\\gcc-linaro-7.2.1-2017.11-i686-mingw32_aarch64-elf\\aarch64-elf\\include\\c++\\7.2.1\\cstdlib"
	.file 18 "d:\\installed\\gcc-linaro-7.2.1-2017.11-i686-mingw32_aarch64-elf\\aarch64-elf\\include\\c++\\7.2.1\\cstdio"
	.file 19 "d:\\installed\\gcc-linaro-7.2.1-2017.11-i686-mingw32_aarch64-elf\\aarch64-elf\\include\\c++\\7.2.1\\bits\\basic_string.h"
	.file 20 "d:\\installed\\gcc-linaro-7.2.1-2017.11-i686-mingw32_aarch64-elf\\aarch64-elf\\include\\c++\\7.2.1\\bits\\uses_allocator.h"
	.file 21 "d:\\installed\\gcc-linaro-7.2.1-2017.11-i686-mingw32_aarch64-elf\\aarch64-elf\\include\\c++\\7.2.1\\tuple"
	.file 22 "d:\\installed\\gcc-linaro-7.2.1-2017.11-i686-mingw32_aarch64-elf\\aarch64-elf\\include\\c++\\7.2.1\\functional"
	.file 23 "d:\\installed\\gcc-linaro-7.2.1-2017.11-i686-mingw32_aarch64-elf\\aarch64-elf\\include\\c++\\7.2.1\\bits\\move.h"
	.file 24 "d:\\installed\\gcc-linaro-7.2.1-2017.11-i686-mingw32_aarch64-elf\\aarch64-elf\\include\\c++\\7.2.1\\bits\\predefined_ops.h"
	.file 25 "d:\\installed\\gcc-linaro-7.2.1-2017.11-i686-mingw32_aarch64-elf\\aarch64-elf\\include\\c++\\7.2.1\\ext\\new_allocator.h"
	.file 26 "d:\\installed\\gcc-linaro-7.2.1-2017.11-i686-mingw32_aarch64-elf\\aarch64-elf\\include\\c++\\7.2.1\\ext\\numeric_traits.h"
	.file 27 "d:\\installed\\gcc-linaro-7.2.1-2017.11-i686-mingw32_aarch64-elf\\lib\\gcc\\aarch64-elf\\7.2.1\\include\\stddef.h"
	.file 28 "d:\\installed\\gcc-linaro-7.2.1-2017.11-i686-mingw32_aarch64-elf\\lib\\gcc\\aarch64-elf\\7.2.1\\include\\stdint-gcc.h"
	.file 29 "D:\\Pool\\eclipse-workspace_aarch64\\newspace\\raspiOS\\include/def.h"
	.file 30 "D:\\Pool\\eclipse-workspace_aarch64\\newspace\\raspiOS\\include/filesystem/fat/FAT_BPB.h"
	.file 31 "D:\\Pool\\eclipse-workspace_aarch64\\newspace\\raspiOS\\include/printk.h"
	.file 32 "D:\\Pool\\eclipse-workspace_aarch64\\newspace\\raspiOS\\include/io/SectorReader.h"
	.file 33 "D:\\Pool\\eclipse-workspace_aarch64\\newspace\\raspiOS\\include/generic_util.h"
	.file 34 "D:\\Pool\\eclipse-workspace_aarch64\\newspace\\raspiOS\\include/memory/MemoryChunk.h"
	.file 35 "D:\\Pool\\eclipse-workspace_aarch64\\newspace\\raspiOS\\include/memory/MemoryManager.h"
	.file 36 "D:\\Pool\\eclipse-workspace_aarch64\\newspace\\raspiOS\\include/kernel.h"
	.file 37 "D:\\Pool\\eclipse-workspace_aarch64\\newspace\\raspiOS\\include/data_structures/Vector.h"
	.file 38 "D:\\Pool\\eclipse-workspace_aarch64\\newspace\\raspiOS\\include/data_structures/String.h"
	.file 39 "D:\\Pool\\eclipse-workspace_aarch64\\newspace\\raspiOS\\include/data_structures/VectorRef.h"
	.file 40 "D:\\Pool\\eclipse-workspace_aarch64\\newspace\\raspiOS\\include/templates_implementation/data_structures/VectorRef.h"
	.file 41 "D:\\Pool\\eclipse-workspace_aarch64\\newspace\\raspiOS\\include/data_structures/StringRef.h"
	.file 42 "D:\\Pool\\eclipse-workspace_aarch64\\newspace\\raspiOS\\include/filesystem/fat/FATDirEntry.h"
	.file 43 "D:\\Pool\\eclipse-workspace_aarch64\\newspace\\raspiOS\\include/filesystem/fat/FAT32ExtBPB.h"
	.file 44 "D:\\Pool\\eclipse-workspace_aarch64\\newspace\\raspiOS\\include/filesystem/fat/FATLongNameEntry.h"
	.file 45 "d:\\installed\\gcc-linaro-7.2.1-2017.11-i686-mingw32_aarch64-elf\\aarch64-elf\\libc\\usr\\include\\sys\\lock.h"
	.file 46 "d:\\installed\\gcc-linaro-7.2.1-2017.11-i686-mingw32_aarch64-elf\\aarch64-elf\\libc\\usr\\include\\sys\\_types.h"
	.file 47 "d:\\installed\\gcc-linaro-7.2.1-2017.11-i686-mingw32_aarch64-elf\\aarch64-elf\\libc\\usr\\include\\sys\\reent.h"
	.file 48 "d:\\installed\\gcc-linaro-7.2.1-2017.11-i686-mingw32_aarch64-elf\\lib\\gcc\\aarch64-elf\\7.2.1\\include\\stdarg.h"
	.file 49 "<built-in>"
	.file 50 "d:\\installed\\gcc-linaro-7.2.1-2017.11-i686-mingw32_aarch64-elf\\aarch64-elf\\libc\\usr\\include\\wchar.h"
	.file 51 "d:\\installed\\gcc-linaro-7.2.1-2017.11-i686-mingw32_aarch64-elf\\aarch64-elf\\libc\\usr\\include\\locale.h"
	.file 52 "d:\\installed\\gcc-linaro-7.2.1-2017.11-i686-mingw32_aarch64-elf\\aarch64-elf\\libc\\usr\\include\\ctype.h"
	.file 53 "d:\\installed\\gcc-linaro-7.2.1-2017.11-i686-mingw32_aarch64-elf\\aarch64-elf\\libc\\usr\\include\\stdlib.h"
	.file 54 "d:\\installed\\gcc-linaro-7.2.1-2017.11-i686-mingw32_aarch64-elf\\aarch64-elf\\libc\\usr\\include\\stdio.h"
	.file 55 "d:\\installed\\gcc-linaro-7.2.1-2017.11-i686-mingw32_aarch64-elf\\aarch64-elf\\libc\\usr\\include\\sys\\errno.h"
	.file 56 "D:\\Pool\\eclipse-workspace_aarch64\\newspace\\raspiOS\\include/filesystem/fat/FAT32Entry.h"
	.file 57 "D:\\Pool\\eclipse-workspace_aarch64\\newspace\\raspiOS\\include/filesystem/fat/FAT32ReadUtil.h"